 GRBLc

 Timestamp is 5e86d363 (Fri Apr  3 15:10:43 2020)

 Preferred load address is 0000000180000000

 Start         Length     Name                   Class
 0001:00000000 00000540H .text$di                CODE
 0001:00000540 000501b0H .text$mn                CODE
 0001:000506f0 00000020H .text$mn$00             CODE
 0001:00050710 00003cf0H .text$x                 CODE
 0001:00054400 000006dbH .text$yd                CODE
 0002:00000000 00001020H .idata$5                DATA
 0002:00001020 00000010H .00cfg                  DATA
 0002:00001030 00000008H .CRT$XCA                DATA
 0002:00001038 00000018H .CRT$XCL                DATA
 0002:00001050 000000d0H .CRT$XCU                DATA
 0002:00001120 00000008H .CRT$XCZ                DATA
 0002:00001128 00000008H .CRT$XIA                DATA
 0002:00001130 00000008H .CRT$XIC                DATA
 0002:00001138 00000008H .CRT$XIU                DATA
 0002:00001140 00000008H .CRT$XIZ                DATA
 0002:00001148 00000008H .CRT$XLA                DATA
 0002:00001150 00000008H .CRT$XLC                DATA
 0002:00001158 00000008H .CRT$XLZ                DATA
 0002:00001160 00000008H .CRT$XPA                DATA
 0002:00001168 00000008H .CRT$XPZ                DATA
 0002:00001170 00000008H .CRT$XTA                DATA
 0002:00001178 00000008H .CRT$XTU                DATA
 0002:00001180 00000010H .CRT$XTZ                DATA
 0002:00001190 000112d8H .rdata                  DATA
 0002:00012468 00000028H .rdata$T                DATA
 0002:00012490 0000b824H .rdata$r                DATA
 0002:0001dcb4 00000424H .rdata$zzzdbg           DATA
 0002:0001e0d8 00000008H .rtc$IAA                DATA
 0002:0001e0e0 00000008H .rtc$IZZ                DATA
 0002:0001e0e8 00000008H .rtc$TAA                DATA
 0002:0001e0f0 00000010H .rtc$TZZ                DATA
 0002:0001e100 0000ca20H .xdata                  DATA
 0002:0002ab20 000016f0H .xdata$x                DATA
 0002:0002c210 00000000H ATL$__a                 DATA
 0002:0002c210 00000000H ATL$__z                 DATA
 0002:0002c210 0000005cH .edata                  DATA
 0002:0002c26c 00000140H .idata$2                DATA
 0002:0002c3ac 00000014H .idata$3                DATA
 0002:0002c3c0 00001020H .idata$4                DATA
 0002:0002d3e0 00001b32H .idata$6                DATA
 0003:00000000 00000040H .data                   DATA
 0003:00000040 0000e210H .data$r                 DATA
 0003:0000e250 00000fc0H .bss                    DATA
 0004:00000000 0000513cH .pdata                  DATA
 0005:00000000 00000038H .gfids$y                DATA
 0006:00000000 00000004H .tls                    DATA
 0006:00000004 00000004H .tls$                   DATA
 0006:00000008 00000001H .tls$ZZZ                DATA
 0007:00000000 00000440H .rsrc$01                DATA
 0007:00000440 00001bf0H .rsrc$02                DATA

  Address         Publics by Value              Rva+Base               Lib:Object

 0000:00000000       __dynamic_value_reloc_table 0000000000000000     <absolute>
 0000:00000000       __guard_iat_count          0000000000000000     <absolute>
 0000:00000000       __guard_iat_table          0000000000000000     <absolute>
 0000:00000000       __guard_longjmp_table      0000000000000000     <absolute>
 0000:00000000       __guard_longjmp_count      0000000000000000     <absolute>
 0000:00000000       __guard_fids_count         0000000000000000     <absolute>
 0000:00000000       ___safe_se_handler_table   0000000000000000     <absolute>
 0000:00000000       ___safe_se_handler_count   0000000000000000     <absolute>
 0000:00000000       __guard_fids_table         0000000000000000     <absolute>
 0000:00000100       __guard_flags              0000000000000100     <absolute>
 0000:00000000       __ImageBase                0000000180000000     <linker-defined>
 0001:00000540       ??0exception@std@@QEAA@AEBV01@@Z 0000000180001540 f i CustomControl.obj
 0001:00000580       ?what@exception@std@@UEBAPEBDXZ 0000000180001580 f i CustomControl.obj
 0001:000005a0       ??_Eservice_already_exists@asio@boost@@UEAAPEAXI@Z 00000001800015a0 f i * CIL library *:* CIL module *
 0001:000005a0       ??_Ginvalid_service_owner@asio@boost@@UEAAPEAXI@Z 00000001800015a0 f i SerialPort.obj
 0001:000005a0       ??_Gformat_error@io@boost@@UEAAPEAXI@Z 00000001800015a0 f i GRBLcOption.obj
 0001:000005a0       ??_Gbad_executor@asio@boost@@UEAAPEAXI@Z 00000001800015a0 f i SerialPort.obj
 0001:000005a0       ??_Gservice_already_exists@asio@boost@@UEAAPEAXI@Z 00000001800015a0 f i SerialPort.obj
 0001:000005a0       ??_Ebad_alloc@std@@UEAAPEAXI@Z 00000001800015a0 f i * CIL library *:* CIL module *
 0001:000005a0       ??_Elogic_error@std@@UEAAPEAXI@Z 00000001800015a0 f i * CIL library *:* CIL module *
 0001:000005a0       ??_Gexception@std@@UEAAPEAXI@Z 00000001800015a0 f i CustomControl.obj
 0001:000005a0       ??_Gruntime_error@std@@UEAAPEAXI@Z 00000001800015a0 f i GRBLdlg.obj
 0001:000005a0       ??_Gbad_exception@std@@UEAAPEAXI@Z 00000001800015a0 f i SerialPort.obj
 0001:000005a0       ??_Eformat_error@io@boost@@UEAAPEAXI@Z 00000001800015a0 f i * CIL library *:* CIL module *
 0001:000005a0       ??_Einvalid_service_owner@asio@boost@@UEAAPEAXI@Z 00000001800015a0 f i * CIL library *:* CIL module *
 0001:000005a0       ??_Ebad_function_call@boost@@UEAAPEAXI@Z 00000001800015a0 f i * CIL library *:* CIL module *
 0001:000005a0       ??_Ebad_exception@std@@UEAAPEAXI@Z 00000001800015a0 f i * CIL library *:* CIL module *
 0001:000005a0       ??_Gbad_function_call@boost@@UEAAPEAXI@Z 00000001800015a0 f i GRBLdlg.obj
 0001:000005a0       ??_Gbad_alloc@std@@UEAAPEAXI@Z 00000001800015a0 f i SerialPort.obj
 0001:000005a0       ??_Glogic_error@std@@UEAAPEAXI@Z 00000001800015a0 f i SerialPort.obj
 0001:000005a0       ??_Eexception@std@@UEAAPEAXI@Z 00000001800015a0 f i * CIL library *:* CIL module *
 0001:000005a0       ??_Ebad_cast@std@@UEAAPEAXI@Z 00000001800015a0 f i * CIL library *:* CIL module *
 0001:000005a0       ??_Gbad_cast@std@@UEAAPEAXI@Z 00000001800015a0 f i CustomControl.obj
 0001:000005a0       ??_Eruntime_error@std@@UEAAPEAXI@Z 00000001800015a0 f i * CIL library *:* CIL module *
 0001:000005a0       ??_Ebad_executor@asio@boost@@UEAAPEAXI@Z 00000001800015a0 f i * CIL library *:* CIL module *
 0001:000005f0       ??1too_many_args@io@boost@@UEAA@XZ 00000001800015f0 f i GRBLcOption.obj
 0001:000005f0       ??1bad_executor@asio@boost@@UEAA@XZ 00000001800015f0 f i SerialPort.obj
 0001:000005f0       ??1too_few_args@io@boost@@UEAA@XZ 00000001800015f0 f i GRBLcOption.obj
 0001:000005f0       ??1bad_alloc@std@@UEAA@XZ  00000001800015f0 f i SerialPort.obj
 0001:000005f0       ??1bad_cast@std@@UEAA@XZ   00000001800015f0 f i CustomControl.obj
 0001:000005f0       ??1invalid_service_owner@asio@boost@@UEAA@XZ 00000001800015f0 f i SerialPort.obj
 0001:000005f0       ??1bad_format_string@io@boost@@UEAA@XZ 00000001800015f0 f i GRBLcOption.obj
 0001:000005f0       ??1runtime_error@std@@UEAA@XZ 00000001800015f0 f i GRBLdlg.obj
 0001:000005f0       ??1bad_lexical_cast@boost@@UEAA@XZ 00000001800015f0 f i CustomControl.obj
 0001:000005f0       ??1bad_function_call@boost@@UEAA@XZ 00000001800015f0 f i GRBLdlg.obj
 0001:000005f0       ??1service_already_exists@asio@boost@@UEAA@XZ 00000001800015f0 f i SerialPort.obj
 0001:00000610       ??1locale@std@@QEAA@XZ     0000000180001610 f i CustomControl.obj
 0001:00000650       ?name@locale@std@@QEBA?AV?$basic_string@DU?$char_traits@D@std@@V?$allocator@D@2@@2@XZ 0000000180001650 f i CustomControl.obj
 0001:00000800       ??8locale@std@@QEBA_NAEBV01@@Z 0000000180001800 f i CustomControl.obj
 0001:00000a80       ??1clone_base@exception_detail@boost@@UEAA@XZ 0000000180001a80 f i CustomControl.obj
 0001:00000a90       ??_Gclone_base@exception_detail@boost@@UEAAPEAXI@Z 0000000180001a90 f i CustomControl.obj
 0001:00000a90       ??_Eclone_base@exception_detail@boost@@UEAAPEAXI@Z 0000000180001a90 f i * CIL library *:* CIL module *
 0001:00000ac0       ?copy_boost_exception@exception_detail@boost@@YAXPEAVexception@2@PEBV32@@Z 0000000180001ac0 f i CustomControl.obj
 0001:00000bb0       ?what@bad_lexical_cast@boost@@UEBAPEBDXZ 0000000180001bb0 f i CustomControl.obj
 0001:00000bc0       ??_Ebad_format_string@io@boost@@UEAAPEAXI@Z 0000000180001bc0 f i * CIL library *:* CIL module *
 0001:00000bc0       ??_Gtoo_many_args@io@boost@@UEAAPEAXI@Z 0000000180001bc0 f i GRBLcOption.obj
 0001:00000bc0       ??_Gtoo_few_args@io@boost@@UEAAPEAXI@Z 0000000180001bc0 f i GRBLcOption.obj
 0001:00000bc0       ??_Gbad_lexical_cast@boost@@UEAAPEAXI@Z 0000000180001bc0 f i CustomControl.obj
 0001:00000bc0       ??_Etoo_few_args@io@boost@@UEAAPEAXI@Z 0000000180001bc0 f i * CIL library *:* CIL module *
 0001:00000bc0       ??_Etoo_many_args@io@boost@@UEAAPEAXI@Z 0000000180001bc0 f i * CIL library *:* CIL module *
 0001:00000bc0       ??_Ebad_lexical_cast@boost@@UEAAPEAXI@Z 0000000180001bc0 f i * CIL library *:* CIL module *
 0001:00000bc0       ??_Gbad_format_string@io@boost@@UEAAPEAXI@Z 0000000180001bc0 f i GRBLcOption.obj
 0001:00000c10       ??0bad_cast@std@@QEAA@AEBV01@@Z 0000000180001c10 f i CustomControl.obj
 0001:00000c50       ?GetMessageMap@CIntEdit@@MEBAPEBUAFX_MSGMAP@@XZ 0000000180001c50 f   CustomControl.obj
 0001:00000c60       ?GetMessageMap@CFloatEdit@@MEBAPEBUAFX_MSGMAP@@XZ 0000000180001c60 f   CustomControl.obj
 0001:00000c70       ?PreTranslateMessage@CMyComboBox@@MEAAHPEAUtagMSG@@@Z 0000000180001c70 f   CustomControl.obj
 0001:00000d50       ?PreTranslateMessage@CMyListBox@@MEAAHPEAUtagMSG@@@Z 0000000180001d50 f   CustomControl.obj
 0001:00000e00       ?CopyMessage@CMyListBox@@AEAAXXZ 0000000180001e00 f   CustomControl.obj
 0001:00001150       ??4CIntEdit@@QEAAAEAV0@H@Z 0000000180002150 f   CustomControl.obj
 0001:00001210       ??BCIntEdit@@QEAAHXZ       0000000180002210 f   CustomControl.obj
 0001:00001290       ?OnChar@CIntEdit@@IEAAXIII@Z 0000000180002290 f   CustomControl.obj
 0001:00001370       ??4CFloatEdit@@QEAAAEAV0@M@Z 0000000180002370 f   CustomControl.obj
 0001:00001400       ??BCFloatEdit@@QEAAMXZ     0000000180002400 f   CustomControl.obj
 0001:00001490       ?OnChar@CFloatEdit@@IEAAXIII@Z 0000000180002490 f   CustomControl.obj
 0001:00001570       ??$call_put_head@DU?$char_traits@D@std@@$$CBH@detail@io@boost@@YAXAEAV?$basic_ostream@DU?$char_traits@D@std@@@std@@PEBX@Z 0000000180002570 f i GRBLdlg.obj
 0001:00001570       ?OnOK@CGRBLdlg@@MEAAXXZ    0000000180002570 f i GRBLdlg.obj
 0001:00001570       ?shutdown@win_iocp_serial_port_service@detail@asio@boost@@UEAAXXZ 0000000180002570 f i SerialPort.obj
 0001:00001570       ?link@?$matchable_ex@V?$_String_const_iterator@V?$_String_val@U?$_Simple_types@D@std@@@std@@@std@@@detail@xpressive@boost@@UEBAXAEAU?$xpression_linker@D@234@@Z 0000000180002570 f i GRBLdlg.obj
 0001:00001570       ??1?$_String_alloc@U?$_String_base_types@DV?$allocator@D@std@@@std@@@std@@QEAA@XZ 0000000180002570 f i CustomControl.obj
 0001:00001570       ?__global_delete@@YAXPEAX_K@Z 0000000180002570 f i * CIL library *:* CIL module *
 0001:00001570       ??$call_put_head@DU?$char_traits@D@std@@$$CB_K@detail@io@boost@@YAXAEAV?$basic_ostream@DU?$char_traits@D@std@@@std@@PEBX@Z 0000000180002570 f i GRBLcOption.obj
 0001:00001570       ??$destroy@PEAD@?$_Wrap_alloc@V?$allocator@D@std@@@std@@QEAAXPEAPEAD@Z 0000000180002570 f i CustomControl.obj
 0001:00001570       ?execute@actionable@detail@xpressive@boost@@UEBAXPEAV?$map@PEBVtype_info@@PEAXUtype_info_less@detail@xpressive@boost@@V?$allocator@U?$pair@QEBVtype_info@@PEAX@std@@@std@@@std@@@Z 0000000180002570 f i GRBLdlg.obj
 0001:00001570       ??1std_fenced_block@detail@asio@boost@@QEAA@XZ 0000000180002570 f i SerialPort.obj
 0001:00001570       ?OnCancel@CProbeZ@@MEAAXXZ 0000000180002570 f i ProbeZ.obj
 0001:00001570       _guard_check_icall_nop     0000000180002570 f i msvcrt:guard_support.obj
 0001:00001570       ??1?$service_id@Vwin_iocp_serial_port_service@detail@asio@boost@@@detail@asio@boost@@QEAA@XZ 0000000180002570 f i SerialPort.obj
 0001:00001570       ?AssertValid@CObject@@UEBAXXZ 0000000180002570 f i CustomControl.obj
 0001:00001570       ?link@?$xpression_adaptor@U?$static_xpression@Umark_begin_matcher@detail@xpressive@boost@@U?$static_xpression@Uassert_bos_matcher@detail@xpressive@boost@@U?$static_xpression@U?$literal_matcher@U?$cpp_regex_traits@D@xpressive@boost@@U?$bool_@$0A@@mpl@3@U453@@detail@xpressive@boost@@U?$static_xpression@U?$simple_repeat_matcher@U?$static_xpression@U?$posix_charset_matcher@U?$cpp_regex_traits@D@xpressive@boost@@@detail@xpressive@boost@@U?$static_xpression@Utrue_matcher@detail@xpressive@boost@@Uno_next@234@@234@@detail@xpressive@boost@@U?$bool_@$00@mpl@4@@detail@xpressive@boost@@U?$static_xpression@Umark_end_matcher@detail@xpressive@boost@@U?$static_xpression@Umark_begin_matcher@detail@xpressive@boost@@U?$static_xpression@U?$simple_repeat_matcher@U?$static_xpression@Uany_matcher@detail@xpressive@boost@@U?$static_xpression@Utrue_matcher@detail@xpressive@boost@@Uno_next@234@@234@@detail@xpressive@boost@@U?$bool_@$00@mpl@4@@detail@xpressive@boost@@U?$static_xpression@Umark_end_matcher@detail@xpressive@boost@@U?$static_xpression@Uend_matcher@detail@xpressive@boost@@Uno_next@234@@234@@234@@234@@234@@234@@234@@234@@234@@detail@xpressive@boost@@U?$matchable_ex@V?$_String_const_iterator@V?$_String_val@U?$_Simple_types@D@std@@@std@@@std@@@234@@detail@xpressive@boost@@UEBAXAEAU?$xpression_linker@D@234@@Z 0000000180002570 f i GRBLdlg.obj
 0001:00001570       ??1?$service_id@Vscheduler@detail@asio@boost@@@detail@asio@boost@@QEAA@XZ 0000000180002570 f i SerialPort.obj
 0001:00001570       ??$call_put_head@DU?$char_traits@D@std@@$$CBM@detail@io@boost@@YAXAEAV?$basic_ostream@DU?$char_traits@D@std@@@std@@PEBX@Z 0000000180002570 f i GRBLdlg.obj
 0001:00001570       ?OnOK@CProbeZ@@MEAAXXZ     0000000180002570 f i ProbeZ.obj
 0001:00001570       ?DoDataExchange@CWnd@@MEAAXPEAVCDataExchange@@@Z 0000000180002570 f i GRBLcSetup.obj
 0001:00001570       ?Serialize@CObject@@UEAAXAEAVCArchive@@@Z 0000000180002570 f i CustomControl.obj
 0001:00001570       ?notify_fork@service@execution_context@asio@boost@@EEAAXW4fork_event@234@@Z 0000000180002570 f i SerialPort.obj
 0001:00001570       ??1?$service_id@Vwin_iocp_io_context@detail@asio@boost@@@detail@asio@boost@@QEAA@XZ 0000000180002570 f i SerialPort.obj
 0001:00001570       ?link@?$xpression_adaptor@U?$static_xpression@U?$literal_matcher@U?$cpp_regex_traits@D@xpressive@boost@@U?$bool_@$0A@@mpl@3@U453@@detail@xpressive@boost@@U?$static_xpression@U?$simple_repeat_matcher@U?$static_xpression@U?$literal_matcher@U?$cpp_regex_traits@D@xpressive@boost@@U?$bool_@$0A@@mpl@3@U?$bool_@$00@53@@detail@xpressive@boost@@U?$static_xpression@Utrue_matcher@detail@xpressive@boost@@Uno_next@234@@234@@detail@xpressive@boost@@U?$bool_@$00@mpl@4@@detail@xpressive@boost@@U?$static_xpression@U?$literal_matcher@U?$cpp_regex_traits@D@xpressive@boost@@U?$bool_@$0A@@mpl@3@U453@@detail@xpressive@boost@@U?$static_xpression@Uend_matcher@detail@xpressive@boost@@Uno_next@234@@234@@234@@234@@detail@xpressive@boost@@U?$matchable_ex@V?$_String_const_iterator@V?$_String_val@U?$_Simple_types@D@std@@@std@@@std@@@234@@detail@xpressive@boost@@UEBAXAEAU?$xpression_linker@D@234@@Z 0000000180002570 f i GRBLdlg.obj
 0001:00001570       ??1?$service_id@Vselect_reactor@detail@asio@boost@@@detail@asio@boost@@QEAA@XZ 0000000180002570 f i SerialPort.obj
 0001:00001570       ??3@YAXPEAX0@Z             0000000180002570 f i GRBLcOption.obj
 0001:00001570       ??1?$service_id@Vnull_reactor@detail@asio@boost@@@detail@asio@boost@@QEAA@XZ 0000000180002570 f i SerialPort.obj
 0001:00001570       ?OnCancel@CProbeXY@@MEAAXXZ 0000000180002570 f i ProbeXY.obj
 0001:00001570       ?dispose@?$sp_counted_impl_pd@PEAV?$basic_altstringbuf@DU?$char_traits@D@std@@V?$allocator@D@2@@io@boost@@VNo_Op@?$basic_oaltstringstream@DU?$char_traits@D@std@@V?$allocator@D@2@@23@@detail@boost@@UEAAXXZ 0000000180002570 f i GRBLcOption.obj
 0001:00001570       ?OnOK@CProbeXY@@MEAAXXZ    0000000180002570 f i ProbeXY.obj
 0001:00001570       ?Dump@CObject@@UEBAXAEAVCDumpContext@@@Z 0000000180002570 f i CustomControl.obj
 0001:00001570       ??1?$service_id@Vstrand_service@detail@asio@boost@@@detail@asio@boost@@QEAA@XZ 0000000180002570 f i SerialPort.obj
 0001:00001570       ?OnOK@CProbeParent@@MEAAXXZ 0000000180002570 f i ProbeParent.obj
 0001:00001570       ?apc_function@detail@asio@boost@@YAX_K@Z 0000000180002570 f i SerialPort.obj
 0001:00001570       ?__empty_global_delete@@YAXPEAX_K@Z 0000000180002570 f i CustomControl.obj
 0001:00001580       ??1?$refcount_ptr@Uerror_info_container@exception_detail@boost@@@exception_detail@boost@@QEAA@XZ 0000000180002580 f i CustomControl.obj
 0001:000015c0       ?do_truename@?$numpunct@D@std@@MEBA?AV?$basic_string@DU?$char_traits@D@std@@V?$allocator@D@2@@2@XZ 00000001800025c0 f i CustomControl.obj
 0001:00001610       ?do_falsename@?$numpunct@D@std@@MEBA?AV?$basic_string@DU?$char_traits@D@std@@V?$allocator@D@2@@2@XZ 0000000180002610 f i CustomControl.obj
 0001:00001660       ?do_grouping@?$numpunct@D@std@@MEBA?AV?$basic_string@DU?$char_traits@D@std@@V?$allocator@D@2@@2@XZ 0000000180002660 f i CustomControl.obj
 0001:000016b0       ?do_thousands_sep@?$numpunct@D@std@@MEBADXZ 00000001800026b0 f i CustomControl.obj
 0001:000016c0       ?do_decimal_point@?$numpunct@D@std@@MEBADXZ 00000001800026c0 f i CustomControl.obj
 0001:000016d0       ??1?$basic_string@DU?$char_traits@D@std@@V?$allocator@D@2@@std@@QEAA@XZ 00000001800026d0 f i CustomControl.obj
 0001:00001760       ??0?$basic_string@DU?$char_traits@D@std@@V?$allocator@D@2@@std@@QEAA@XZ 0000000180002760 f i CustomControl.obj
 0001:00001780       ??_G?$numpunct@D@std@@MEAAPEAXI@Z 0000000180002780 f i CustomControl.obj
 0001:00001780       ??_E?$numpunct@D@std@@MEAAPEAXI@Z 0000000180002780 f i * CIL library *:* CIL module *
 0001:000017e0       ?_Tidy@?$basic_string@DU?$char_traits@D@std@@V?$allocator@D@2@@std@@QEAAX_N_K@Z 00000001800027e0 f i CustomControl.obj
 0001:00001890       ?assign@?$basic_string@DU?$char_traits@D@std@@V?$allocator@D@2@@std@@QEAAAEAV12@PEBD_K@Z 0000000180002890 f i CustomControl.obj
 0001:000019c0       ?assign@?$basic_string@DU?$char_traits@D@std@@V?$allocator@D@2@@std@@QEAAAEAV12@AEBV12@_K1@Z 00000001800029c0 f i CustomControl.obj
 0001:00001af0       ?_Assign_rv@?$basic_string@DU?$char_traits@D@std@@V?$allocator@D@2@@std@@QEAAX$$QEAV12@@Z 0000000180002af0 f i CustomControl.obj
 0001:00001b80       ?grouping@?$numpunct@D@std@@QEBA?AV?$basic_string@DU?$char_traits@D@std@@V?$allocator@D@2@@2@XZ 0000000180002b80 f i CustomControl.obj
 0001:00001ba0       ?erase@?$basic_string@DU?$char_traits@D@std@@V?$allocator@D@2@@std@@QEAAAEAV12@_K0@Z 0000000180002ba0 f i CustomControl.obj
 0001:00001c70       ?_Copy@?$basic_string@DU?$char_traits@D@std@@V?$allocator@D@2@@std@@QEAAX_K0@Z 0000000180002c70 f i CustomControl.obj
 0001:00001e20       ?deallocate@?$allocator@D@std@@QEAAXPEAD_K@Z 0000000180002e20 f i CustomControl.obj
 0001:00001e80       ?allocate@?$allocator@D@std@@QEAAPEAD_K@Z 0000000180002e80 f i CustomControl.obj
 0001:00001e80       ?allocate@?$_Wrap_alloc@V?$allocator@D@std@@@std@@QEAAPEAD_K@Z 0000000180002e80 f i CustomControl.obj
 0001:00001ef0       ??$lexical_cast@V?$basic_string@DU?$char_traits@D@std@@V?$allocator@D@2@@std@@H@boost@@YA?AV?$basic_string@DU?$char_traits@D@std@@V?$allocator@D@2@@std@@AEBH@Z 0000000180002ef0 f i CustomControl.obj
 0001:00001fb0       ??$use_facet@V?$numpunct@D@std@@@std@@YAAEBV?$numpunct@D@0@AEBVlocale@0@@Z 0000000180002fb0 f i CustomControl.obj
 0001:00002150       ?replace@?$basic_string@DU?$char_traits@D@std@@V?$allocator@D@2@@std@@QEAAAEAV12@_K0PEBD0@Z 0000000180003150 f i CustomControl.obj
 0001:00002380       ?_Init@?$numpunct@D@std@@IEAAXAEBV_Locinfo@2@_N@Z 0000000180003380 f i CustomControl.obj
 0001:00002500       ?replace@?$basic_string@DU?$char_traits@D@std@@V?$allocator@D@2@@std@@QEAAAEAV12@_K0AEBV12@00@Z 0000000180003500 f i CustomControl.obj
 0001:000028f0       ?try_convert@?$lexical_converter_impl@V?$basic_string@DU?$char_traits@D@std@@V?$allocator@D@2@@std@@H@detail@boost@@SA_NAEBHAEAV?$basic_string@DU?$char_traits@D@std@@V?$allocator@D@2@@std@@@Z 00000001800038f0 f i CustomControl.obj
 0001:00002a20       ??_D?$wrapexcept@Vbad_lexical_cast@boost@@@boost@@QEAAXXZ 0000000180003a20 f i CustomControl.obj
 0001:00002a80       ??0?$wrapexcept@Vbad_lexical_cast@boost@@@boost@@QEAA@AEBU01@@Z 0000000180003a80 f i CustomControl.obj
 0001:00002b50       ??0?$clone_impl@U?$error_info_injector@Vbad_lexical_cast@boost@@@exception_detail@boost@@@exception_detail@boost@@QEAA@AEBV012@@Z 0000000180003b50 f i CustomControl.obj
 0001:00002be0       ??0?$error_info_injector@Vbad_lexical_cast@boost@@@exception_detail@boost@@QEAA@AEBU012@@Z 0000000180003be0 f i CustomControl.obj
 0001:00002cb0       ??0bad_lexical_cast@boost@@QEAA@AEBV01@@Z 0000000180003cb0 f i CustomControl.obj
 0001:00002d10       ??0exception@boost@@QEAA@AEBV01@@Z 0000000180003d10 f i CustomControl.obj
 0001:00002d70       ??0clone_base@exception_detail@boost@@QEAA@AEBV012@@Z 0000000180003d70 f i CustomControl.obj
 0001:00002d80       ??_G?$wrapexcept@Vbad_lexical_cast@boost@@@boost@@UEAAPEAXI@Z 0000000180003d80 f i CustomControl.obj
 0001:00002d80       ??_E?$wrapexcept@Vbad_lexical_cast@boost@@@boost@@UEAAPEAXI@Z 0000000180003d80 f i * CIL library *:* CIL module *
 0001:00002e00       ??_E?$clone_impl@U?$error_info_injector@Vbad_lexical_cast@boost@@@exception_detail@boost@@@exception_detail@boost@@UEAAPEAXI@Z 0000000180003e00 f i * CIL library *:* CIL module *
 0001:00002e00       ??_G?$clone_impl@U?$error_info_injector@Vbad_lexical_cast@boost@@@exception_detail@boost@@@exception_detail@boost@@UEAAPEAXI@Z 0000000180003e00 f i CustomControl.obj
 0001:00002e40       ??_E?$error_info_injector@Vbad_lexical_cast@boost@@@exception_detail@boost@@UEAAPEAXI@Z 0000000180003e40 f i * CIL library *:* CIL module *
 0001:00002e40       ??_G?$error_info_injector@Vbad_lexical_cast@boost@@@exception_detail@boost@@UEAAPEAXI@Z 0000000180003e40 f i CustomControl.obj
 0001:00002ed0       ??_D?$clone_impl@U?$error_info_injector@Vbad_lexical_cast@boost@@@exception_detail@boost@@@exception_detail@boost@@QEAAXXZ 0000000180003ed0 f i CustomControl.obj
 0001:00002ef0       ?convert@?$lcast_put_unsigned@U?$char_traits@D@std@@ID@detail@boost@@QEAAPEADXZ 0000000180003ef0 f i CustomControl.obj
 0001:00003180       ?rethrow@?$clone_impl@U?$error_info_injector@Vbad_lexical_cast@boost@@@exception_detail@boost@@@exception_detail@boost@@EEBAXXZ 0000000180004180 f i CustomControl.obj
 0001:00003220       ?clone@?$clone_impl@U?$error_info_injector@Vbad_lexical_cast@boost@@@exception_detail@boost@@@exception_detail@boost@@EEBAPEBVclone_base@23@XZ 0000000180004220 f i CustomControl.obj
 0001:00003280       ??1?$clone_impl@U?$error_info_injector@Vbad_lexical_cast@boost@@@exception_detail@boost@@@exception_detail@boost@@UEAA@XZ 0000000180004280 f i CustomControl.obj
 0001:00003320       ??1?$error_info_injector@Vbad_lexical_cast@boost@@@exception_detail@boost@@UEAA@XZ 0000000180004320 f i CustomControl.obj
 0001:00003380       ??0?$clone_impl@U?$error_info_injector@Vbad_lexical_cast@boost@@@exception_detail@boost@@@exception_detail@boost@@AEAA@AEBV012@Uclone_tag@012@@Z 0000000180004380 f i CustomControl.obj
 0001:00003440       ??$enable_both@Vbad_lexical_cast@boost@@@exception_detail@boost@@YA?AU?$wrapexcept@Vbad_lexical_cast@boost@@@1@AEBVbad_lexical_cast@1@@Z 0000000180004440 f i CustomControl.obj
 0001:000034e0       ??0?$wrapexcept@Vbad_lexical_cast@boost@@@boost@@QEAA@AEBU?$error_info_injector@Vbad_lexical_cast@boost@@@exception_detail@1@@Z 00000001800044e0 f i CustomControl.obj
 0001:000035d0       ??$enable_error_info@Vbad_lexical_cast@boost@@@boost@@YA?AU?$error_info_injector@Vbad_lexical_cast@boost@@@exception_detail@0@AEBVbad_lexical_cast@0@@Z 00000001800045d0 f i CustomControl.obj
 0001:00003654       ??_E?$wrapexcept@Vbad_lexical_cast@boost@@@boost@@WCI@EAAPEAXI@Z 0000000180004654 f i CustomControl.obj
 0001:00003660       ?rethrow@?$clone_impl@U?$error_info_injector@Vbad_lexical_cast@boost@@@exception_detail@boost@@@exception_detail@boost@@$0PPPPPPPM@A@EBAXXZ 0000000180004660 f i CustomControl.obj
 0001:0000366c       ??_E?$error_info_injector@Vbad_lexical_cast@boost@@@exception_detail@boost@@WCI@EAAPEAXI@Z 000000018000466c f i CustomControl.obj
 0001:00003678       ??_E?$clone_impl@U?$error_info_injector@Vbad_lexical_cast@boost@@@exception_detail@boost@@@exception_detail@boost@@$4PPPPPPPM@GA@EAAPEAXI@Z 0000000180004678 f i CustomControl.obj
 0001:00003688       ?clone@?$clone_impl@U?$error_info_injector@Vbad_lexical_cast@boost@@@exception_detail@boost@@@exception_detail@boost@@$0PPPPPPPM@A@EBAPEBVclone_base@23@XZ 0000000180004688 f i CustomControl.obj
 0001:00003694       ??_E?$clone_impl@U?$error_info_injector@Vbad_lexical_cast@boost@@@exception_detail@boost@@@exception_detail@boost@@WCI@EAAPEAXI@Z 0000000180004694 f i CustomControl.obj
 0001:000036a0       ??_E?$wrapexcept@Vbad_lexical_cast@boost@@@boost@@$4PPPPPPPM@GA@EAAPEAXI@Z 00000001800046a0 f i CustomControl.obj
 0001:000036b0       ??_E?$CArray@HH@@UEAAPEAXI@Z 00000001800046b0 f i * CIL library *:* CIL module *
 0001:000036b0       ??_G?$CArray@HH@@UEAAPEAXI@Z 00000001800046b0 f i CustomControl.obj
 0001:00003720       ?SetSize@?$CArray@HH@@QEAAX_J0@Z 0000000180004720 f i CustomControl.obj
 0001:000038d0       ??$SerializeElements@H@@YAXAEAVCArchive@@PEAH_J@Z 00000001800048d0 f i CustomControl.obj
 0001:000039b0       ?Serialize@?$CArray@HH@@UEAAXAEAVCArchive@@@Z 00000001800049b0 f i CustomControl.obj
 0001:00003a10       ??1?$CArray@HH@@UEAA@XZ    0000000180004a10 f i CustomControl.obj
 0001:00003a30       ??3CObject@@SAXPEAX@Z      0000000180004a30 f i CustomControl.obj
 0001:00003af0       ?GetMessageMap@CGRBLcApp@@MEBAPEBUAFX_MSGMAP@@XZ 0000000180004af0 f   GRBLc.obj
 0001:00003b00       ??0CGRBLcApp@@QEAA@XZ      0000000180004b00 f   GRBLc.obj
 0001:00003bf0       ??_GCGRBLcApp@@UEAAPEAXI@Z 0000000180004bf0 f i GRBLc.obj
 0001:00003bf0       ??_ECGRBLcApp@@UEAAPEAXI@Z 0000000180004bf0 f i * CIL library *:* CIL module *
 0001:00003c70       ??1?$array@V?$basic_string@DU?$char_traits@D@std@@V?$allocator@D@2@@std@@$03@boost@@QEAA@XZ 0000000180004c70 f i GRBLc.obj
 0001:00003ca0       NCVC_Initialize            0000000180004ca0 f   GRBLc.obj
 0001:00003cf0       GRBLc                      0000000180004cf0 f   GRBLc.obj
 0001:00003db0       ?GetApplicationRecoveryPingInterval@CWinApp@@UEAAKXZ 0000000180004db0 f i GRBLc.obj
 0001:00003dc0       ?get_untyped_deleter@?$sp_counted_impl_p@V?$clone_impl@Ubad_alloc_@exception_detail@boost@@@exception_detail@boost@@@detail@boost@@UEAAPEAXXZ 0000000180004dc0 f i SerialPort.obj
 0001:00003dc0       ?_AfxInitManaged@@YAHXZ    0000000180004dc0 f i GRBLc.obj
 0001:00003dc0       __scrt_stub_for_is_c_termination_complete 0000000180004dc0 f i msvcrt:ucrt_stubs.obj
 0001:00003dc0       _is_c_termination_complete 0000000180004dc0 f i msvcrt:ucrt_stubs.obj
 0001:00003dc0       ?get_deleter@?$sp_counted_impl_p@V?$clone_impl@Ubad_exception_@exception_detail@boost@@@exception_detail@boost@@@detail@boost@@UEAAPEAXAEBVtype_info@@@Z 0000000180004dc0 f i SerialPort.obj
 0001:00003dc0       ?GetApplicationRestartFlags@CWinApp@@UEAAKXZ 0000000180004dc0 f i GRBLc.obj
 0001:00003dc0       ?get_deleter@?$sp_counted_impl_p@U?$regex_impl@V?$_String_const_iterator@V?$_String_val@U?$_Simple_types@D@std@@@std@@@std@@@detail@xpressive@boost@@@detail@boost@@UEAAPEAXAEBVtype_info@@@Z 0000000180004dc0 f i GRBLdlg.obj
 0001:00003dc0       ?GetApplicationRecoveryParameter@CWinApp@@UEAAPEAXXZ 0000000180004dc0 f i GRBLc.obj
 0001:00003dc0       ?get_deleter@?$sp_counted_impl_p@V?$clone_impl@Ubad_alloc_@exception_detail@boost@@@exception_detail@boost@@@detail@boost@@UEAAPEAXAEBVtype_info@@@Z 0000000180004dc0 f i SerialPort.obj
 0001:00003dc0       ?get_local_deleter@?$sp_counted_impl_p@U?$regex_impl@V?$_String_const_iterator@V?$_String_val@U?$_Simple_types@D@std@@@std@@@std@@@detail@xpressive@boost@@@detail@boost@@UEAAPEAXAEBVtype_info@@@Z 0000000180004dc0 f i GRBLdlg.obj
 0001:00003dc0       ?get_untyped_deleter@?$sp_counted_impl_p@V?$clone_impl@Ubad_exception_@exception_detail@boost@@@exception_detail@boost@@@detail@boost@@UEAAPEAXXZ 0000000180004dc0 f i SerialPort.obj
 0001:00003dc0       ?get_local_deleter@?$sp_counted_impl_p@V?$clone_impl@Ubad_alloc_@exception_detail@boost@@@exception_detail@boost@@@detail@boost@@UEAAPEAXAEBVtype_info@@@Z 0000000180004dc0 f i SerialPort.obj
 0001:00003dc0       ?get_untyped_deleter@?$sp_counted_impl_p@U?$regex_impl@V?$_String_const_iterator@V?$_String_val@U?$_Simple_types@D@std@@@std@@@std@@@detail@xpressive@boost@@@detail@boost@@UEAAPEAXXZ 0000000180004dc0 f i GRBLdlg.obj
 0001:00003dc0       ?get_local_deleter@?$sp_counted_impl_p@V?$clone_impl@Ubad_exception_@exception_detail@boost@@@exception_detail@boost@@@detail@boost@@UEAAPEAXAEBVtype_info@@@Z 0000000180004dc0 f i SerialPort.obj
 0001:00003dd0       ?RestoreAutosavedFilesAtRestart@CWinApp@@UEBAHXZ 0000000180004dd0 f i GRBLc.obj
 0001:00003de0       ?ReopenPreviousFilesAtRestart@CWinApp@@UEBAHXZ 0000000180004de0 f i GRBLc.obj
 0001:00003df0       ?SupportsAutosaveAtInterval@CWinApp@@UEBAHXZ 0000000180004df0 f i GRBLc.obj
 0001:00003e00       ?SupportsAutosaveAtRestart@CWinApp@@UEBAHXZ 0000000180004e00 f i GRBLc.obj
 0001:00003e10       ?SupportsApplicationRecovery@CWinApp@@UEBAHXZ 0000000180004e10 f i GRBLc.obj
 0001:00003e20       ?SupportsRestartManager@CWinApp@@UEBAHXZ 0000000180004e20 f i GRBLc.obj
 0001:00003e30       ?AfxGetApp@@YAPEAVCWinApp@@XZ 0000000180004e30 f i GRBLc.obj
 0001:00003e50       ?destroy@sp_counted_base@detail@boost@@UEAAXXZ 0000000180004e50 f i GRBLcOption.obj
 0001:00003e70       ??_Esp_counted_base@detail@boost@@UEAAPEAXI@Z 0000000180004e70 f i * CIL library *:* CIL module *
 0001:00003e70       ??_Gsp_counted_base@detail@boost@@UEAAPEAXI@Z 0000000180004e70 f i GRBLcOption.obj
 0001:00003ea0       ??1shared_count@detail@boost@@QEAA@XZ 0000000180004ea0 f i GRBLcOption.obj
 0001:00003f00       ?sp_enable_shared_from_this@detail@boost@@YAXZZ 0000000180004f00 f i GRBLcOption.obj
 0001:00003f20       ?what@format_error@io@boost@@UEBAPEBDXZ 0000000180004f20 f i GRBLcOption.obj
 0001:00003f30       ?what@bad_format_string@io@boost@@UEBAPEBDXZ 0000000180004f30 f i GRBLcOption.obj
 0001:00003f40       ?what@too_few_args@io@boost@@UEBAPEBDXZ 0000000180004f40 f i GRBLcOption.obj
 0001:00003f50       ?what@too_many_args@io@boost@@UEBAPEBDXZ 0000000180004f50 f i GRBLcOption.obj
 0001:00003f60       ?DefaultSetting@CGRBLcOption@@AEAAXXZ 0000000180004f60 f   GRBLcOption.obj
 0001:00003ff0       ?GetStringOpt@CGRBLcOption@@QEAA?AV?$basic_string@DU?$char_traits@D@std@@V?$allocator@D@2@@std@@_K@Z 0000000180004ff0 f   GRBLcOption.obj
 0001:00004030       ?Read@CGRBLcOption@@QEAA_NXZ 0000000180005030 f   GRBLcOption.obj
 0001:00004620       ??1?$basic_format@DU?$char_traits@D@std@@V?$allocator@D@2@@boost@@QEAA@XZ 0000000180005620 f i GRBLcOption.obj
 0001:00004720       ??1?$optional@Vlocale@std@@@boost@@QEAA@XZ 0000000180005720 f i GRBLcOption.obj
 0001:00004770       ?Write@CGRBLcOption@@QEAA_NXZ 0000000180005770 f   GRBLcOption.obj
 0001:00004af0       ?Write_NoSetup@CGRBLcOption@@QEAA_NXZ 0000000180005af0 f   GRBLcOption.obj
 0001:00004bc0       ??1?$vector@U?$format_item@DU?$char_traits@D@std@@V?$allocator@D@2@@detail@io@boost@@V?$allocator@U?$format_item@DU?$char_traits@D@std@@V?$allocator@D@2@@detail@io@boost@@@std@@@std@@QEAA@XZ 0000000180005bc0 f i GRBLcOption.obj
 0001:00004c20       ??1?$basic_altstringbuf@DU?$char_traits@D@std@@V?$allocator@D@2@@io@boost@@UEAA@XZ 0000000180005c20 f i GRBLcOption.obj
 0001:00004c50       ??A?$bitset@$09@std@@QEAA?AVreference@01@_K@Z 0000000180005c50 f i GRBLcOption.obj
 0001:00004c60       ??1?$vector@_NV?$allocator@_N@std@@@std@@QEAA@XZ 0000000180005c60 f i GRBLcOption.obj
 0001:00004ca0       ??4?$basic_string@DU?$char_traits@D@std@@V?$allocator@D@2@@std@@QEAAAEAV01@$$QEAV01@@Z 0000000180005ca0 f i GRBLcOption.obj
 0001:00004d60       ??_E?$basic_altstringbuf@DU?$char_traits@D@std@@V?$allocator@D@2@@io@boost@@UEAAPEAXI@Z 0000000180005d60 f i * CIL library *:* CIL module *
 0001:00004d60       ??_G?$basic_altstringbuf@DU?$char_traits@D@std@@V?$allocator@D@2@@io@boost@@UEAAPEAXI@Z 0000000180005d60 f i GRBLcOption.obj
 0001:00004db0       ?append@?$basic_string@DU?$char_traits@D@std@@V?$allocator@D@2@@std@@QEAAAEAV12@_KD@Z 0000000180005db0 f i GRBLcOption.obj
 0001:00004ec0       ?append@?$basic_string@DU?$char_traits@D@std@@V?$allocator@D@2@@std@@QEAAAEAV12@PEBD_K@Z 0000000180005ec0 f i GRBLcOption.obj
 0001:00005010       ?append@?$basic_string@DU?$char_traits@D@std@@V?$allocator@D@2@@std@@QEAAAEAV12@AEBV12@_K1@Z 0000000180006010 f i GRBLcOption.obj
 0001:00005130       ?deallocate@?$_Wrap_alloc@V?$allocator@U?$format_item@DU?$char_traits@D@std@@V?$allocator@D@2@@detail@io@boost@@@std@@@std@@QEAAXPEAU?$format_item@DU?$char_traits@D@std@@V?$allocator@D@2@@detail@io@boost@@_K@Z 0000000180006130 f i GRBLcOption.obj
 0001:000051b0       ?deallocate@?$_Wrap_alloc@V?$allocator@I@std@@@std@@QEAAXPEAI_K@Z 00000001800061b0 f i GRBLcOption.obj
 0001:00005230       ??$use_facet@V?$ctype@D@std@@@std@@YAAEBV?$ctype@D@0@AEBVlocale@0@@Z 0000000180006230 f i GRBLcOption.obj
 0001:00005360       ??0?$basic_format@DU?$char_traits@D@std@@V?$allocator@D@2@@boost@@QEAA@PEBD@Z 0000000180006360 f i GRBLcOption.obj
 0001:000054e0       ?str@?$basic_format@DU?$char_traits@D@std@@V?$allocator@D@2@@boost@@QEBA?AV?$basic_string@DU?$char_traits@D@std@@V?$allocator@D@2@@std@@XZ 00000001800064e0 f i GRBLcOption.obj
 0001:00005790       ??$lexical_cast@M$$BY0EAA@D@boost@@YAMAEAY0EAA@$$CBD@Z 0000000180006790 f i GRBLcOption.obj
 0001:000058a0       ?seekoff@?$basic_altstringbuf@DU?$char_traits@D@std@@V?$allocator@D@2@@io@boost@@MEAA?AV?$fpos@U_Mbstatet@@@std@@_JHH@Z 00000001800068a0 f i GRBLcOption.obj
 0001:000059f0       ?seekpos@?$basic_altstringbuf@DU?$char_traits@D@std@@V?$allocator@D@2@@io@boost@@MEAA?AV?$fpos@U_Mbstatet@@@std@@V45@H@Z 00000001800069f0 f i GRBLcOption.obj
 0001:00005af0       ?underflow@?$basic_altstringbuf@DU?$char_traits@D@std@@V?$allocator@D@2@@io@boost@@MEAAHXZ 0000000180006af0 f i GRBLcOption.obj
 0001:00005b50       ?pbackfail@?$basic_altstringbuf@DU?$char_traits@D@std@@V?$allocator@D@2@@io@boost@@MEAAHH@Z 0000000180006b50 f i GRBLcOption.obj
 0001:00005ba0       ?overflow@?$basic_altstringbuf@DU?$char_traits@D@std@@V?$allocator@D@2@@io@boost@@MEAAHH@Z 0000000180006ba0 f i GRBLcOption.obj
 0001:00005e10       ?dealloc@?$basic_altstringbuf@DU?$char_traits@D@std@@V?$allocator@D@2@@io@boost@@IEAAXXZ 0000000180006e10 f i GRBLcOption.obj
 0001:00005ee0       ??$lexical_cast@V?$basic_string@DU?$char_traits@D@std@@V?$allocator@D@2@@std@@M@boost@@YA?AV?$basic_string@DU?$char_traits@D@std@@V?$allocator@D@2@@std@@AEBM@Z 0000000180006ee0 f i GRBLcOption.obj
 0001:00005fa0       ??$_Destroy_range@V?$allocator@U?$format_item@DU?$char_traits@D@std@@V?$allocator@D@2@@detail@io@boost@@@std@@PEAU?$format_item@DU?$char_traits@D@std@@V?$allocator@D@2@@detail@io@boost@@@std@@YAXPEAU?$format_item@DU?$char_traits@D@std@@V?$allocator@D@2@@detail@io@boost@@0AEAU?$_Wrap_alloc@V?$allocator@U?$format_item@DU?$char_traits@D@std@@V?$allocator@D@2@@detail@io@boost@@@std@@@0@@Z 0000000180006fa0 f i GRBLcOption.obj
 0001:00006020       ??_D?$wrapexcept@Vbad_format_string@io@boost@@@boost@@QEAAXXZ 0000000180007020 f i GRBLcOption.obj
 0001:00006080       ??0?$wrapexcept@Vbad_format_string@io@boost@@@boost@@QEAA@AEBU01@@Z 0000000180007080 f i GRBLcOption.obj
 0001:00006150       ??0?$clone_impl@U?$error_info_injector@Vbad_format_string@io@boost@@@exception_detail@boost@@@exception_detail@boost@@QEAA@AEBV012@@Z 0000000180007150 f i GRBLcOption.obj
 0001:000061e0       ??0?$error_info_injector@Vbad_format_string@io@boost@@@exception_detail@boost@@QEAA@AEBU012@@Z 00000001800071e0 f i GRBLcOption.obj
 0001:000062b0       ??0bad_format_string@io@boost@@QEAA@AEBV012@@Z 00000001800072b0 f i GRBLcOption.obj
 0001:00006310       ??0format_error@io@boost@@QEAA@AEBV012@@Z 0000000180007310 f i GRBLcOption.obj
 0001:00006350       ??_G?$wrapexcept@Vbad_format_string@io@boost@@@boost@@UEAAPEAXI@Z 0000000180007350 f i GRBLcOption.obj
 0001:00006350       ??_E?$wrapexcept@Vbad_format_string@io@boost@@@boost@@UEAAPEAXI@Z 0000000180007350 f i * CIL library *:* CIL module *
 0001:000063d0       ??_G?$clone_impl@U?$error_info_injector@Vbad_format_string@io@boost@@@exception_detail@boost@@@exception_detail@boost@@UEAAPEAXI@Z 00000001800073d0 f i GRBLcOption.obj
 0001:000063d0       ??_E?$clone_impl@U?$error_info_injector@Vbad_format_string@io@boost@@@exception_detail@boost@@@exception_detail@boost@@UEAAPEAXI@Z 00000001800073d0 f i * CIL library *:* CIL module *
 0001:00006410       ??_E?$error_info_injector@Vbad_format_string@io@boost@@@exception_detail@boost@@UEAAPEAXI@Z 0000000180007410 f i * CIL library *:* CIL module *
 0001:00006410       ??_G?$error_info_injector@Vbad_format_string@io@boost@@@exception_detail@boost@@UEAAPEAXI@Z 0000000180007410 f i GRBLcOption.obj
 0001:000064a0       ??_D?$clone_impl@U?$error_info_injector@Vbad_format_string@io@boost@@@exception_detail@boost@@@exception_detail@boost@@QEAAXXZ 00000001800074a0 f i GRBLcOption.obj
 0001:000064c0       ?rethrow@?$clone_impl@U?$error_info_injector@Vbad_format_string@io@boost@@@exception_detail@boost@@@exception_detail@boost@@EEBAXXZ 00000001800074c0 f i GRBLcOption.obj
 0001:00006560       ?clone@?$clone_impl@U?$error_info_injector@Vbad_format_string@io@boost@@@exception_detail@boost@@@exception_detail@boost@@EEBAPEBVclone_base@23@XZ 0000000180007560 f i GRBLcOption.obj
 0001:000065c0       ??1?$clone_impl@U?$error_info_injector@Vbad_format_string@io@boost@@@exception_detail@boost@@@exception_detail@boost@@UEAA@XZ 00000001800075c0 f i GRBLcOption.obj
 0001:00006660       ??1?$error_info_injector@Vbad_format_string@io@boost@@@exception_detail@boost@@UEAA@XZ 0000000180007660 f i GRBLcOption.obj
 0001:000066c0       ?reserve@?$basic_string@DU?$char_traits@D@std@@V?$allocator@D@2@@std@@QEAAX_K@Z 00000001800076c0 f i GRBLcOption.obj
 0001:00006770       ??0?$clone_impl@U?$error_info_injector@Vbad_format_string@io@boost@@@exception_detail@boost@@@exception_detail@boost@@AEAA@AEBV012@Uclone_tag@012@@Z 0000000180007770 f i GRBLcOption.obj
 0001:00006830       ?_Construct_n@?$vector@IV?$allocator@_N@std@@@std@@QEAAX_KPEBI@Z 0000000180007830 f i GRBLcOption.obj
 0001:000068c0       ?allocate@?$allocator@I@std@@QEAAPEAI_K@Z 00000001800078c0 f i GRBLcOption.obj
 0001:00006950       ?parse@?$basic_format@DU?$char_traits@D@std@@V?$allocator@D@2@@boost@@QEAAAEAV12@AEBV?$basic_string@DU?$char_traits@D@std@@V?$allocator@D@2@@std@@@Z 0000000180007950 f i GRBLcOption.obj
 0001:00006eb0       ?size@?$basic_format@DU?$char_traits@D@std@@V?$allocator@D@2@@boost@@QEBA_KXZ 0000000180007eb0 f i GRBLcOption.obj
 0001:00006f20       ??$enable_both@Vbad_format_string@io@boost@@@exception_detail@boost@@YA?AU?$wrapexcept@Vbad_format_string@io@boost@@@1@AEBVbad_format_string@io@1@@Z 0000000180007f20 f i GRBLcOption.obj
 0001:00006fc0       ??1?$format_item@DU?$char_traits@D@std@@V?$allocator@D@2@@detail@io@boost@@QEAA@XZ 0000000180007fc0 f i GRBLcOption.obj
 0001:00007020       ??_D?$wrapexcept@Vtoo_few_args@io@boost@@@boost@@QEAAXXZ 0000000180008020 f i GRBLcOption.obj
 0001:00007080       ??0?$wrapexcept@Vtoo_few_args@io@boost@@@boost@@QEAA@AEBU01@@Z 0000000180008080 f i GRBLcOption.obj
 0001:00007150       ??0?$clone_impl@U?$error_info_injector@Vtoo_few_args@io@boost@@@exception_detail@boost@@@exception_detail@boost@@QEAA@AEBV012@@Z 0000000180008150 f i GRBLcOption.obj
 0001:000071e0       ??0?$error_info_injector@Vtoo_few_args@io@boost@@@exception_detail@boost@@QEAA@AEBU012@@Z 00000001800081e0 f i GRBLcOption.obj
 0001:000072b0       ??0too_few_args@io@boost@@QEAA@AEBV012@@Z 00000001800082b0 f i GRBLcOption.obj
 0001:00007310       ??_E?$wrapexcept@Vtoo_few_args@io@boost@@@boost@@UEAAPEAXI@Z 0000000180008310 f i * CIL library *:* CIL module *
 0001:00007310       ??_G?$wrapexcept@Vtoo_few_args@io@boost@@@boost@@UEAAPEAXI@Z 0000000180008310 f i GRBLcOption.obj
 0001:00007390       ??_E?$clone_impl@U?$error_info_injector@Vtoo_few_args@io@boost@@@exception_detail@boost@@@exception_detail@boost@@UEAAPEAXI@Z 0000000180008390 f i * CIL library *:* CIL module *
 0001:00007390       ??_G?$clone_impl@U?$error_info_injector@Vtoo_few_args@io@boost@@@exception_detail@boost@@@exception_detail@boost@@UEAAPEAXI@Z 0000000180008390 f i GRBLcOption.obj
 0001:000073d0       ??_G?$error_info_injector@Vtoo_few_args@io@boost@@@exception_detail@boost@@UEAAPEAXI@Z 00000001800083d0 f i GRBLcOption.obj
 0001:000073d0       ??_E?$error_info_injector@Vtoo_few_args@io@boost@@@exception_detail@boost@@UEAAPEAXI@Z 00000001800083d0 f i * CIL library *:* CIL module *
 0001:00007460       ??_D?$clone_impl@U?$error_info_injector@Vtoo_few_args@io@boost@@@exception_detail@boost@@@exception_detail@boost@@QEAAXXZ 0000000180008460 f i GRBLcOption.obj
 0001:00007480       ?try_convert@?$lexical_converter_impl@V?$basic_string@DU?$char_traits@D@std@@V?$allocator@D@2@@std@@M@detail@boost@@SA_NAEBMAEAV?$basic_string@DU?$char_traits@D@std@@V?$allocator@D@2@@std@@@Z 0000000180008480 f i GRBLcOption.obj
 0001:00007630       ?rethrow@?$clone_impl@U?$error_info_injector@Vtoo_few_args@io@boost@@@exception_detail@boost@@@exception_detail@boost@@EEBAXXZ 0000000180008630 f i GRBLcOption.obj
 0001:000076d0       ?clone@?$clone_impl@U?$error_info_injector@Vtoo_few_args@io@boost@@@exception_detail@boost@@@exception_detail@boost@@EEBAPEBVclone_base@23@XZ 00000001800086d0 f i GRBLcOption.obj
 0001:00007730       ??1?$clone_impl@U?$error_info_injector@Vtoo_few_args@io@boost@@@exception_detail@boost@@@exception_detail@boost@@UEAA@XZ 0000000180008730 f i GRBLcOption.obj
 0001:000077d0       ??1?$error_info_injector@Vtoo_few_args@io@boost@@@exception_detail@boost@@UEAA@XZ 00000001800087d0 f i GRBLcOption.obj
 0001:00007830       ??0?$wrapexcept@Vbad_format_string@io@boost@@@boost@@QEAA@AEBU?$error_info_injector@Vbad_format_string@io@boost@@@exception_detail@1@@Z 0000000180008830 f i GRBLcOption.obj
 0001:00007920       ?resize@?$vector@U?$format_item@DU?$char_traits@D@std@@V?$allocator@D@2@@detail@io@boost@@V?$allocator@U?$format_item@DU?$char_traits@D@std@@V?$allocator@D@2@@detail@io@boost@@@std@@@std@@QEAAX_KAEBU?$format_item@DU?$char_traits@D@std@@V?$allocator@D@2@@detail@io@boost@@@Z 0000000180008920 f i GRBLcOption.obj
 0001:00007a70       ?find@?$basic_string@DU?$char_traits@D@std@@V?$allocator@D@2@@std@@QEBA_KD_K@Z 0000000180008a70 f i GRBLcOption.obj
 0001:00007b00       ??1?$lexical_istream_limited_src@DU?$char_traits@D@std@@$00$0BF@@detail@boost@@QEAA@XZ 0000000180008b00 f i GRBLcOption.obj
 0001:00007b40       ??0?$clone_impl@U?$error_info_injector@Vtoo_few_args@io@boost@@@exception_detail@boost@@@exception_detail@boost@@AEAA@AEBV012@Uclone_tag@012@@Z 0000000180008b40 f i GRBLcOption.obj
 0001:00007c00       ?_Reserve@?$vector@U?$format_item@DU?$char_traits@D@std@@V?$allocator@D@2@@detail@io@boost@@V?$allocator@U?$format_item@DU?$char_traits@D@std@@V?$allocator@D@2@@detail@io@boost@@@std@@@std@@IEAAX_K@Z 0000000180008c00 f i GRBLcOption.obj
 0001:00007cd0       ?seekpos@?$basic_stringbuf@DU?$char_traits@D@std@@V?$allocator@D@2@@std@@MEAA?AV?$fpos@U_Mbstatet@@@2@V32@H@Z 0000000180008cd0 f i GRBLcOption.obj
 0001:00007de0       ?seekoff@?$basic_stringbuf@DU?$char_traits@D@std@@V?$allocator@D@2@@std@@MEAA?AV?$fpos@U_Mbstatet@@@2@_JHH@Z 0000000180008de0 f i GRBLcOption.obj
 0001:00007f80       ?underflow@?$basic_stringbuf@DU?$char_traits@D@std@@V?$allocator@D@2@@std@@MEAAHXZ 0000000180008f80 f i GRBLcOption.obj
 0001:00007fe0       ?pbackfail@?$basic_stringbuf@DU?$char_traits@D@std@@V?$allocator@D@2@@std@@MEAAHH@Z 0000000180008fe0 f i GRBLcOption.obj
 0001:00008030       ?overflow@?$basic_stringbuf@DU?$char_traits@D@std@@V?$allocator@D@2@@std@@MEAAHH@Z 0000000180009030 f i GRBLcOption.obj
 0001:000082a0       ??_E?$basic_unlockedbuf@V?$basic_stringbuf@DU?$char_traits@D@std@@V?$allocator@D@2@@std@@D@detail@boost@@UEAAPEAXI@Z 00000001800092a0 f i * CIL library *:* CIL module *
 0001:000082a0       ??_E?$basic_stringbuf@DU?$char_traits@D@std@@V?$allocator@D@2@@std@@UEAAPEAXI@Z 00000001800092a0 f i * CIL library *:* CIL module *
 0001:000082a0       ??_G?$basic_unlockedbuf@V?$basic_stringbuf@DU?$char_traits@D@std@@V?$allocator@D@2@@std@@D@detail@boost@@UEAAPEAXI@Z 00000001800092a0 f i GRBLcOption.obj
 0001:000082a0       ??_G?$basic_stringbuf@DU?$char_traits@D@std@@V?$allocator@D@2@@std@@UEAAPEAXI@Z 00000001800092a0 f i GRBLcOption.obj
 0001:000082f0       ?_Reallocate@?$vector@U?$format_item@DU?$char_traits@D@std@@V?$allocator@D@2@@detail@io@boost@@V?$allocator@U?$format_item@DU?$char_traits@D@std@@V?$allocator@D@2@@detail@io@boost@@@std@@@std@@IEAAX_K@Z 00000001800092f0 f i GRBLcOption.obj
 0001:000083c0       ?_Tidy@?$basic_stringbuf@DU?$char_traits@D@std@@V?$allocator@D@2@@std@@IEAAXXZ 00000001800093c0 f i GRBLcOption.obj
 0001:00008490       ?allocate@?$allocator@U?$format_item@DU?$char_traits@D@std@@V?$allocator@D@2@@detail@io@boost@@@std@@QEAAPEAU?$format_item@DU?$char_traits@D@std@@V?$allocator@D@2@@detail@io@boost@@_K@Z 0000000180009490 f i GRBLcOption.obj
 0001:00008520       ?getloc@?$basic_format@DU?$char_traits@D@std@@V?$allocator@D@2@@boost@@QEBA?AVlocale@std@@XZ 0000000180009520 f i GRBLcOption.obj
 0001:00008610       ?make_or_reuse_data@?$basic_format@DU?$char_traits@D@std@@V?$allocator@D@2@@boost@@AEAAX_K@Z 0000000180009610 f i GRBLcOption.obj
 0001:000088e0       ??$upper_bound_from_fstring@V?$basic_string@DU?$char_traits@D@std@@V?$allocator@D@2@@std@@V?$ctype@D@2@@detail@io@boost@@YAHAEBV?$basic_string@DU?$char_traits@D@std@@V?$allocator@D@2@@std@@DAEBV?$ctype@D@4@E@Z 00000001800098e0 f i GRBLcOption.obj
 0001:00008b00       ??$parse_printf_directive@DU?$char_traits@D@std@@V?$allocator@D@2@V?$_String_const_iterator@V?$_String_val@U?$_Simple_types@D@std@@@std@@@2@V?$ctype@D@2@@detail@io@boost@@YA_NAEAV?$_String_const_iterator@V?$_String_val@U?$_Simple_types@D@std@@@std@@@std@@AEBV34@PEAU?$format_item@DU?$char_traits@D@std@@V?$allocator@D@2@@012@AEBV?$ctype@D@4@_KE@Z 0000000180009b00 f i GRBLcOption.obj
 0001:00009670       ??$enable_both@Vtoo_few_args@io@boost@@@exception_detail@boost@@YA?AU?$wrapexcept@Vtoo_few_args@io@boost@@@1@AEBVtoo_few_args@io@1@@Z 000000018000a670 f i GRBLcOption.obj
 0001:00009710       ??$enable_error_info@Vbad_format_string@io@boost@@@boost@@YA?AU?$error_info_injector@Vbad_format_string@io@boost@@@exception_detail@0@AEBVbad_format_string@io@0@@Z 000000018000a710 f i GRBLcOption.obj
 0001:000097a0       ??$_Uninit_alloc_fill_n1@PEAI_KV?$allocator@I@std@@@std@@YAXPEAI_KPEBIAEAU?$_Wrap_alloc@V?$allocator@I@std@@@0@U?$integral_constant@_N$0A@@0@@Z 000000018000a7a0 f i GRBLcOption.obj
 0001:000097c0       ?setbuf@?$basic_pointerbuf@DV?$basic_stringbuf@DU?$char_traits@D@std@@V?$allocator@D@2@@std@@@detail@boost@@MEAAPEAV?$basic_stringbuf@DU?$char_traits@D@std@@V?$allocator@D@2@@std@@PEAD_J@Z 000000018000a7c0 f i GRBLcOption.obj
 0001:000097c0       ?setbuf@?$basic_pointerbuf@DV?$basic_streambuf@DU?$char_traits@D@std@@@std@@@detail@boost@@MEAAPEAV?$basic_streambuf@DU?$char_traits@D@std@@@std@@PEAD_J@Z 000000018000a7c0 f i GRBLcOption.obj
 0001:000097e0       ?seekpos@?$basic_pointerbuf@DV?$basic_streambuf@DU?$char_traits@D@std@@@std@@@detail@boost@@MEAA?AV?$fpos@U_Mbstatet@@@std@@V45@H@Z 000000018000a7e0 f i GRBLcOption.obj
 0001:000097e0       ?seekpos@?$basic_pointerbuf@DV?$basic_stringbuf@DU?$char_traits@D@std@@V?$allocator@D@2@@std@@@detail@boost@@MEAA?AV?$fpos@U_Mbstatet@@@std@@V45@H@Z 000000018000a7e0 f i GRBLcOption.obj
 0001:00009850       ?seekoff@?$basic_pointerbuf@DV?$basic_streambuf@DU?$char_traits@D@std@@@std@@@detail@boost@@MEAA?AV?$fpos@U_Mbstatet@@@std@@_JHH@Z 000000018000a850 f i GRBLcOption.obj
 0001:00009850       ?seekoff@?$basic_pointerbuf@DV?$basic_stringbuf@DU?$char_traits@D@std@@V?$allocator@D@2@@std@@@detail@boost@@MEAA?AV?$fpos@U_Mbstatet@@@std@@_JHH@Z 000000018000a850 f i GRBLcOption.obj
 0001:00009920       ??$shl_real@M@?$lexical_istream_limited_src@DU?$char_traits@D@std@@$00$0BF@@detail@boost@@AEAA_NM@Z 000000018000a920 f i GRBLcOption.obj
 0001:00009a00       ??0?$wrapexcept@Vtoo_few_args@io@boost@@@boost@@QEAA@AEBU?$error_info_injector@Vtoo_few_args@io@boost@@@exception_detail@1@@Z 000000018000aa00 f i GRBLcOption.obj
 0001:00009af0       ?resize@?$vector@_NV?$allocator@_N@std@@@std@@QEAAX_K_N@Z 000000018000aaf0 f i GRBLcOption.obj
 0001:00009bd0       ?append@?$basic_string@DU?$char_traits@D@std@@V?$allocator@D@2@@std@@QEAAAEAV12@V?$_String_const_iterator@V?$_String_val@U?$_Simple_types@D@std@@@std@@@2@0@Z 000000018000abd0 f i GRBLcOption.obj
 0001:00009c70       ?erase@?$vector@_NV?$allocator@_N@std@@@std@@QEAA?AV?$_Vb_iterator@U?$_Wrap_alloc@V?$allocator@I@std@@@std@@@2@V?$_Vb_const_iterator@U?$_Wrap_alloc@V?$allocator@I@std@@@std@@@2@0@Z 000000018000ac70 f i GRBLcOption.obj
 0001:00009ee0       ?_Insert_n@?$vector@U?$format_item@DU?$char_traits@D@std@@V?$allocator@D@2@@detail@io@boost@@V?$allocator@U?$format_item@DU?$char_traits@D@std@@V?$allocator@D@2@@detail@io@boost@@@std@@@std@@IEAA?AV?$_Vector_iterator@V?$_Vector_val@U?$_Simple_types@U?$format_item@DU?$char_traits@D@std@@V?$allocator@D@2@@detail@io@boost@@@std@@@std@@@2@V?$_Vector_const_iterator@V?$_Vector_val@U?$_Simple_types@U?$format_item@DU?$char_traits@D@std@@V?$allocator@D@2@@detail@io@boost@@@std@@@std@@@2@_KAEBU?$format_item@DU?$char_traits@D@std@@V?$allocator@D@2@@detail@io@boost@@@Z 000000018000aee0 f i GRBLcOption.obj
 0001:0000a2e0       ?_Trim@?$vector@_NV?$allocator@_N@std@@@std@@QEAAX_K@Z 000000018000b2e0 f i GRBLcOption.obj
 0001:0000a390       ??0?$format_item@DU?$char_traits@D@std@@V?$allocator@D@2@@detail@io@boost@@QEAA@AEBU0123@@Z 000000018000b390 f i GRBLcOption.obj
 0001:0000a4a0       ?clear@?$basic_format@DU?$char_traits@D@std@@V?$allocator@D@2@@boost@@QEAAAEAV12@XZ 000000018000b4a0 f i GRBLcOption.obj
 0001:0000a5c0       ??$enable_error_info@Vtoo_few_args@io@boost@@@boost@@YA?AU?$error_info_injector@Vtoo_few_args@io@boost@@@exception_detail@0@AEBVtoo_few_args@io@0@@Z 000000018000b5c0 f i GRBLcOption.obj
 0001:0000a650       ??$call_put_last@DU?$char_traits@D@std@@$$CB_K@detail@io@boost@@YAXAEAV?$basic_ostream@DU?$char_traits@D@std@@@std@@PEBX@Z 000000018000b650 f i GRBLcOption.obj
 0001:0000a660       ??$distribute@DU?$char_traits@D@std@@V?$allocator@D@2@AEBU?$put_holder@DU?$char_traits@D@std@@@detail@io@boost@@@detail@io@boost@@YAXAEAV?$basic_format@DU?$char_traits@D@std@@V?$allocator@D@2@@2@AEBU?$put_holder@DU?$char_traits@D@std@@@012@@Z 000000018000b660 f i GRBLcOption.obj
 0001:0000a790       ??$shr_using_base_class@M@?$lexical_ostream_limited_src@DU?$char_traits@D@std@@@detail@boost@@AEAA_NAEAM@Z 000000018000b790 f i GRBLcOption.obj
 0001:0000a910       ??$_Uninit_alloc_fill_n1@PEAU?$format_item@DU?$char_traits@D@std@@V?$allocator@D@2@@detail@io@boost@@_KV?$allocator@U?$format_item@DU?$char_traits@D@std@@V?$allocator@D@2@@detail@io@boost@@@std@@@std@@YAXPEAU?$format_item@DU?$char_traits@D@std@@V?$allocator@D@2@@detail@io@boost@@_KPEBU1234@AEAU?$_Wrap_alloc@V?$allocator@U?$format_item@DU?$char_traits@D@std@@V?$allocator@D@2@@detail@io@boost@@@std@@@0@U?$integral_constant@_N$0A@@0@@Z 000000018000b910 f i GRBLcOption.obj
 0001:0000a970       ??1?$basic_unlockedbuf@V?$basic_streambuf@DU?$char_traits@D@std@@@std@@D@detail@boost@@UEAA@XZ 000000018000b970 f i GRBLcOption.obj
 0001:0000a980       ??_G?$basic_unlockedbuf@V?$basic_streambuf@DU?$char_traits@D@std@@@std@@D@detail@boost@@UEAAPEAXI@Z 000000018000b980 f i GRBLcOption.obj
 0001:0000a980       ??_E?$basic_unlockedbuf@V?$basic_streambuf@DU?$char_traits@D@std@@@std@@D@detail@boost@@UEAAPEAXI@Z 000000018000b980 f i * CIL library *:* CIL module *
 0001:0000a9c0       ??1sentry@?$basic_ostream@DU?$char_traits@D@std@@@std@@QEAA@XZ 000000018000b9c0 f i GRBLcOption.obj
 0001:0000aa10       ??1_Sentry_base@?$basic_ostream@DU?$char_traits@D@std@@@std@@QEAA@XZ 000000018000ba10 f i GRBLcOption.obj
 0001:0000aa40       ??$put@DU?$char_traits@D@std@@V?$allocator@D@2@AEBU?$put_holder@DU?$char_traits@D@std@@@detail@io@boost@@@detail@io@boost@@YAXAEBU?$put_holder@DU?$char_traits@D@std@@@012@AEBU?$format_item@DU?$char_traits@D@std@@V?$allocator@D@2@@012@AEAV?$basic_string@DU?$char_traits@D@std@@V?$allocator@D@2@@std@@AEAV?$basic_altstringbuf@DU?$char_traits@D@std@@V?$allocator@D@2@@12@PEAVlocale@6@@Z 000000018000ba40 f i GRBLcOption.obj
 0001:0000b090       ??$parse_inf_nan_impl@DM@detail@boost@@YA_NPEBD0AEAM0000DD@Z 000000018000c090 f i GRBLcOption.obj
 0001:0000b210       ??$_Move_backward_unchecked1@PEAU?$format_item@DU?$char_traits@D@std@@V?$allocator@D@2@@detail@io@boost@@PEAU1234@@std@@YAPEAU?$format_item@DU?$char_traits@D@std@@V?$allocator@D@2@@detail@io@boost@@PEAU1234@00U_General_ptr_iterator_tag@0@@Z 000000018000c210 f i GRBLcOption.obj
 0001:0000b2e0       ??_D?$wrapexcept@Vtoo_many_args@io@boost@@@boost@@QEAAXXZ 000000018000c2e0 f i GRBLcOption.obj
 0001:0000b340       ??0?$wrapexcept@Vtoo_many_args@io@boost@@@boost@@QEAA@AEBU01@@Z 000000018000c340 f i GRBLcOption.obj
 0001:0000b410       ??0?$clone_impl@U?$error_info_injector@Vtoo_many_args@io@boost@@@exception_detail@boost@@@exception_detail@boost@@QEAA@AEBV012@@Z 000000018000c410 f i GRBLcOption.obj
 0001:0000b4a0       ??0?$error_info_injector@Vtoo_many_args@io@boost@@@exception_detail@boost@@QEAA@AEBU012@@Z 000000018000c4a0 f i GRBLcOption.obj
 0001:0000b570       ??0too_many_args@io@boost@@QEAA@AEBV012@@Z 000000018000c570 f i GRBLcOption.obj
 0001:0000b5d0       ??_D?$basic_oaltstringstream@DU?$char_traits@D@std@@V?$allocator@D@2@@io@boost@@QEAAXXZ 000000018000c5d0 f i GRBLcOption.obj
 0001:0000b650       ??_E?$wrapexcept@Vtoo_many_args@io@boost@@@boost@@UEAAPEAXI@Z 000000018000c650 f i * CIL library *:* CIL module *
 0001:0000b650       ??_G?$wrapexcept@Vtoo_many_args@io@boost@@@boost@@UEAAPEAXI@Z 000000018000c650 f i GRBLcOption.obj
 0001:0000b6d0       ??_E?$clone_impl@U?$error_info_injector@Vtoo_many_args@io@boost@@@exception_detail@boost@@@exception_detail@boost@@UEAAPEAXI@Z 000000018000c6d0 f i * CIL library *:* CIL module *
 0001:0000b6d0       ??_G?$clone_impl@U?$error_info_injector@Vtoo_many_args@io@boost@@@exception_detail@boost@@@exception_detail@boost@@UEAAPEAXI@Z 000000018000c6d0 f i GRBLcOption.obj
 0001:0000b710       ??_E?$error_info_injector@Vtoo_many_args@io@boost@@@exception_detail@boost@@UEAAPEAXI@Z 000000018000c710 f i * CIL library *:* CIL module *
 0001:0000b710       ??_G?$error_info_injector@Vtoo_many_args@io@boost@@@exception_detail@boost@@UEAAPEAXI@Z 000000018000c710 f i GRBLcOption.obj
 0001:0000b7a0       ??_D?$clone_impl@U?$error_info_injector@Vtoo_many_args@io@boost@@@exception_detail@boost@@@exception_detail@boost@@QEAAXXZ 000000018000c7a0 f i GRBLcOption.obj
 0001:0000b7c0       ??1?$base_from_member@V?$shared_ptr@V?$basic_altstringbuf@DU?$char_traits@D@std@@V?$allocator@D@2@@io@boost@@@boost@@$0A@@boost@@QEAA@XZ 000000018000c7c0 f i GRBLcOption.obj
 0001:0000b7c0       ??1?$weak_iterator@U?$regex_impl@V?$_String_const_iterator@V?$_String_val@U?$_Simple_types@D@std@@@std@@@std@@@detail@xpressive@boost@@@detail@xpressive@boost@@QEAA@XZ 000000018000c7c0 f i GRBLdlg.obj
 0001:0000b7c0       ??1?$shared_ptr@U?$regex_impl@V?$_String_const_iterator@V?$_String_val@U?$_Simple_types@D@std@@@std@@@std@@@detail@xpressive@boost@@@boost@@QEAA@XZ 000000018000c7c0 f i GRBLdlg.obj
 0001:0000b820       ?rethrow@?$clone_impl@U?$error_info_injector@Vtoo_many_args@io@boost@@@exception_detail@boost@@@exception_detail@boost@@EEBAXXZ 000000018000c820 f i GRBLcOption.obj
 0001:0000b8c0       ?clone@?$clone_impl@U?$error_info_injector@Vtoo_many_args@io@boost@@@exception_detail@boost@@@exception_detail@boost@@EEBAPEBVclone_base@23@XZ 000000018000c8c0 f i GRBLcOption.obj
 0001:0000b920       ??1?$clone_impl@U?$error_info_injector@Vtoo_many_args@io@boost@@@exception_detail@boost@@@exception_detail@boost@@UEAA@XZ 000000018000c920 f i GRBLcOption.obj
 0001:0000b9c0       ??1?$error_info_injector@Vtoo_many_args@io@boost@@@exception_detail@boost@@UEAA@XZ 000000018000c9c0 f i GRBLcOption.obj
 0001:0000ba20       ??_E?$basic_oaltstringstream@DU?$char_traits@D@std@@V?$allocator@D@2@@io@boost@@UEAAPEAXI@Z 000000018000ca20 f i * CIL library *:* CIL module *
 0001:0000ba20       ??_G?$basic_oaltstringstream@DU?$char_traits@D@std@@V?$allocator@D@2@@io@boost@@UEAAPEAXI@Z 000000018000ca20 f i GRBLcOption.obj
 0001:0000ba60       ??0?$clone_impl@U?$error_info_injector@Vtoo_many_args@io@boost@@@exception_detail@boost@@@exception_detail@boost@@AEAA@AEBV012@Uclone_tag@012@@Z 000000018000ca60 f i GRBLcOption.obj
 0001:0000bb20       ?assign@?$optional_base@Vlocale@std@@@optional_detail@boost@@IEAAXAEBV123@@Z 000000018000cb20 f i GRBLcOption.obj
 0001:0000bb20       ?assign@?$optional_base@Vlocale@std@@@optional_detail@boost@@IEAAX$$QEAV123@@Z 000000018000cb20 f i GRBLcOption.obj
 0001:0000bbe0       ?clear_buffer@?$basic_altstringbuf@DU?$char_traits@D@std@@V?$allocator@D@2@@io@boost@@QEAAXXZ 000000018000cbe0 f i GRBLcOption.obj
 0001:0000bc90       ?apply_on@?$stream_format_state@DU?$char_traits@D@std@@@detail@io@boost@@QEBAXAEAV?$basic_ios@DU?$char_traits@D@std@@@std@@PEAVlocale@6@@Z 000000018000cc90 f i GRBLcOption.obj
 0001:0000bd80       ??$?6U?$char_traits@D@std@@@std@@YAAEAV?$basic_ostream@DU?$char_traits@D@std@@@0@AEAV10@D@Z 000000018000cd80 f i GRBLcOption.obj
 0001:0000bf30       ??$enable_both@Vtoo_many_args@io@boost@@@exception_detail@boost@@YA?AU?$wrapexcept@Vtoo_many_args@io@boost@@@1@AEBVtoo_many_args@io@1@@Z 000000018000cf30 f i GRBLcOption.obj
 0001:0000bfd0       ??$mk_str@DU?$char_traits@D@std@@V?$allocator@D@2@@detail@io@boost@@YAXAEAV?$basic_string@DU?$char_traits@D@std@@V?$allocator@D@2@@std@@PEBD_K_JDHD_N@Z 000000018000cfd0 f i GRBLcOption.obj
 0001:0000c110       ??$_Uninitialized_move_al_unchecked1@PEAU?$format_item@DU?$char_traits@D@std@@V?$allocator@D@2@@detail@io@boost@@PEAU1234@V?$allocator@U?$format_item@DU?$char_traits@D@std@@V?$allocator@D@2@@detail@io@boost@@@std@@@std@@YAPEAU?$format_item@DU?$char_traits@D@std@@V?$allocator@D@2@@detail@io@boost@@PEAU1234@00AEAU?$_Wrap_alloc@V?$allocator@U?$format_item@DU?$char_traits@D@std@@V?$allocator@D@2@@detail@io@boost@@@std@@@0@U_General_ptr_iterator_tag@0@U_Any_tag@0@@Z 000000018000d110 f i GRBLcOption.obj
 0001:0000c170       ??$_Fill_unchecked1@PEAU?$format_item@DU?$char_traits@D@std@@V?$allocator@D@2@@detail@io@boost@@U1234@@std@@YAXPEAU?$format_item@DU?$char_traits@D@std@@V?$allocator@D@2@@detail@io@boost@@0AEBU1234@U?$integral_constant@_N$0A@@0@@Z 000000018000d170 f i GRBLcOption.obj
 0001:0000c260       ??0?$wrapexcept@Vtoo_many_args@io@boost@@@boost@@QEAA@AEBU?$error_info_injector@Vtoo_many_args@io@boost@@@exception_detail@1@@Z 000000018000d260 f i GRBLcOption.obj
 0001:0000c350       ??$enable_error_info@Vtoo_many_args@io@boost@@@boost@@YA?AU?$error_info_injector@Vtoo_many_args@io@boost@@@exception_detail@0@AEBVtoo_many_args@io@0@@Z 000000018000d350 f i GRBLcOption.obj
 0001:0000c3e0       ??$?0PEAV?$basic_altstringbuf@DU?$char_traits@D@std@@V?$allocator@D@2@@io@boost@@VNo_Op@?$basic_oaltstringstream@DU?$char_traits@D@std@@V?$allocator@D@2@@12@@shared_count@detail@boost@@QEAA@PEAV?$basic_altstringbuf@DU?$char_traits@D@std@@V?$allocator@D@2@@io@2@VNo_Op@?$basic_oaltstringstream@DU?$char_traits@D@std@@V?$allocator@D@2@@42@@Z 000000018000d3e0 f i GRBLcOption.obj
 0001:0000c450       ?target@?$impl@Vexecutor_type@io_context@asio@boost@@V?$allocator@X@std@@@executor@asio@boost@@UEBAPEBXXZ 000000018000d450 f i SerialPort.obj
 0001:0000c450       ?get_untyped_deleter@?$sp_counted_impl_pd@PEAV?$basic_altstringbuf@DU?$char_traits@D@std@@V?$allocator@D@2@@io@boost@@VNo_Op@?$basic_oaltstringstream@DU?$char_traits@D@std@@V?$allocator@D@2@@23@@detail@boost@@UEAAPEAXXZ 000000018000d450 f i GRBLcOption.obj
 0001:0000c450       ?target@?$impl@Vexecutor_type@io_context@asio@boost@@V?$allocator@X@std@@@executor@asio@boost@@UEAAPEAXXZ 000000018000d450 f i SerialPort.obj
 0001:0000c460       ?get_local_deleter@?$sp_counted_impl_pd@PEAV?$basic_altstringbuf@DU?$char_traits@D@std@@V?$allocator@D@2@@io@boost@@VNo_Op@?$basic_oaltstringstream@DU?$char_traits@D@std@@V?$allocator@D@2@@23@@detail@boost@@UEAAPEAXAEBVtype_info@@@Z 000000018000d460 f i GRBLcOption.obj
 0001:0000c480       ?get_deleter@?$sp_counted_impl_pd@PEAV?$basic_altstringbuf@DU?$char_traits@D@std@@V?$allocator@D@2@@io@boost@@VNo_Op@?$basic_oaltstringstream@DU?$char_traits@D@std@@V?$allocator@D@2@@23@@detail@boost@@UEAAPEAXAEBVtype_info@@@Z 000000018000d480 f i GRBLcOption.obj
 0001:0000c4b0       ??_G?$sp_counted_impl_pd@PEAV?$basic_altstringbuf@DU?$char_traits@D@std@@V?$allocator@D@2@@io@boost@@VNo_Op@?$basic_oaltstringstream@DU?$char_traits@D@std@@V?$allocator@D@2@@23@@detail@boost@@UEAAPEAXI@Z 000000018000d4b0 f i GRBLcOption.obj
 0001:0000c4b0       ??_E?$sp_counted_impl_pd@PEAV?$basic_altstringbuf@DU?$char_traits@D@std@@V?$allocator@D@2@@io@boost@@VNo_Op@?$basic_oaltstringstream@DU?$char_traits@D@std@@V?$allocator@D@2@@23@@detail@boost@@UEAAPEAXI@Z 000000018000d4b0 f i * CIL library *:* CIL module *
 0001:0000c4e0       ??0?$format_item@DU?$char_traits@D@std@@V?$allocator@D@2@@detail@io@boost@@QEAA@$$QEAU0123@@Z 000000018000d4e0 f i GRBLcOption.obj
 0001:0000c5d8       ??_E?$error_info_injector@Vtoo_few_args@io@boost@@@exception_detail@boost@@WCI@EAAPEAXI@Z 000000018000d5d8 f i GRBLcOption.obj
 0001:0000c5e4       ??_E?$wrapexcept@Vtoo_few_args@io@boost@@@boost@@WCI@EAAPEAXI@Z 000000018000d5e4 f i GRBLcOption.obj
 0001:0000c5f0       ??_E?$wrapexcept@Vbad_format_string@io@boost@@@boost@@$4PPPPPPPM@GA@EAAPEAXI@Z 000000018000d5f0 f i GRBLcOption.obj
 0001:0000c600       ??_E?$wrapexcept@Vtoo_many_args@io@boost@@@boost@@$4PPPPPPPM@GA@EAAPEAXI@Z 000000018000d600 f i GRBLcOption.obj
 0001:0000c610       ?rethrow@?$clone_impl@U?$error_info_injector@Vbad_format_string@io@boost@@@exception_detail@boost@@@exception_detail@boost@@$0PPPPPPPM@A@EBAXXZ 000000018000d610 f i GRBLcOption.obj
 0001:0000c61c       ??_E?$wrapexcept@Vbad_format_string@io@boost@@@boost@@WCI@EAAPEAXI@Z 000000018000d61c f i GRBLcOption.obj
 0001:0000c628       ?clone@?$clone_impl@U?$error_info_injector@Vtoo_few_args@io@boost@@@exception_detail@boost@@@exception_detail@boost@@$0PPPPPPPM@A@EBAPEBVclone_base@23@XZ 000000018000d628 f i GRBLcOption.obj
 0001:0000c634       ??_E?$error_info_injector@Vbad_format_string@io@boost@@@exception_detail@boost@@WCI@EAAPEAXI@Z 000000018000d634 f i GRBLcOption.obj
 0001:0000c640       ??_E?$wrapexcept@Vtoo_many_args@io@boost@@@boost@@WCI@EAAPEAXI@Z 000000018000d640 f i GRBLcOption.obj
 0001:0000c64c       ??_E?$clone_impl@U?$error_info_injector@Vtoo_few_args@io@boost@@@exception_detail@boost@@@exception_detail@boost@@$4PPPPPPPM@GA@EAAPEAXI@Z 000000018000d64c f i GRBLcOption.obj
 0001:0000c65c       ??_E?$error_info_injector@Vtoo_many_args@io@boost@@@exception_detail@boost@@WCI@EAAPEAXI@Z 000000018000d65c f i GRBLcOption.obj
 0001:0000c668       ?rethrow@?$clone_impl@U?$error_info_injector@Vtoo_few_args@io@boost@@@exception_detail@boost@@@exception_detail@boost@@$0PPPPPPPM@A@EBAXXZ 000000018000d668 f i GRBLcOption.obj
 0001:0000c674       ?rethrow@?$clone_impl@U?$error_info_injector@Vtoo_many_args@io@boost@@@exception_detail@boost@@@exception_detail@boost@@$0PPPPPPPM@A@EBAXXZ 000000018000d674 f i GRBLcOption.obj
 0001:0000c680       ??_E?$basic_oaltstringstream@DU?$char_traits@D@std@@V?$allocator@D@2@@io@boost@@$4PPPPPPPM@A@EAAPEAXI@Z 000000018000d680 f i GRBLcOption.obj
 0001:0000c68c       ??_E?$clone_impl@U?$error_info_injector@Vtoo_many_args@io@boost@@@exception_detail@boost@@@exception_detail@boost@@$4PPPPPPPM@GA@EAAPEAXI@Z 000000018000d68c f i GRBLcOption.obj
 0001:0000c69c       ??_E?$clone_impl@U?$error_info_injector@Vtoo_few_args@io@boost@@@exception_detail@boost@@@exception_detail@boost@@WCI@EAAPEAXI@Z 000000018000d69c f i GRBLcOption.obj
 0001:0000c6a8       ??_E?$clone_impl@U?$error_info_injector@Vbad_format_string@io@boost@@@exception_detail@boost@@@exception_detail@boost@@$4PPPPPPPM@GA@EAAPEAXI@Z 000000018000d6a8 f i GRBLcOption.obj
 0001:0000c6b8       ??_E?$clone_impl@U?$error_info_injector@Vtoo_many_args@io@boost@@@exception_detail@boost@@@exception_detail@boost@@WCI@EAAPEAXI@Z 000000018000d6b8 f i GRBLcOption.obj
 0001:0000c6c4       ??_E?$wrapexcept@Vtoo_few_args@io@boost@@@boost@@$4PPPPPPPM@GA@EAAPEAXI@Z 000000018000d6c4 f i GRBLcOption.obj
 0001:0000c6d4       ?clone@?$clone_impl@U?$error_info_injector@Vbad_format_string@io@boost@@@exception_detail@boost@@@exception_detail@boost@@$0PPPPPPPM@A@EBAPEBVclone_base@23@XZ 000000018000d6d4 f i GRBLcOption.obj
 0001:0000c6e0       ?clone@?$clone_impl@U?$error_info_injector@Vtoo_many_args@io@boost@@@exception_detail@boost@@@exception_detail@boost@@$0PPPPPPPM@A@EBAPEBVclone_base@23@XZ 000000018000d6e0 f i GRBLcOption.obj
 0001:0000c6ec       ??_E?$clone_impl@U?$error_info_injector@Vbad_format_string@io@boost@@@exception_detail@boost@@@exception_detail@boost@@WCI@EAAPEAXI@Z 000000018000d6ec f i GRBLcOption.obj
 0001:0000c700       __local_stdio_printf_options 000000018000d700 f i GRBLcOption.obj
 0001:0000c710       sprintf_s                  000000018000d710 f i GRBLcOption.obj
 0001:0000c770       ??1CRegKey@ATL@@QEAA@XZ    000000018000d770 f i GRBLcOption.obj
 0001:0000c7a0       ??_ECFloatEdit@@UEAAPEAXI@Z 000000018000d7a0 f i * CIL library *:* CIL module *
 0001:0000c7a0       ??_ECIntEdit@@UEAAPEAXI@Z  000000018000d7a0 f i * CIL library *:* CIL module *
 0001:0000c7a0       ??_GCFloatEdit@@UEAAPEAXI@Z 000000018000d7a0 f i GRBLcSetup.obj
 0001:0000c7a0       ??_GCIntEdit@@UEAAPEAXI@Z  000000018000d7a0 f i GRBLcSetup.obj
 0001:0000c7f0       ??1CIntEdit@@UEAA@XZ       000000018000d7f0 f i GRBLcSetup.obj
 0001:0000c7f0       ??1CFloatEdit@@UEAA@XZ     000000018000d7f0 f i GRBLcSetup.obj
 0001:0000c800       ?_GetBaseClass@CGRBLcSetup@@KAPEAUCRuntimeClass@@XZ 000000018000d800 f   GRBLcSetup.obj
 0001:0000c800       ?_GetBaseClass@CGRBLdlg@@KAPEAUCRuntimeClass@@XZ 000000018000d800 f   GRBLdlg.obj
 0001:0000c800       ?_GetBaseClass@CProbeDlg@@KAPEAUCRuntimeClass@@XZ 000000018000d800 f   ProbeParent.obj
 0001:0000c810       ?GetRuntimeClass@CGRBLcSetup@@UEBAPEAUCRuntimeClass@@XZ 000000018000d810 f   GRBLcSetup.obj
 0001:0000c820       ?GetThisMessageMap@CProbeDlg@@KAPEBUAFX_MSGMAP@@XZ 000000018000d820 f   ProbeParent.obj
 0001:0000c820       ?GetMessageMap@CGRBLcSetup@@MEBAPEBUAFX_MSGMAP@@XZ 000000018000d820 f   GRBLcSetup.obj
 0001:0000c830       ??0CGRBLcSetup@@QEAA@PEAVCGRBLdlg@@@Z 000000018000d830 f   GRBLcSetup.obj
 0001:0000c930       ??_ECGRBLcSetup@@UEAAPEAXI@Z 000000018000d930 f i * CIL library *:* CIL module *
 0001:0000c930       ??_GCGRBLcSetup@@UEAAPEAXI@Z 000000018000d930 f i GRBLcSetup.obj
 0001:0000c980       ??1CProbeDlg@@UEAA@XZ      000000018000d980 f i ProbeParent.obj
 0001:0000c980       ??1CDialogEx@@UEAA@XZ      000000018000d980 f i GRBLcSetup.obj
 0001:0000c9c0       ??1CGRBLcSetup@@UEAA@XZ    000000018000d9c0 f   GRBLcSetup.obj
 0001:0000ca80       ?DoDataExchange@CGRBLcSetup@@MEAAXPEAVCDataExchange@@@Z 000000018000da80 f   GRBLcSetup.obj
 0001:0000cb60       ?OnInitDialog@CGRBLcSetup@@MEAAHXZ 000000018000db60 f   GRBLcSetup.obj
 0001:0000cdd0       ?OnOK@CGRBLcSetup@@MEAAXXZ 000000018000ddd0 f   GRBLcSetup.obj
 0001:0000cf70       ?Create@CDialog@@UEAAHIPEAVCWnd@@@Z 000000018000df70 f i GRBLcSetup.obj
 0001:0000cf80       ??_GCBrush@@UEAAPEAXI@Z    000000018000df80 f i GRBLcSetup.obj
 0001:0000cf80       ??_ECBrush@@UEAAPEAXI@Z    000000018000df80 f i * CIL library *:* CIL module *
 0001:0000cfe0       ??_ECGdiObject@@UEAAPEAXI@Z 000000018000dfe0 f i * CIL library *:* CIL module *
 0001:0000cfe0       ??_GCGdiObject@@UEAAPEAXI@Z 000000018000dfe0 f i GRBLcSetup.obj
 0001:0000d030       ??1CGdiObject@@UEAA@XZ     000000018000e030 f i GRBLcSetup.obj
 0001:0000d080       ??_ECComboBox@@UEAAPEAXI@Z 000000018000e080 f i * CIL library *:* CIL module *
 0001:0000d080       ??_ECMyComboBox@@UEAAPEAXI@Z 000000018000e080 f i * CIL library *:* CIL module *
 0001:0000d080       ??_GCComboBox@@UEAAPEAXI@Z 000000018000e080 f i GRBLcSetup.obj
 0001:0000d080       ??_GCMyComboBox@@UEAAPEAXI@Z 000000018000e080 f i GRBLdlg.obj
 0001:0000d0d0       ?BeginModalState@CWnd@@UEAAXXZ 000000018000e0d0 f i GRBLcSetup.obj
 0001:0000d0e0       ?EndModalState@CWnd@@UEAAXXZ 000000018000e0e0 f i GRBLcSetup.obj
 0001:0000d0f0       ??0runtime_error@std@@QEAA@AEBV01@@Z 000000018000e0f0 f i GRBLdlg.obj
 0001:0000d130       ?dec@std@@YAAEAVios_base@1@AEAV21@@Z 000000018000e130 f i GRBLdlg.obj
 0001:0000d150       ?hex@std@@YAAEAVios_base@1@AEAV21@@Z 000000018000e150 f i GRBLdlg.obj
 0001:0000d170       ?oct@std@@YAAEAVios_base@1@AEAV21@@Z 000000018000e170 f i GRBLdlg.obj
 0001:0000d190       ??1SerialObserver@serial@@UEAA@XZ 000000018000e190 f i GRBLdlg.obj
 0001:0000d1a0       ??_GSerialObserver@serial@@UEAAPEAXI@Z 000000018000e1a0 f i GRBLdlg.obj
 0001:0000d1a0       ??_ESerialObserver@serial@@UEAAPEAXI@Z 000000018000e1a0 f i * CIL library *:* CIL module *
 0001:0000d1d0       ?CmpString@CGRBLdlg@@AEAA_NAEBV?$basic_string@DU?$char_traits@D@std@@V?$allocator@D@2@@std@@0@Z 000000018000e1d0 f i GRBLdlg.obj
 0001:0000d2e0       ??1regex_error@xpressive@boost@@UEAA@XZ 000000018000e2e0 f i GRBLdlg.obj
 0001:0000d340       ??_Eregex_error@xpressive@boost@@UEAAPEAXI@Z 000000018000e340 f i * CIL library *:* CIL module *
 0001:0000d340       ??_Gregex_error@xpressive@boost@@UEAAPEAXI@Z 000000018000e340 f i GRBLdlg.obj
 0001:0000d3c0       ?ensure_@detail@xpressive@boost@@YA_N_NW4error_type@regex_constants@23@PEBD22K@Z 000000018000e3c0 f i GRBLdlg.obj
 0001:0000d4b0       ??1actionable@detail@xpressive@boost@@UEAA@XZ 000000018000e4b0 f i GRBLdlg.obj
 0001:0000d4c0       ??_Eactionable@detail@xpressive@boost@@UEAAPEAXI@Z 000000018000e4c0 f i * CIL library *:* CIL module *
 0001:0000d4c0       ??_Gactionable@detail@xpressive@boost@@UEAAPEAXI@Z 000000018000e4c0 f i GRBLdlg.obj
 0001:0000d4f0       ?throw_on_stack_error@detail@xpressive@boost@@YAX_N@Z 000000018000e4f0 f i GRBLdlg.obj
 0001:0000d5c0       ??Rchar_overflow_handler@detail@xpressive@boost@@QEBAXW4range_check_result@numeric@3@@Z 000000018000e5c0 f i GRBLdlg.obj
 0001:0000d6b0       ?has_empty_target@function@detail@boost@@YA_NZZ 000000018000e6b0 f i GRBLdlg.obj
 0001:0000d6d0       ??1is_classifiedF@detail@algorithm@boost@@QEAA@XZ 000000018000e6d0 f i GRBLdlg.obj
 0001:0000d710       ?is_space@algorithm@boost@@YA?AUis_classifiedF@detail@12@AEBVlocale@std@@@Z 000000018000e710 f i GRBLdlg.obj
 0001:0000d750       ?GetRuntimeClass@CGRBLdlg@@UEBAPEAUCRuntimeClass@@XZ 000000018000e750 f   GRBLdlg.obj
 0001:0000d760       ?GetMessageMap@CGRBLdlg@@MEBAPEBUAFX_MSGMAP@@XZ 000000018000e760 f   GRBLdlg.obj
 0001:0000d770       ??0CGRBLdlg@@QEAA@PEAX@Z   000000018000e770 f   GRBLdlg.obj
 0001:0000dba0       ??_ECGRBLdlg@@UEAAPEAXI@Z  000000018000eba0 f i * CIL library *:* CIL module *
 0001:0000dba0       ??_GCGRBLdlg@@UEAAPEAXI@Z  000000018000eba0 f i GRBLdlg.obj
 0001:0000dbf0       ??1CMyComboBox@@UEAA@XZ    000000018000ebf0 f i GRBLdlg.obj
 0001:0000dc00       ??1CMyListBox@@UEAA@XZ     000000018000ec00 f i GRBLdlg.obj
 0001:0000dc10       ??_GCMyListBox@@UEAAPEAXI@Z 000000018000ec10 f i GRBLdlg.obj
 0001:0000dc10       ??_ECMyListBox@@UEAAPEAXI@Z 000000018000ec10 f i * CIL library *:* CIL module *
 0001:0000dc60       ??1CGRBLdlg@@UEAA@XZ       000000018000ec60 f   GRBLdlg.obj
 0001:0000dec0       ?DoDataExchange@CGRBLdlg@@MEAAXPEAVCDataExchange@@@Z 000000018000eec0 f   GRBLdlg.obj
 0001:0000e0c0       ?OnInitDialog@CGRBLdlg@@MEAAHXZ 000000018000f0c0 f   GRBLdlg.obj
 0001:0000e540       ?DestroyWindow@CGRBLdlg@@MEAAHXZ 000000018000f540 f   GRBLdlg.obj
 0001:0000e5b0       ?OnCancel@CGRBLdlg@@MEAAXXZ 000000018000f5b0 f   GRBLdlg.obj
 0001:0000e600       ?PreTranslateMessage@CGRBLdlg@@MEAAHPEAUtagMSG@@@Z 000000018000f600 f   GRBLdlg.obj
 0001:0000e810       ??1?$transform_iterator@U?$copy_iterator_rangeF@V?$basic_string@DU?$char_traits@D@std@@V?$allocator@D@2@@std@@V?$_String_iterator@V?$_String_val@U?$_Simple_types@D@std@@@std@@@2@@detail@algorithm@boost@@V?$split_iterator@V?$_String_iterator@V?$_String_val@U?$_Simple_types@D@std@@@std@@@std@@@34@Uuse_default@4@U64@@iterators@boost@@QEAA@XZ 000000018000f810 f i GRBLdlg.obj
 0001:0000e810       ??1?$split_iterator@PEBD@algorithm@boost@@QEAA@XZ 000000018000f810 f i GRBLdlg.obj
 0001:0000e810       ??1?$find_iterator_base@V?$_String_iterator@V?$_String_val@U?$_Simple_types@D@std@@@std@@@std@@@detail@algorithm@boost@@IEAA@XZ 000000018000f810 f i GRBLdlg.obj
 0001:0000e810       ??1?$split_iterator@V?$_String_iterator@V?$_String_val@U?$_Simple_types@D@std@@@std@@@std@@@algorithm@boost@@QEAA@XZ 000000018000f810 f i GRBLdlg.obj
 0001:0000e810       ??1?$find_iterator_base@PEBD@detail@algorithm@boost@@IEAA@XZ 000000018000f810 f i GRBLdlg.obj
 0001:0000e810       ??1?$transform_iterator@U?$copy_iterator_rangeF@V?$basic_string@DU?$char_traits@D@std@@V?$allocator@D@2@@std@@PEBD@detail@algorithm@boost@@V?$split_iterator@PEBD@34@Uuse_default@4@U64@@iterators@boost@@QEAA@XZ 000000018000f810 f i GRBLdlg.obj
 0001:0000e810       ??1?$function@$$A6AXPEAVCGRBLdlg@@@Z@boost@@QEAA@XZ 000000018000f810 f i GRBLdlg.obj
 0001:0000e860       ?OnConnect@CGRBLdlg@@QEAAXXZ 000000018000f860 f   GRBLdlg.obj
 0001:0000eae0       ?OnMsgClear@CGRBLdlg@@QEAAXXZ 000000018000fae0 f   GRBLdlg.obj
 0001:0000eb00       ?OnCustomCmd@CGRBLdlg@@QEAAXXZ 000000018000fb00 f   GRBLdlg.obj
 0001:0000ec50       ?OnSoftReset@CGRBLdlg@@QEAAXXZ 000000018000fc50 f   GRBLdlg.obj
 0001:0000ece0       ?OnSetting@CGRBLdlg@@QEAAXXZ 000000018000fce0 f   GRBLdlg.obj
 0001:0000ed60       ?OnZeroAxis@CGRBLdlg@@QEAAXXZ 000000018000fd60 f   GRBLdlg.obj
 0001:0000eeb0       ?OnAlarmUnlock@CGRBLdlg@@QEAAXXZ 000000018000feb0 f   GRBLdlg.obj
 0001:0000ef80       ?OnProbe@CGRBLdlg@@QEAAXXZ 000000018000ff80 f   GRBLdlg.obj
 0001:0000f120       ?OnHomingCycle@CGRBLdlg@@QEAAXXZ 0000000180010120 f   GRBLdlg.obj
 0001:0000f1f0       ?OnCycleStart@CGRBLdlg@@QEAAXXZ 00000001800101f0 f   GRBLdlg.obj
 0001:0000f360       ?OnFeedHold@CGRBLdlg@@QEAAXXZ 0000000180010360 f   GRBLdlg.obj
 0001:0000f460       ?OnCheckUpdate@CGRBLdlg@@QEAAXXZ 0000000180010460 f   GRBLdlg.obj
 0001:0000f470       ?OnJogXYZ@CGRBLdlg@@QEAAXXZ 0000000180010470 f   GRBLdlg.obj
 0001:0000f4c0       ?OnKillfocusMsgLst@CGRBLdlg@@QEAAXXZ 00000001800104c0 f   GRBLdlg.obj
 0001:0000f4e0       ?OnToolTipNeedText@CGRBLdlg@@QEAAXPEAUtagNMHDR@@PEA_J@Z 00000001800104e0 f   GRBLdlg.obj
 0001:0000f580       ?OnGetDispInfo_SendList@CGRBLdlg@@QEAAXPEAUtagNMHDR@@PEA_J@Z 0000000180010580 f   GRBLdlg.obj
 0001:0000f610       ?OnCtlColor@CGRBLdlg@@QEAAPEAUHBRUSH__@@PEAVCDC@@PEAVCWnd@@I@Z 0000000180010610 f   GRBLdlg.obj
 0001:0000f6b0       ?OnCycleEnd@CGRBLdlg@@QEAA_J_K_J@Z 00000001800106b0 f   GRBLdlg.obj
 0001:0000f6f0       ?Disconnect@CGRBLdlg@@AEAA_N_N@Z 00000001800106f0 f   GRBLdlg.obj
 0001:0000f8b0       ?EnableControl@CGRBLdlg@@AEAAX_N@Z 00000001800108b0 f   GRBLdlg.obj
 0001:0000f980       ?ResponseGRBL@CGRBLdlg@@AEAAXAEBV?$basic_string@DU?$char_traits@D@std@@V?$allocator@D@2@@std@@@Z 0000000180010980 f   GRBLdlg.obj
 0001:0000fd00       ?AddMessage@CGRBLdlg@@QEAAXPEBDW4MSGadd@@@Z 0000000180010d00 f   GRBLdlg.obj
 0001:0000fdd0       ?AddMessage@CGRBLdlg@@QEAAXAEBV?$basic_string@DU?$char_traits@D@std@@V?$allocator@D@2@@std@@W4MSGadd@@@Z 0000000180010dd0 f   GRBLdlg.obj
 0001:0000ff10       ?GetQueryStatus@CGRBLdlg@@QEAAXAEBV?$basic_string@DU?$char_traits@D@std@@V?$allocator@D@2@@std@@@Z 0000000180010f10 f   GRBLdlg.obj
 0001:00010f10       ??1?$char_separator@DU?$char_traits@D@std@@@boost@@QEAA@XZ 0000000180011f10 f i GRBLdlg.obj
 0001:00010f30       ??1?$tokenizer@V?$char_separator@DU?$char_traits@D@std@@@boost@@V?$_String_const_iterator@V?$_String_val@U?$_Simple_types@D@std@@@std@@@std@@V?$basic_string@DU?$char_traits@D@std@@V?$allocator@D@2@@4@@boost@@QEAA@XZ 0000000180011f30 f i GRBLdlg.obj
 0001:00010f50       ??1?$token_iterator@V?$char_separator@DU?$char_traits@D@std@@@boost@@V?$_String_const_iterator@V?$_String_val@U?$_Simple_types@D@std@@@std@@@std@@V?$basic_string@DU?$char_traits@D@std@@V?$allocator@D@2@@4@@boost@@QEAA@XZ 0000000180011f50 f i GRBLdlg.obj
 0001:00010f80       ?SendJogXYZ@CGRBLdlg@@QEAAXH@Z 0000000180011f80 f   GRBLdlg.obj
 0001:000114a0       ?SplitSendCommand@CGRBLdlg@@QEAA_NAEBV?$CStringT@DV?$StrTraitMFC_DLL@DV?$ChTraitsCRT@D@ATL@@@@@ATL@@@Z 00000001800124a0 f   GRBLdlg.obj
 0001:00011800       ?SendCommand@CGRBLdlg@@QEAA_NXZ 0000000180012800 f   GRBLdlg.obj
 0001:000118e0       ?SendCommand@CGRBLdlg@@QEAA_NAEBV?$basic_string@DU?$char_traits@D@std@@V?$allocator@D@2@@std@@@Z 00000001800128e0 f   GRBLdlg.obj
 0001:000119e0       ?SendCommand@CGRBLdlg@@QEAA_ND@Z 00000001800129e0 f   GRBLdlg.obj
 0001:00011a80       ?notify@CGRBLdlg@@MEAAXAEBV?$basic_string@DU?$char_traits@D@std@@V?$allocator@D@2@@std@@@Z 0000000180012a80 f   GRBLdlg.obj
 0001:00011ff0       ?QueryThreadFunc@CGRBLdlg@@KAIPEAX@Z 0000000180012ff0 f   GRBLdlg.obj
 0001:000120c0       ?CycleStartThreadFunc@CGRBLdlg@@KAIPEAX@Z 00000001800130c0 f   GRBLdlg.obj
 0001:00012270       ?MainSendBlock@CGRBLdlg@@IEAAHHHAEAH@Z 0000000180013270 f   GRBLdlg.obj
 0001:00013020       ??1?$intrusive_ptr@U?$regex_impl@V?$_String_const_iterator@V?$_String_val@U?$_Simple_types@D@std@@@std@@@std@@@detail@xpressive@boost@@@boost@@QEAA@XZ 0000000180014020 f i GRBLdlg.obj
 0001:00013020       ??1?$extends@U?$expr@Uterminal@tag@tagns_@proto@boost@@U?$term@U?$tracking_ptr@U?$regex_impl@V?$_String_const_iterator@V?$_String_val@U?$_Simple_types@D@std@@@std@@@std@@@detail@xpressive@boost@@@detail@xpressive@boost@@@argsns_@45@$0A@@exprns_@proto@boost@@U?$basic_regex@V?$_String_const_iterator@V?$_String_val@U?$_Simple_types@D@std@@@std@@@std@@@xpressive@4@Uregex_domain@detail@64@$0A@@exprns_@proto@boost@@QEAA@XZ 0000000180014020 f i GRBLdlg.obj
 0001:00013020       ??1?$basic_regex@V?$_String_const_iterator@V?$_String_val@U?$_Simple_types@D@std@@@std@@@std@@@xpressive@boost@@QEAA@XZ 0000000180014020 f i GRBLdlg.obj
 0001:00013030       ?SearchSubprogram@CGRBLdlg@@IEAAHHHH@Z 0000000180014030 f   GRBLdlg.obj
 0001:00013500       ??1?$is_any_ofF@D@detail@algorithm@boost@@QEAA@XZ 0000000180014500 f i GRBLdlg.obj
 0001:00013500       ??1?$token_finderF@U?$is_any_ofF@D@detail@algorithm@boost@@@detail@algorithm@boost@@QEAA@XZ 0000000180014500 f i GRBLdlg.obj
 0001:00013520       ?_Tidy@?$vector@V?$basic_string@DU?$char_traits@D@std@@V?$allocator@D@2@@std@@V?$allocator@V?$basic_string@DU?$char_traits@D@std@@V?$allocator@D@2@@std@@@2@@std@@IEAAXXZ 0000000180014520 f i GRBLdlg.obj
 0001:00013520       ??1?$vector@V?$basic_string@DU?$char_traits@D@std@@V?$allocator@D@2@@std@@V?$allocator@V?$basic_string@DU?$char_traits@D@std@@V?$allocator@D@2@@std@@@2@@std@@QEAA@XZ 0000000180014520 f i GRBLdlg.obj
 0001:00013590       ??R?$function1@XPEAVCGRBLdlg@@@boost@@QEBAXPEAVCGRBLdlg@@@Z 0000000180014590 f i GRBLdlg.obj
 0001:00013650       ?end@?$tokenizer@V?$char_separator@DU?$char_traits@D@std@@@boost@@V?$_String_const_iterator@V?$_String_val@U?$_Simple_types@D@std@@@std@@@std@@V?$basic_string@DU?$char_traits@D@std@@V?$allocator@D@2@@4@@boost@@QEBA?AV?$token_iterator@V?$char_separator@DU?$char_traits@D@std@@@boost@@V?$_String_const_iterator@V?$_String_val@U?$_Simple_types@D@std@@@std@@@std@@V?$basic_string@DU?$char_traits@D@std@@V?$allocator@D@2@@4@@2@XZ 0000000180014650 f i GRBLdlg.obj
 0001:000136a0       ?begin@?$tokenizer@V?$char_separator@DU?$char_traits@D@std@@@boost@@V?$_String_const_iterator@V?$_String_val@U?$_Simple_types@D@std@@@std@@@std@@V?$basic_string@DU?$char_traits@D@std@@V?$allocator@D@2@@4@@boost@@QEBA?AV?$token_iterator@V?$char_separator@DU?$char_traits@D@std@@@boost@@V?$_String_const_iterator@V?$_String_val@U?$_Simple_types@D@std@@@std@@@std@@V?$basic_string@DU?$char_traits@D@std@@V?$allocator@D@2@@4@@2@XZ 00000001800146a0 f i GRBLdlg.obj
 0001:000136f0       ??1?$match_results@V?$_String_const_iterator@V?$_String_val@U?$_Simple_types@D@std@@@std@@@std@@@xpressive@boost@@QEAA@XZ 00000001800146f0 f i GRBLdlg.obj
 0001:00013810       ?str@?$sub_match@V?$_String_const_iterator@V?$_String_val@U?$_Simple_types@D@std@@@std@@@std@@@xpressive@boost@@QEBA?AV?$basic_string@DU?$char_traits@D@std@@V?$allocator@D@2@@std@@XZ 0000000180014810 f i GRBLdlg.obj
 0001:00013990       ?substr@?$basic_string@DU?$char_traits@D@std@@V?$allocator@D@2@@std@@QEBA?AV12@_K0@Z 0000000180014990 f i GRBLdlg.obj
 0001:000139d0       ??0?$char_separator@DU?$char_traits@D@std@@@boost@@QEAA@AEBV01@@Z 00000001800149d0 f i GRBLdlg.obj
 0001:00013a80       ??1?$optional@V?$_String_const_iterator@V?$_String_val@U?$_Simple_types@D@std@@@std@@@std@@@boost@@QEAA@XZ 0000000180014a80 f i GRBLdlg.obj
 0001:00013a80       ??1?$optional@U?$sub_match@V?$_String_const_iterator@V?$_String_val@U?$_Simple_types@D@std@@@std@@@std@@@xpressive@boost@@@boost@@QEAA@XZ 0000000180014a80 f i GRBLdlg.obj
 0001:00013a90       ??1?$nested_results@V?$_String_const_iterator@V?$_String_val@U?$_Simple_types@D@std@@@std@@@std@@@detail@xpressive@boost@@QEAA@XZ 0000000180014a90 f i GRBLdlg.obj
 0001:00013af0       ??1?$map@PEBXUtss_data_node@detail@boost@@U?$less@PEBX@std@@V?$allocator@U?$pair@QEBXUtss_data_node@detail@boost@@@std@@@5@@std@@QEAA@XZ 0000000180014af0 f i SerialPort.obj
 0001:00013af0       ??1?$map@PEBVtype_info@@PEAXUtype_info_less@detail@xpressive@boost@@V?$allocator@U?$pair@QEBVtype_info@@PEAX@std@@@std@@@std@@QEAA@XZ 0000000180014af0 f i GRBLdlg.obj
 0001:00013b20       ??1?$intrusive_ptr@U?$results_extras@V?$_String_const_iterator@V?$_String_val@U?$_Simple_types@D@std@@@std@@@std@@@detail@xpressive@boost@@@boost@@QEAA@XZ 0000000180014b20 f i GRBLdlg.obj
 0001:00013b40       ??1?$vector@U?$named_mark@D@detail@xpressive@boost@@V?$allocator@U?$named_mark@D@detail@xpressive@boost@@@std@@@std@@QEAA@XZ 0000000180014b40 f i GRBLdlg.obj
 0001:00013b50       ??1?$intrusive_ptr@U?$finder@V?$_String_const_iterator@V?$_String_val@U?$_Simple_types@D@std@@@std@@@std@@@detail@xpressive@boost@@@boost@@QEAA@XZ 0000000180014b50 f i GRBLdlg.obj
 0001:00013b50       ??1?$optional_matcher@U?$shared_matchable@V?$_String_const_iterator@V?$_String_val@U?$_Simple_types@D@std@@@std@@@std@@@detail@xpressive@boost@@U?$bool_@$00@mpl@4@@detail@xpressive@boost@@QEAA@XZ 0000000180014b50 f i GRBLdlg.obj
 0001:00013b50       ??1?$lookahead_matcher@U?$shared_matchable@V?$_String_const_iterator@V?$_String_val@U?$_Simple_types@D@std@@@std@@@std@@@detail@xpressive@boost@@@detail@xpressive@boost@@QEAA@XZ 0000000180014b50 f i GRBLdlg.obj
 0001:00013b50       ??1?$simple_repeat_matcher@U?$shared_matchable@V?$_String_const_iterator@V?$_String_val@U?$_Simple_types@D@std@@@std@@@std@@@detail@xpressive@boost@@U?$bool_@$00@mpl@4@@detail@xpressive@boost@@QEAA@XZ 0000000180014b50 f i GRBLdlg.obj
 0001:00013b50       ??1?$optional_matcher@U?$shared_matchable@V?$_String_const_iterator@V?$_String_val@U?$_Simple_types@D@std@@@std@@@std@@@detail@xpressive@boost@@U?$bool_@$0A@@mpl@4@@detail@xpressive@boost@@QEAA@XZ 0000000180014b50 f i GRBLdlg.obj
 0001:00013b50       ??1?$shared_matchable@V?$_String_const_iterator@V?$_String_val@U?$_Simple_types@D@std@@@std@@@std@@@detail@xpressive@boost@@QEAA@XZ 0000000180014b50 f i GRBLdlg.obj
 0001:00013b50       ??1?$optional_mark_matcher@U?$shared_matchable@V?$_String_const_iterator@V?$_String_val@U?$_Simple_types@D@std@@@std@@@std@@@detail@xpressive@boost@@U?$bool_@$00@mpl@4@@detail@xpressive@boost@@QEAA@XZ 0000000180014b50 f i GRBLdlg.obj
 0001:00013b50       ??1?$lookbehind_matcher@U?$shared_matchable@V?$_String_const_iterator@V?$_String_val@U?$_Simple_types@D@std@@@std@@@std@@@detail@xpressive@boost@@@detail@xpressive@boost@@QEAA@XZ 0000000180014b50 f i GRBLdlg.obj
 0001:00013b50       ??1?$keeper_matcher@U?$shared_matchable@V?$_String_const_iterator@V?$_String_val@U?$_Simple_types@D@std@@@std@@@std@@@detail@xpressive@boost@@@detail@xpressive@boost@@QEAA@XZ 0000000180014b50 f i GRBLdlg.obj
 0001:00013b50       ??1?$optional_mark_matcher@U?$shared_matchable@V?$_String_const_iterator@V?$_String_val@U?$_Simple_types@D@std@@@std@@@std@@@detail@xpressive@boost@@U?$bool_@$0A@@mpl@4@@detail@xpressive@boost@@QEAA@XZ 0000000180014b50 f i GRBLdlg.obj
 0001:00013b50       ??1?$simple_repeat_matcher@U?$shared_matchable@V?$_String_const_iterator@V?$_String_val@U?$_Simple_types@D@std@@@std@@@std@@@detail@xpressive@boost@@U?$bool_@$0A@@mpl@4@@detail@xpressive@boost@@QEAA@XZ 0000000180014b50 f i GRBLdlg.obj
 0001:00013b50       ??1?$intrusive_ptr@$$CBU?$matchable_ex@V?$_String_const_iterator@V?$_String_val@U?$_Simple_types@D@std@@@std@@@std@@@detail@xpressive@boost@@@boost@@QEAA@XZ 0000000180014b50 f i GRBLdlg.obj
 0001:00013b50       ??1?$intrusive_ptr@$$CBU?$traits@D@detail@xpressive@boost@@@boost@@QEAA@XZ 0000000180014b50 f i GRBLdlg.obj
 0001:00013b90       ??0?$token_iterator@V?$char_separator@DU?$char_traits@D@std@@@boost@@V?$_String_const_iterator@V?$_String_val@U?$_Simple_types@D@std@@@std@@@std@@V?$basic_string@DU?$char_traits@D@std@@V?$allocator@D@2@@4@@boost@@QEAA@V?$char_separator@DU?$char_traits@D@std@@@1@V?$_String_const_iterator@V?$_String_val@U?$_Simple_types@D@std@@@std@@@std@@1@Z 0000000180014b90 f i GRBLdlg.obj
 0001:00013c60       ?assign@?$basic_string@DU?$char_traits@D@std@@V?$allocator@D@2@@std@@QEAAAEAV12@_KD@Z 0000000180014c60 f i GRBLdlg.obj
 0001:00013d50       ?_Tidy@?$vector@U?$named_mark@D@detail@xpressive@boost@@V?$allocator@U?$named_mark@D@detail@xpressive@boost@@@std@@@std@@IEAAXXZ 0000000180014d50 f i GRBLdlg.obj
 0001:00013dd0       ?deallocate@?$_Wrap_alloc@V?$allocator@V?$basic_string@DU?$char_traits@D@std@@V?$allocator@D@2@@std@@@std@@@std@@QEAAXPEAV?$basic_string@DU?$char_traits@D@std@@V?$allocator@D@2@@2@_K@Z 0000000180014dd0 f i GRBLdlg.obj
 0001:00013e50       ??1?$_Tree_comp_alloc@V?$_Tset_traits@V?$shared_ptr@U?$regex_impl@V?$_String_const_iterator@V?$_String_val@U?$_Simple_types@D@std@@@std@@@std@@@detail@xpressive@boost@@@boost@@U?$less@V?$shared_ptr@U?$regex_impl@V?$_String_const_iterator@V?$_String_val@U?$_Simple_types@D@std@@@std@@@std@@@detail@xpressive@boost@@@boost@@@std@@V?$allocator@V?$shared_ptr@U?$regex_impl@V?$_String_const_iterator@V?$_String_val@U?$_Simple_types@D@std@@@std@@@std@@@detail@xpressive@boost@@@boost@@@4@$0A@@std@@@std@@QEAA@XZ 0000000180014e50 f i GRBLdlg.obj
 0001:00013e50       ??1?$_Tree_comp_alloc@V?$_Tmap_traits@PEBVtype_info@@PEAXUtype_info_less@detail@xpressive@boost@@V?$allocator@U?$pair@QEBVtype_info@@PEAX@std@@@std@@$0A@@std@@@std@@QEAA@XZ 0000000180014e50 f i GRBLdlg.obj
 0001:00013e60       ?insert@?$basic_string@DU?$char_traits@D@std@@V?$allocator@D@2@@std@@QEAAAEAV12@_K0D@Z 0000000180014e60 f i GRBLdlg.obj
 0001:00013f90       ??_E?$traits@D@detail@xpressive@boost@@UEAAPEAXI@Z 0000000180014f90 f i * CIL library *:* CIL module *
 0001:00013f90       ??_G?$traits@D@detail@xpressive@boost@@UEAAPEAXI@Z 0000000180014f90 f i GRBLdlg.obj
 0001:00013fc0       ?deallocate@?$_Wrap_alloc@V?$allocator@U?$named_mark@D@detail@xpressive@boost@@@std@@@std@@QEAAXPEAU?$named_mark@D@detail@xpressive@boost@@_K@Z 0000000180014fc0 f i GRBLdlg.obj
 0001:00014040       ?erase@?$_Tree@V?$_Tmap_traits@PEBVtype_info@@PEAXUtype_info_less@detail@xpressive@boost@@V?$allocator@U?$pair@QEBVtype_info@@PEAX@std@@@std@@$0A@@std@@@std@@QEAA?AV?$_Tree_iterator@V?$_Tree_val@U?$_Tree_simple_types@U?$pair@QEBVtype_info@@PEAX@std@@@std@@@std@@@2@V?$_Tree_const_iterator@V?$_Tree_val@U?$_Tree_simple_types@U?$pair@QEBVtype_info@@PEAX@std@@@std@@@std@@@2@0@Z 0000000180015040 f i GRBLdlg.obj
 0001:00014040       ?erase@?$_Tree@V?$_Tmap_traits@PEBXUtss_data_node@detail@boost@@U?$less@PEBX@std@@V?$allocator@U?$pair@QEBXUtss_data_node@detail@boost@@@std@@@5@$0A@@std@@@std@@QEAA?AV?$_Tree_iterator@V?$_Tree_val@U?$_Tree_simple_types@U?$pair@QEBXUtss_data_node@detail@boost@@@std@@@std@@@std@@@2@V?$_Tree_const_iterator@V?$_Tree_val@U?$_Tree_simple_types@U?$pair@QEBXUtss_data_node@detail@boost@@@std@@@std@@@std@@@2@0@Z 0000000180015040 f i SerialPort.obj
 0001:00014110       ?clear@?$_Tree@V?$_Tmap_traits@PEBXUtss_data_node@detail@boost@@U?$less@PEBX@std@@V?$allocator@U?$pair@QEBXUtss_data_node@detail@boost@@@std@@@5@$0A@@std@@@std@@QEAAXXZ 0000000180015110 f i SerialPort.obj
 0001:00014110       ?clear@?$_Tree@V?$_Tmap_traits@PEBVtype_info@@PEAXUtype_info_less@detail@xpressive@boost@@V?$allocator@U?$pair@QEBVtype_info@@PEAX@std@@@std@@$0A@@std@@@std@@QEAAXXZ 0000000180015110 f i GRBLdlg.obj
 0001:00014190       ?erase@?$_Tree@V?$_Tmap_traits@PEBVtype_info@@PEAXUtype_info_less@detail@xpressive@boost@@V?$allocator@U?$pair@QEBVtype_info@@PEAX@std@@@std@@$0A@@std@@@std@@QEAA?AV?$_Tree_iterator@V?$_Tree_val@U?$_Tree_simple_types@U?$pair@QEBVtype_info@@PEAX@std@@@std@@@std@@@2@V?$_Tree_const_iterator@V?$_Tree_val@U?$_Tree_simple_types@U?$pair@QEBVtype_info@@PEAX@std@@@std@@@std@@@2@@Z 0000000180015190 f i GRBLdlg.obj
 0001:00014190       ?erase@?$_Tree@V?$_Tmap_traits@PEBXUtss_data_node@detail@boost@@U?$less@PEBX@std@@V?$allocator@U?$pair@QEBXUtss_data_node@detail@boost@@@std@@@5@$0A@@std@@@std@@QEAA?AV?$_Tree_iterator@V?$_Tree_val@U?$_Tree_simple_types@U?$pair@QEBXUtss_data_node@detail@boost@@@std@@@std@@@std@@@2@V?$_Tree_const_iterator@V?$_Tree_val@U?$_Tree_simple_types@U?$pair@QEBXUtss_data_node@detail@boost@@@std@@@std@@@std@@@2@@Z 0000000180015190 f i SerialPort.obj
 0001:00014680       ?_Buyheadnode@?$_Tree_comp_alloc@V?$_Tmap_traits@PEBVtype_info@@PEAXUtype_info_less@detail@xpressive@boost@@V?$allocator@U?$pair@QEBVtype_info@@PEAX@std@@@std@@$0A@@std@@@std@@QEAAPEAU?$_Tree_node@U?$pair@QEBVtype_info@@PEAX@std@@PEAX@2@XZ 0000000180015680 f i GRBLdlg.obj
 0001:00014680       ?_Buyheadnode@?$_Tree_comp_alloc@V?$_Tset_traits@V?$weak_ptr@U?$regex_impl@V?$_String_const_iterator@V?$_String_val@U?$_Simple_types@D@std@@@std@@@std@@@detail@xpressive@boost@@@boost@@U?$less@V?$weak_ptr@U?$regex_impl@V?$_String_const_iterator@V?$_String_val@U?$_Simple_types@D@std@@@std@@@std@@@detail@xpressive@boost@@@boost@@@std@@V?$allocator@V?$weak_ptr@U?$regex_impl@V?$_String_const_iterator@V?$_String_val@U?$_Simple_types@D@std@@@std@@@std@@@detail@xpressive@boost@@@boost@@@4@$0A@@std@@@std@@QEAAPEAU?$_Tree_node@V?$weak_ptr@U?$regex_impl@V?$_String_const_iterator@V?$_String_val@U?$_Simple_types@D@std@@@std@@@std@@@detail@xpressive@boost@@@boost@@PEAX@2@XZ 0000000180015680 f i GRBLdlg.obj
 0001:00014680       ?_Buyheadnode@?$_Tree_comp_alloc@V?$_Tset_traits@V?$shared_ptr@U?$regex_impl@V?$_String_const_iterator@V?$_String_val@U?$_Simple_types@D@std@@@std@@@std@@@detail@xpressive@boost@@@boost@@U?$less@V?$shared_ptr@U?$regex_impl@V?$_String_const_iterator@V?$_String_val@U?$_Simple_types@D@std@@@std@@@std@@@detail@xpressive@boost@@@boost@@@std@@V?$allocator@V?$shared_ptr@U?$regex_impl@V?$_String_const_iterator@V?$_String_val@U?$_Simple_types@D@std@@@std@@@std@@@detail@xpressive@boost@@@boost@@@4@$0A@@std@@@std@@QEAAPEAU?$_Tree_node@V?$shared_ptr@U?$regex_impl@V?$_String_const_iterator@V?$_String_val@U?$_Simple_types@D@std@@@std@@@std@@@detail@xpressive@boost@@@boost@@PEAX@2@XZ 0000000180015680 f i GRBLdlg.obj
 0001:000146d0       ?_Erase@?$_Tree@V?$_Tmap_traits@PEBVtype_info@@PEAXUtype_info_less@detail@xpressive@boost@@V?$allocator@U?$pair@QEBVtype_info@@PEAX@std@@@std@@$0A@@std@@@std@@IEAAXPEAU?$_Tree_node@U?$pair@QEBVtype_info@@PEAX@std@@PEAX@2@@Z 00000001800156d0 f i GRBLdlg.obj
 0001:000146d0       ?_Erase@?$_Tree@V?$_Tmap_traits@PEBXUtss_data_node@detail@boost@@U?$less@PEBX@std@@V?$allocator@U?$pair@QEBXUtss_data_node@detail@boost@@@std@@@5@$0A@@std@@@std@@IEAAXPEAU?$_Tree_node@U?$pair@QEBXUtss_data_node@detail@boost@@@std@@PEAX@2@@Z 00000001800156d0 f i SerialPort.obj
 0001:00014730       ??$?HDU?$char_traits@D@std@@V?$allocator@D@1@@std@@YA?AV?$basic_string@DU?$char_traits@D@std@@V?$allocator@D@2@@0@$$QEAV10@PEBD@Z 0000000180015730 f i GRBLdlg.obj
 0001:000147a0       ??$?HDU?$char_traits@D@std@@V?$allocator@D@1@@std@@YA?AV?$basic_string@DU?$char_traits@D@std@@V?$allocator@D@2@@0@AEBV10@PEBD@Z 00000001800157a0 f i GRBLdlg.obj
 0001:00014830       ??$?HDU?$char_traits@D@std@@V?$allocator@D@1@@std@@YA?AV?$basic_string@DU?$char_traits@D@std@@V?$allocator@D@2@@0@$$QEAV10@AEBV10@@Z 0000000180015830 f i GRBLdlg.obj
 0001:00014880       ??$?HDU?$char_traits@D@std@@V?$allocator@D@1@@std@@YA?AV?$basic_string@DU?$char_traits@D@std@@V?$allocator@D@2@@0@AEBV10@$$QEAV10@@Z 0000000180015880 f i GRBLdlg.obj
 0001:000148e0       ??$?HDU?$char_traits@D@std@@V?$allocator@D@1@@std@@YA?AV?$basic_string@DU?$char_traits@D@std@@V?$allocator@D@2@@0@PEBD$$QEAV10@@Z 00000001800158e0 f i GRBLdlg.obj
 0001:00014940       ??$?HDU?$char_traits@D@std@@V?$allocator@D@1@@std@@YA?AV?$basic_string@DU?$char_traits@D@std@@V?$allocator@D@2@@0@PEBDAEBV10@@Z 0000000180015940 f i GRBLdlg.obj
 0001:00014a10       ??$is_any_of@$$BY01D@algorithm@boost@@YA?AU?$is_any_ofF@D@detail@01@AEAY01$$CBD@Z 0000000180015a10 f i GRBLdlg.obj
 0001:00014ad0       ??$trim_copy@V?$basic_string@DU?$char_traits@D@std@@V?$allocator@D@2@@std@@@algorithm@boost@@YA?AV?$basic_string@DU?$char_traits@D@std@@V?$allocator@D@2@@std@@AEBV23@AEBVlocale@3@@Z 0000000180015ad0 f i GRBLdlg.obj
 0001:00014b20       ??$?LM@?$basic_format@DU?$char_traits@D@std@@V?$allocator@D@2@@boost@@QEAAAEAV01@AEBM@Z 0000000180015b20 f i GRBLdlg.obj
 0001:00014bb0       ??$?LH@?$basic_format@DU?$char_traits@D@std@@V?$allocator@D@2@@boost@@QEAAAEAV01@AEBH@Z 0000000180015bb0 f i GRBLdlg.obj
 0001:00014c40       ??$?HDU?$char_traits@D@std@@V?$allocator@D@1@@std@@YA?AV?$basic_string@DU?$char_traits@D@std@@V?$allocator@D@2@@0@$$QEAV10@D@Z 0000000180015c40 f i GRBLdlg.obj
 0001:00014c90       ??$?HDU?$char_traits@D@std@@V?$allocator@D@1@@std@@YA?AV?$basic_string@DU?$char_traits@D@std@@V?$allocator@D@2@@0@AEBV10@D@Z 0000000180015c90 f i GRBLdlg.obj
 0001:00014d20       ??$regex_replace@V?$basic_string@DU?$char_traits@D@std@@V?$allocator@D@2@@std@@V?$_String_const_iterator@V?$_String_val@U?$_Simple_types@D@std@@@std@@@2@@xpressive@boost@@YA?AV?$basic_string@DU?$char_traits@D@std@@V?$allocator@D@2@@std@@AEAV23@AEBU?$basic_regex@V?$_String_const_iterator@V?$_String_val@U?$_Simple_types@D@std@@@std@@@std@@@01@PEBDW4match_flag_type@regex_constants@01@PEAX@Z 0000000180015d20 f i GRBLdlg.obj
 0001:00014f20       ??$compile@V?$basic_string@DU?$char_traits@D@std@@V?$allocator@D@2@@std@@@?$basic_regex@V?$_String_const_iterator@V?$_String_val@U?$_Simple_types@D@std@@@std@@@std@@@xpressive@boost@@SA?AU012@AEBV?$basic_string@DU?$char_traits@D@std@@V?$allocator@D@2@@std@@W4syntax_option_type@regex_constants@12@@Z 0000000180015f20 f i GRBLdlg.obj
 0001:00014fd0       ??$regex_search@V?$basic_string@DU?$char_traits@D@std@@V?$allocator@D@2@@std@@V?$_String_const_iterator@V?$_String_val@U?$_Simple_types@D@std@@@std@@@2@@xpressive@boost@@YA_NAEAV?$basic_string@DU?$char_traits@D@std@@V?$allocator@D@2@@std@@AEBU?$basic_regex@V?$_String_const_iterator@V?$_String_val@U?$_Simple_types@D@std@@@std@@@std@@@01@W4match_flag_type@regex_constants@01@PEAX@Z 0000000180015fd0 f i GRBLdlg.obj
 0001:00015120       ??$?RV?$_String_const_iterator@V?$_String_val@U?$_Simple_types@D@std@@@std@@@std@@V?$basic_string@DU?$char_traits@D@std@@V?$allocator@D@2@@1@@?$char_separator@DU?$char_traits@D@std@@@boost@@QEAA_NAEAV?$_String_const_iterator@V?$_String_val@U?$_Simple_types@D@std@@@std@@@std@@V23@AEAV?$basic_string@DU?$char_traits@D@std@@V?$allocator@D@2@@3@@Z 0000000180016120 f i GRBLdlg.obj
 0001:00015410       ??_D?$wrapexcept@Uregex_error@xpressive@boost@@@boost@@QEAAXXZ 0000000180016410 f i GRBLdlg.obj
 0001:00015470       ??0?$wrapexcept@Uregex_error@xpressive@boost@@@boost@@QEAA@AEBU01@@Z 0000000180016470 f i GRBLdlg.obj
 0001:00015540       ??0?$clone_impl@Uregex_error@xpressive@boost@@@exception_detail@boost@@QEAA@AEBV012@@Z 0000000180016540 f i GRBLdlg.obj
 0001:000155d0       ??0regex_error@xpressive@boost@@QEAA@AEBU012@@Z 00000001800165d0 f i GRBLdlg.obj
 0001:00015690       ??1?$compiler_traits@U?$regex_traits@DU?$cpp_regex_traits@D@xpressive@boost@@@xpressive@boost@@@xpressive@boost@@QEAA@XZ 0000000180016690 f i GRBLdlg.obj
 0001:00015690       ??1?$regex_traits@DU?$cpp_regex_traits@D@xpressive@boost@@@xpressive@boost@@QEAA@XZ 0000000180016690 f i GRBLdlg.obj
 0001:00015690       ??1?$cpp_regex_traits@D@xpressive@boost@@QEAA@XZ 0000000180016690 f i GRBLdlg.obj
 0001:000156d0       ??1?$regex_compiler@V?$_String_const_iterator@V?$_String_val@U?$_Simple_types@D@std@@@std@@@std@@U?$regex_traits@DU?$cpp_regex_traits@D@xpressive@boost@@@xpressive@boost@@U?$compiler_traits@U?$regex_traits@DU?$cpp_regex_traits@D@xpressive@boost@@@xpressive@boost@@@45@@xpressive@boost@@QEAA@XZ 00000001800166d0 f i GRBLdlg.obj
 0001:00015790       ??1?$match_state@V?$_String_const_iterator@V?$_String_val@U?$_Simple_types@D@std@@@std@@@std@@@detail@xpressive@boost@@QEAA@XZ 0000000180016790 f i GRBLdlg.obj
 0001:000157a0       ??_D?$wrapexcept@Vbad_function_call@boost@@@boost@@QEAAXXZ 00000001800167a0 f i GRBLdlg.obj
 0001:00015800       ??0?$wrapexcept@Vbad_function_call@boost@@@boost@@QEAA@AEBU01@@Z 0000000180016800 f i GRBLdlg.obj
 0001:000158d0       ??0?$clone_impl@U?$error_info_injector@Vbad_function_call@boost@@@exception_detail@boost@@@exception_detail@boost@@QEAA@AEBV012@@Z 00000001800168d0 f i GRBLdlg.obj
 0001:00015960       ??0?$error_info_injector@Vbad_function_call@boost@@@exception_detail@boost@@QEAA@AEBU012@@Z 0000000180016960 f i GRBLdlg.obj
 0001:00015a20       ??0bad_function_call@boost@@QEAA@AEBV01@@Z 0000000180016a20 f i GRBLdlg.obj
 0001:00015a60       ??_E?$wrapexcept@Uregex_error@xpressive@boost@@@boost@@UEAAPEAXI@Z 0000000180016a60 f i * CIL library *:* CIL module *
 0001:00015a60       ??_G?$wrapexcept@Uregex_error@xpressive@boost@@@boost@@UEAAPEAXI@Z 0000000180016a60 f i GRBLdlg.obj
 0001:00015ae0       ??_E?$clone_impl@Uregex_error@xpressive@boost@@@exception_detail@boost@@UEAAPEAXI@Z 0000000180016ae0 f i * CIL library *:* CIL module *
 0001:00015ae0       ??_G?$clone_impl@Uregex_error@xpressive@boost@@@exception_detail@boost@@UEAAPEAXI@Z 0000000180016ae0 f i GRBLdlg.obj
 0001:00015b20       ??1?$map@V?$basic_string@DU?$char_traits@D@std@@V?$allocator@D@2@@std@@U?$basic_regex@V?$_String_const_iterator@V?$_String_val@U?$_Simple_types@D@std@@@std@@@std@@@xpressive@boost@@U?$less@V?$basic_string@DU?$char_traits@D@std@@V?$allocator@D@2@@std@@@2@V?$allocator@U?$pair@$$CBV?$basic_string@DU?$char_traits@D@std@@V?$allocator@D@2@@std@@U?$basic_regex@V?$_String_const_iterator@V?$_String_val@U?$_Simple_types@D@std@@@std@@@std@@@xpressive@boost@@@std@@@2@@std@@QEAA@XZ 0000000180016b20 f i GRBLdlg.obj
 0001:00015b50       ??_G?$wrapexcept@Vbad_function_call@boost@@@boost@@UEAAPEAXI@Z 0000000180016b50 f i GRBLdlg.obj
 0001:00015b50       ??_E?$wrapexcept@Vbad_function_call@boost@@@boost@@UEAAPEAXI@Z 0000000180016b50 f i * CIL library *:* CIL module *
 0001:00015bd0       ??_E?$clone_impl@U?$error_info_injector@Vbad_function_call@boost@@@exception_detail@boost@@@exception_detail@boost@@UEAAPEAXI@Z 0000000180016bd0 f i * CIL library *:* CIL module *
 0001:00015bd0       ??_G?$clone_impl@U?$error_info_injector@Vbad_function_call@boost@@@exception_detail@boost@@@exception_detail@boost@@UEAAPEAXI@Z 0000000180016bd0 f i GRBLdlg.obj
 0001:00015c10       ??_E?$error_info_injector@Vbad_function_call@boost@@@exception_detail@boost@@UEAAPEAXI@Z 0000000180016c10 f i * CIL library *:* CIL module *
 0001:00015c10       ??_G?$error_info_injector@Vbad_function_call@boost@@@exception_detail@boost@@UEAAPEAXI@Z 0000000180016c10 f i GRBLdlg.obj
 0001:00015ca0       ??_D?$clone_impl@Uregex_error@xpressive@boost@@@exception_detail@boost@@QEAAXXZ 0000000180016ca0 f i GRBLdlg.obj
 0001:00015cc0       ??_D?$clone_impl@U?$error_info_injector@Vbad_function_call@boost@@@exception_detail@boost@@@exception_detail@boost@@QEAAXXZ 0000000180016cc0 f i GRBLdlg.obj
 0001:00015ce0       ?rethrow@?$clone_impl@U?$error_info_injector@Vbad_function_call@boost@@@exception_detail@boost@@@exception_detail@boost@@EEBAXXZ 0000000180016ce0 f i GRBLdlg.obj
 0001:00015d80       ?clone@?$clone_impl@U?$error_info_injector@Vbad_function_call@boost@@@exception_detail@boost@@@exception_detail@boost@@EEBAPEBVclone_base@23@XZ 0000000180016d80 f i GRBLdlg.obj
 0001:00015de0       ??1?$clone_impl@U?$error_info_injector@Vbad_function_call@boost@@@exception_detail@boost@@@exception_detail@boost@@UEAA@XZ 0000000180016de0 f i GRBLdlg.obj
 0001:00015e80       ??1?$error_info_injector@Vbad_function_call@boost@@@exception_detail@boost@@UEAA@XZ 0000000180016e80 f i GRBLdlg.obj
 0001:00015ee0       ?rethrow@?$clone_impl@Uregex_error@xpressive@boost@@@exception_detail@boost@@EEBAXXZ 0000000180016ee0 f i GRBLdlg.obj
 0001:00015f80       ?clone@?$clone_impl@Uregex_error@xpressive@boost@@@exception_detail@boost@@EEBAPEBVclone_base@23@XZ 0000000180016f80 f i GRBLdlg.obj
 0001:00015fe0       ??1?$clone_impl@Uregex_error@xpressive@boost@@@exception_detail@boost@@UEAA@XZ 0000000180016fe0 f i GRBLdlg.obj
 0001:00016080       ??0?$match_state@V?$_String_const_iterator@V?$_String_val@U?$_Simple_types@D@std@@@std@@@std@@@detail@xpressive@boost@@QEAA@V?$_String_const_iterator@V?$_String_val@U?$_Simple_types@D@std@@@std@@@std@@0AEAU?$match_results@V?$_String_const_iterator@V?$_String_val@U?$_Simple_types@D@std@@@std@@@std@@@23@AEBU?$regex_impl@V?$_String_const_iterator@V?$_String_val@U?$_Simple_types@D@std@@@std@@@std@@@123@W4match_flag_type@regex_constants@23@@Z 0000000180017080 f i GRBLdlg.obj
 0001:00016210       ?release@?$enable_reference_tracking@U?$regex_impl@V?$_String_const_iterator@V?$_String_val@U?$_Simple_types@D@std@@@std@@@std@@@detail@xpressive@boost@@@detail@xpressive@boost@@QEAAXXZ 0000000180017210 f i GRBLdlg.obj
 0001:000162b0       ??0?$regex_compiler@V?$_String_const_iterator@V?$_String_val@U?$_Simple_types@D@std@@@std@@@std@@U?$regex_traits@DU?$cpp_regex_traits@D@xpressive@boost@@@xpressive@boost@@U?$compiler_traits@U?$regex_traits@DU?$cpp_regex_traits@D@xpressive@boost@@@xpressive@boost@@@45@@xpressive@boost@@QEAA@AEBU?$regex_traits@DU?$cpp_regex_traits@D@xpressive@boost@@@12@@Z 00000001800172b0 f i GRBLdlg.obj
 0001:00016370       ??0?$regex_traits@DU?$cpp_regex_traits@D@xpressive@boost@@@xpressive@boost@@QEAA@XZ 0000000180017370 f i GRBLdlg.obj
 0001:00016440       ??0?$clone_impl@U?$error_info_injector@Vbad_function_call@boost@@@exception_detail@boost@@@exception_detail@boost@@AEAA@AEBV012@Uclone_tag@012@@Z 0000000180017440 f i GRBLdlg.obj
 0001:00016500       ??0?$clone_impl@Uregex_error@xpressive@boost@@@exception_detail@boost@@AEAA@AEBV012@Uclone_tag@012@@Z 0000000180017500 f i GRBLdlg.obj
 0001:000165c0       ?reclaim_all@?$results_cache@V?$_String_const_iterator@V?$_String_val@U?$_Simple_types@D@std@@@std@@@std@@@detail@xpressive@boost@@QEAAXAEAU?$nested_results@V?$_String_const_iterator@V?$_String_val@U?$_Simple_types@D@std@@@std@@@std@@@234@@Z 00000001800175c0 f i GRBLdlg.obj
 0001:00016640       ??A?$sub_match_vector@V?$_String_const_iterator@V?$_String_val@U?$_Simple_types@D@std@@@std@@@std@@@detail@xpressive@boost@@QEBAAEBU?$sub_match@V?$_String_const_iterator@V?$_String_val@U?$_Simple_types@D@std@@@std@@@std@@@23@_K@Z 0000000180017640 f i GRBLdlg.obj
 0001:000166e0       ?init_@?$match_state@V?$_String_const_iterator@V?$_String_val@U?$_Simple_types@D@std@@@std@@@std@@@detail@xpressive@boost@@AEAAXAEBU?$regex_impl@V?$_String_const_iterator@V?$_String_val@U?$_Simple_types@D@std@@@std@@@std@@@234@AEAU?$match_results@V?$_String_const_iterator@V?$_String_val@U?$_Simple_types@D@std@@@std@@@std@@@34@@Z 00000001800176e0 f i GRBLdlg.obj
 0001:00016840       ?get@?$tracking_ptr@U?$regex_impl@V?$_String_const_iterator@V?$_String_val@U?$_Simple_types@D@std@@@std@@@std@@@detail@xpressive@boost@@@detail@xpressive@boost@@QEBAAEBV?$shared_ptr@U?$regex_impl@V?$_String_const_iterator@V?$_String_val@U?$_Simple_types@D@std@@@std@@@std@@@detail@xpressive@boost@@@4@XZ 0000000180017840 f i GRBLdlg.obj
 0001:000168c0       ?insert@?$basic_string@DU?$char_traits@D@std@@V?$allocator@D@2@@std@@QEAAAEAV12@_KPEBD0@Z 00000001800178c0 f i GRBLdlg.obj
 0001:00016a40       ?insert@?$basic_string@DU?$char_traits@D@std@@V?$allocator@D@2@@std@@QEAAAEAV12@_KAEBV12@00@Z 0000000180017a40 f i GRBLdlg.obj
 0001:00016be0       ??0?$cpp_regex_traits@D@xpressive@boost@@QEAA@AEBU012@@Z 0000000180017be0 f i GRBLdlg.obj
 0001:00016ca0       ?erase@?$_Tree@V?$_Tmap_traits@V?$basic_string@DU?$char_traits@D@std@@V?$allocator@D@2@@std@@U?$basic_regex@V?$_String_const_iterator@V?$_String_val@U?$_Simple_types@D@std@@@std@@@std@@@xpressive@boost@@U?$less@V?$basic_string@DU?$char_traits@D@std@@V?$allocator@D@2@@std@@@2@V?$allocator@U?$pair@$$CBV?$basic_string@DU?$char_traits@D@std@@V?$allocator@D@2@@std@@U?$basic_regex@V?$_String_const_iterator@V?$_String_val@U?$_Simple_types@D@std@@@std@@@std@@@xpressive@boost@@@std@@@2@$0A@@std@@@std@@QEAA?AV?$_Tree_iterator@V?$_Tree_val@U?$_Tree_simple_types@U?$pair@$$CBV?$basic_string@DU?$char_traits@D@std@@V?$allocator@D@2@@std@@U?$basic_regex@V?$_String_const_iterator@V?$_String_val@U?$_Simple_types@D@std@@@std@@@std@@@xpressive@boost@@@std@@@std@@@std@@@2@V?$_Tree_const_iterator@V?$_Tree_val@U?$_Tree_simple_types@U?$pair@$$CBV?$basic_string@DU?$char_traits@D@std@@V?$allocator@D@2@@std@@U?$basic_regex@V?$_String_const_iterator@V?$_String_val@U?$_Simple_types@D@std@@@std@@@std@@@xpressive@boost@@@std@@@std@@@std@@@2@0@Z 0000000180017ca0 f i GRBLdlg.obj
 0001:00016d90       ?_Erase@?$_Tree@V?$_Tset_traits@V?$shared_ptr@U?$regex_impl@V?$_String_const_iterator@V?$_String_val@U?$_Simple_types@D@std@@@std@@@std@@@detail@xpressive@boost@@@boost@@U?$less@V?$shared_ptr@U?$regex_impl@V?$_String_const_iterator@V?$_String_val@U?$_Simple_types@D@std@@@std@@@std@@@detail@xpressive@boost@@@boost@@@std@@V?$allocator@V?$shared_ptr@U?$regex_impl@V?$_String_const_iterator@V?$_String_val@U?$_Simple_types@D@std@@@std@@@std@@@detail@xpressive@boost@@@boost@@@4@$0A@@std@@@std@@IEAAXPEAU?$_Tree_node@V?$shared_ptr@U?$regex_impl@V?$_String_const_iterator@V?$_String_val@U?$_Simple_types@D@std@@@std@@@std@@@detail@xpressive@boost@@@boost@@PEAX@2@@Z 0000000180017d90 f i GRBLdlg.obj
 0001:00016e30       ?tracking_copy@?$enable_reference_tracking@U?$regex_impl@V?$_String_const_iterator@V?$_String_val@U?$_Simple_types@D@std@@@std@@@std@@@detail@xpressive@boost@@@detail@xpressive@boost@@QEAAXAEBU?$regex_impl@V?$_String_const_iterator@V?$_String_val@U?$_Simple_types@D@std@@@std@@@std@@@234@@Z 0000000180017e30 f i GRBLdlg.obj
 0001:00016f10       ?fork_@?$tracking_ptr@U?$regex_impl@V?$_String_const_iterator@V?$_String_val@U?$_Simple_types@D@std@@@std@@@std@@@detail@xpressive@boost@@@detail@xpressive@boost@@AEBA?AV?$intrusive_ptr@U?$regex_impl@V?$_String_const_iterator@V?$_String_val@U?$_Simple_types@D@std@@@std@@@std@@@detail@xpressive@boost@@@4@XZ 0000000180017f10 f i GRBLdlg.obj
 0001:00017120       ?get_extras_@?$match_results@V?$_String_const_iterator@V?$_String_val@U?$_Simple_types@D@std@@@std@@@std@@@xpressive@boost@@AEAAAEAU?$results_extras@V?$_String_const_iterator@V?$_String_val@U?$_Simple_types@D@std@@@std@@@std@@@detail@23@XZ 0000000180018120 f i GRBLdlg.obj
 0001:000171c0       ?imbue@?$cpp_regex_traits@D@xpressive@boost@@QEAA?AVlocale@std@@V45@@Z 00000001800181c0 f i GRBLdlg.obj
 0001:000172b0       ?erase@?$_Tree@V?$_Tmap_traits@V?$basic_string@DU?$char_traits@D@std@@V?$allocator@D@2@@std@@U?$basic_regex@V?$_String_const_iterator@V?$_String_val@U?$_Simple_types@D@std@@@std@@@std@@@xpressive@boost@@U?$less@V?$basic_string@DU?$char_traits@D@std@@V?$allocator@D@2@@std@@@2@V?$allocator@U?$pair@$$CBV?$basic_string@DU?$char_traits@D@std@@V?$allocator@D@2@@std@@U?$basic_regex@V?$_String_const_iterator@V?$_String_val@U?$_Simple_types@D@std@@@std@@@std@@@xpressive@boost@@@std@@@2@$0A@@std@@@std@@QEAA?AV?$_Tree_iterator@V?$_Tree_val@U?$_Tree_simple_types@U?$pair@$$CBV?$basic_string@DU?$char_traits@D@std@@V?$allocator@D@2@@std@@U?$basic_regex@V?$_String_const_iterator@V?$_String_val@U?$_Simple_types@D@std@@@std@@@std@@@xpressive@boost@@@std@@@std@@@std@@@2@V?$_Tree_const_iterator@V?$_Tree_val@U?$_Tree_simple_types@U?$pair@$$CBV?$basic_string@DU?$char_traits@D@std@@V?$allocator@D@2@@std@@U?$basic_regex@V?$_String_const_iterator@V?$_String_val@U?$_Simple_types@D@std@@@std@@@std@@@xpressive@boost@@@std@@@std@@@std@@@2@@Z 00000001800182b0 f i GRBLdlg.obj
 0001:000177d0       ??4?$shared_ptr@U?$regex_impl@V?$_String_const_iterator@V?$_String_val@U?$_Simple_types@D@std@@@std@@@std@@@detail@xpressive@boost@@@boost@@QEAAAEAV01@AEBV01@@Z 00000001800187d0 f i GRBLdlg.obj
 0001:00017870       ??1?$regex_impl@V?$_String_const_iterator@V?$_String_val@U?$_Simple_types@D@std@@@std@@@std@@@detail@xpressive@boost@@QEAA@XZ 0000000180018870 f i GRBLdlg.obj
 0001:00017950       ??0?$regex_impl@V?$_String_const_iterator@V?$_String_val@U?$_Simple_types@D@std@@@std@@@std@@@detail@xpressive@boost@@QEAA@XZ 0000000180018950 f i GRBLdlg.obj
 0001:000179e0       ?imbue@?$cpp_regex_traits_base@D$00@detail@xpressive@boost@@IEAAXAEBVlocale@std@@@Z 00000001800189e0 f i GRBLdlg.obj
 0001:00017ac0       ?init_@?$match_results@V?$_String_const_iterator@V?$_String_val@U?$_Simple_types@D@std@@@std@@@std@@@xpressive@boost@@AEAAXPEBXAEBV?$intrusive_ptr@$$CBU?$traits@D@detail@xpressive@boost@@@3@PEAU?$sub_match_impl@V?$_String_const_iterator@V?$_String_val@U?$_Simple_types@D@std@@@std@@@std@@@detail@23@_KAEBV?$vector@U?$named_mark@D@detail@xpressive@boost@@V?$allocator@U?$named_mark@D@detail@xpressive@boost@@@std@@@std@@@Z 0000000180018ac0 f i GRBLdlg.obj
 0001:00017b60       ??1?$enable_reference_tracking@U?$regex_impl@V?$_String_const_iterator@V?$_String_val@U?$_Simple_types@D@std@@@std@@@std@@@detail@xpressive@boost@@@detail@xpressive@boost@@QEAA@XZ 0000000180018b60 f i GRBLdlg.obj
 0001:00017c10       ??1?$set@V?$shared_ptr@U?$regex_impl@V?$_String_const_iterator@V?$_String_val@U?$_Simple_types@D@std@@@std@@@std@@@detail@xpressive@boost@@@boost@@U?$less@V?$shared_ptr@U?$regex_impl@V?$_String_const_iterator@V?$_String_val@U?$_Simple_types@D@std@@@std@@@std@@@detail@xpressive@boost@@@boost@@@std@@V?$allocator@V?$shared_ptr@U?$regex_impl@V?$_String_const_iterator@V?$_String_val@U?$_Simple_types@D@std@@@std@@@std@@@detail@xpressive@boost@@@boost@@@4@@std@@QEAA@XZ 0000000180018c10 f i GRBLdlg.obj
 0001:00017c40       ??1?$set@V?$weak_ptr@U?$regex_impl@V?$_String_const_iterator@V?$_String_val@U?$_Simple_types@D@std@@@std@@@std@@@detail@xpressive@boost@@@boost@@U?$less@V?$weak_ptr@U?$regex_impl@V?$_String_const_iterator@V?$_String_val@U?$_Simple_types@D@std@@@std@@@std@@@detail@xpressive@boost@@@boost@@@std@@V?$allocator@V?$weak_ptr@U?$regex_impl@V?$_String_const_iterator@V?$_String_val@U?$_Simple_types@D@std@@@std@@@std@@@detail@xpressive@boost@@@boost@@@4@@std@@QEAA@XZ 0000000180018c40 f i GRBLdlg.obj
 0001:00017c70       ?_Erase@?$_Tree@V?$_Tmap_traits@V?$basic_string@DU?$char_traits@D@std@@V?$allocator@D@2@@std@@U?$basic_regex@V?$_String_const_iterator@V?$_String_val@U?$_Simple_types@D@std@@@std@@@std@@@xpressive@boost@@U?$less@V?$basic_string@DU?$char_traits@D@std@@V?$allocator@D@2@@std@@@2@V?$allocator@U?$pair@$$CBV?$basic_string@DU?$char_traits@D@std@@V?$allocator@D@2@@std@@U?$basic_regex@V?$_String_const_iterator@V?$_String_val@U?$_Simple_types@D@std@@@std@@@std@@@xpressive@boost@@@std@@@2@$0A@@std@@@std@@IEAAXPEAU?$_Tree_node@U?$pair@$$CBV?$basic_string@DU?$char_traits@D@std@@V?$allocator@D@2@@std@@U?$basic_regex@V?$_String_const_iterator@V?$_String_val@U?$_Simple_types@D@std@@@std@@@std@@@xpressive@boost@@@std@@PEAX@2@@Z 0000000180018c70 f i GRBLdlg.obj
 0001:00017ce0       ?clear@?$sequence_stack@U?$sub_match_impl@V?$_String_const_iterator@V?$_String_val@U?$_Simple_types@D@std@@@std@@@std@@@detail@xpressive@boost@@@detail@xpressive@boost@@QEAAXXZ 0000000180018ce0 f i GRBLdlg.obj
 0001:00017da0       ?grow_@?$sequence_stack@U?$sub_match_impl@V?$_String_const_iterator@V?$_String_val@U?$_Simple_types@D@std@@@std@@@std@@@detail@xpressive@boost@@@detail@xpressive@boost@@AEAAPEAU?$sub_match_impl@V?$_String_const_iterator@V?$_String_val@U?$_Simple_types@D@std@@@std@@@std@@@234@_KAEBU5234@@Z 0000000180018da0 f i GRBLdlg.obj
 0001:00017fb0       ??4?$vector@U?$named_mark@D@detail@xpressive@boost@@V?$allocator@U?$named_mark@D@detail@xpressive@boost@@@std@@@std@@QEAAAEAV01@AEBV01@@Z 0000000180018fb0 f i GRBLdlg.obj
 0001:000181a0       ??0?$vector@U?$named_mark@D@detail@xpressive@boost@@V?$allocator@U?$named_mark@D@detail@xpressive@boost@@@std@@@std@@QEAA@AEBV01@@Z 00000001800191a0 f i GRBLdlg.obj
 0001:00018270       ?update_dependents_@?$enable_reference_tracking@U?$regex_impl@V?$_String_const_iterator@V?$_String_val@U?$_Simple_types@D@std@@@std@@@std@@@detail@xpressive@boost@@@detail@xpressive@boost@@AEAAXXZ 0000000180019270 f i GRBLdlg.obj
 0001:00018440       ?update_references_@?$enable_reference_tracking@U?$regex_impl@V?$_String_const_iterator@V?$_String_val@U?$_Simple_types@D@std@@@std@@@std@@@detail@xpressive@boost@@@detail@xpressive@boost@@AEAAXXZ 0000000180019440 f i GRBLdlg.obj
 0001:000184e0       ??0?$enable_reference_tracking@U?$regex_impl@V?$_String_const_iterator@V?$_String_val@U?$_Simple_types@D@std@@@std@@@std@@@detail@xpressive@boost@@@detail@xpressive@boost@@IEAA@AEBU0123@@Z 00000001800194e0 f i GRBLdlg.obj
 0001:000185b0       ?_Buyheadnode@?$_Tree_comp_alloc@V?$_Tmap_traits@V?$basic_string@DU?$char_traits@D@std@@V?$allocator@D@2@@std@@U?$basic_regex@V?$_String_const_iterator@V?$_String_val@U?$_Simple_types@D@std@@@std@@@std@@@xpressive@boost@@U?$less@V?$basic_string@DU?$char_traits@D@std@@V?$allocator@D@2@@std@@@2@V?$allocator@U?$pair@$$CBV?$basic_string@DU?$char_traits@D@std@@V?$allocator@D@2@@std@@U?$basic_regex@V?$_String_const_iterator@V?$_String_val@U?$_Simple_types@D@std@@@std@@@std@@@xpressive@boost@@@std@@@2@$0A@@std@@@std@@QEAAPEAU?$_Tree_node@U?$pair@$$CBV?$basic_string@DU?$char_traits@D@std@@V?$allocator@D@2@@std@@U?$basic_regex@V?$_String_const_iterator@V?$_String_val@U?$_Simple_types@D@std@@@std@@@std@@@xpressive@boost@@@std@@PEAX@2@XZ 00000001800195b0 f i GRBLdlg.obj
 0001:00018600       ??0chunk@?$sequence_stack@U?$sub_match_impl@V?$_String_const_iterator@V?$_String_val@U?$_Simple_types@D@std@@@std@@@std@@@detail@xpressive@boost@@@detail@xpressive@boost@@QEAA@_KAEBU?$sub_match_impl@V?$_String_const_iterator@V?$_String_val@U?$_Simple_types@D@std@@@std@@@std@@@234@0PEAU01234@2@Z 0000000180019600 f i GRBLdlg.obj
 0001:000186d0       ?_Buy@?$vector@U?$named_mark@D@detail@xpressive@boost@@V?$allocator@U?$named_mark@D@detail@xpressive@boost@@@std@@@std@@IEAA_N_K@Z 00000001800196d0 f i GRBLdlg.obj
 0001:00018740       __acrt_thread_detach       0000000180019740 f i msvcrt:ucrt_stubs.obj
 0001:00018740       __scrt_stub_for_acrt_thread_detach 0000000180019740 f i msvcrt:ucrt_stubs.obj
 0001:00018740       __vcrt_uninitialize_critical 0000000180019740 f i msvcrt:ucrt_stubs.obj
 0001:00018740       __scrt_stub_for_acrt_thread_attach 0000000180019740 f i msvcrt:ucrt_stubs.obj
 0001:00018740       __scrt_stub_for_acrt_initialize 0000000180019740 f i msvcrt:ucrt_stubs.obj
 0001:00018740       ?match@?$dynamic_xpression@Utrue_matcher@detail@xpressive@boost@@V?$_String_const_iterator@V?$_String_val@U?$_Simple_types@D@std@@@std@@@std@@@detail@xpressive@boost@@UEBA_NAEAU?$match_state@V?$_String_const_iterator@V?$_String_val@U?$_Simple_types@D@std@@@std@@@std@@@234@@Z 0000000180019740 f i GRBLdlg.obj
 0001:00018740       __scrt_stub_for_acrt_uninitialize 0000000180019740 f i msvcrt:ucrt_stubs.obj
 0001:00018740       __acrt_uninitialize_critical 0000000180019740 f i msvcrt:ucrt_stubs.obj
 0001:00018740       __vcrt_thread_detach       0000000180019740 f i msvcrt:ucrt_stubs.obj
 0001:00018740       __acrt_uninitialize        0000000180019740 f i msvcrt:ucrt_stubs.obj
 0001:00018740       ?ok_for_partial_matches@?$finder@V?$_String_const_iterator@V?$_String_val@U?$_Simple_types@D@std@@@std@@@std@@@detail@xpressive@boost@@UEBA_NXZ 0000000180019740 f i GRBLdlg.obj
 0001:00018740       __vcrt_thread_attach       0000000180019740 f i msvcrt:ucrt_stubs.obj
 0001:00018740       __scrt_stub_for_acrt_uninitialize_critical 0000000180019740 f i msvcrt:ucrt_stubs.obj
 0001:00018740       __acrt_initialize          0000000180019740 f i msvcrt:ucrt_stubs.obj
 0001:00018740       __acrt_thread_attach       0000000180019740 f i msvcrt:ucrt_stubs.obj
 0001:00018740       __vcrt_initialize          0000000180019740 f i msvcrt:ucrt_stubs.obj
 0001:00018740       __vcrt_uninitialize        0000000180019740 f i msvcrt:ucrt_stubs.obj
 0001:00018750       ??1?$finder@V?$_String_const_iterator@V?$_String_val@U?$_Simple_types@D@std@@@std@@@std@@@detail@xpressive@boost@@UEAA@XZ 0000000180019750 f i GRBLdlg.obj
 0001:00018760       ?repeat@?$matchable_ex@V?$_String_const_iterator@V?$_String_val@U?$_Simple_types@D@std@@@std@@@std@@@detail@xpressive@boost@@UEBAXAEBUquant_spec@234@AEAU?$sequence@V?$_String_const_iterator@V?$_String_val@U?$_Simple_types@D@std@@@std@@@std@@@234@@Z 0000000180019760 f i GRBLdlg.obj
 0001:00018850       ?peek@?$dynamic_xpression@Uassert_bos_matcher@detail@xpressive@boost@@V?$_String_const_iterator@V?$_String_val@U?$_Simple_types@D@std@@@std@@@std@@@detail@xpressive@boost@@UEBAXAEAU?$xpression_peeker@D@234@@Z 0000000180019850 f i GRBLdlg.obj
 0001:00018850       ?peek@?$dynamic_xpression@U?$repeat_end_matcher@U?$bool_@$00@mpl@boost@@@detail@xpressive@boost@@V?$_String_const_iterator@V?$_String_val@U?$_Simple_types@D@std@@@std@@@std@@@detail@xpressive@boost@@UEBAXAEAU?$xpression_peeker@D@234@@Z 0000000180019850 f i GRBLdlg.obj
 0001:00018850       ?peek@?$dynamic_xpression@Uassert_eos_matcher@detail@xpressive@boost@@V?$_String_const_iterator@V?$_String_val@U?$_Simple_types@D@std@@@std@@@std@@@detail@xpressive@boost@@UEBAXAEAU?$xpression_peeker@D@234@@Z 0000000180019850 f i GRBLdlg.obj
 0001:00018850       ?peek@?$dynamic_xpression@U?$lookahead_matcher@U?$shared_matchable@V?$_String_const_iterator@V?$_String_val@U?$_Simple_types@D@std@@@std@@@std@@@detail@xpressive@boost@@@detail@xpressive@boost@@V?$_String_const_iterator@V?$_String_val@U?$_Simple_types@D@std@@@std@@@std@@@detail@xpressive@boost@@UEBAXAEAU?$xpression_peeker@D@234@@Z 0000000180019850 f i GRBLdlg.obj
 0001:00018850       ?peek@?$dynamic_xpression@U?$assert_word_matcher@U?$word_boundary@U?$bool_@$0A@@mpl@boost@@@detail@xpressive@boost@@U?$regex_traits@DU?$cpp_regex_traits@D@xpressive@boost@@@34@@detail@xpressive@boost@@V?$_String_const_iterator@V?$_String_val@U?$_Simple_types@D@std@@@std@@@std@@@detail@xpressive@boost@@UEBAXAEAU?$xpression_peeker@D@234@@Z 0000000180019850 f i GRBLdlg.obj
 0001:00018850       ?peek@?$dynamic_xpression@U?$optional_matcher@U?$shared_matchable@V?$_String_const_iterator@V?$_String_val@U?$_Simple_types@D@std@@@std@@@std@@@detail@xpressive@boost@@U?$bool_@$0A@@mpl@4@@detail@xpressive@boost@@V?$_String_const_iterator@V?$_String_val@U?$_Simple_types@D@std@@@std@@@std@@@detail@xpressive@boost@@UEBAXAEAU?$xpression_peeker@D@234@@Z 0000000180019850 f i GRBLdlg.obj
 0001:00018850       ?peek@?$dynamic_xpression@U?$mark_matcher@U?$regex_traits@DU?$cpp_regex_traits@D@xpressive@boost@@@xpressive@boost@@U?$bool_@$00@mpl@3@@detail@xpressive@boost@@V?$_String_const_iterator@V?$_String_val@U?$_Simple_types@D@std@@@std@@@std@@@detail@xpressive@boost@@UEBAXAEAU?$xpression_peeker@D@234@@Z 0000000180019850 f i GRBLdlg.obj
 0001:00018850       ?peek@?$dynamic_xpression@Uany_matcher@detail@xpressive@boost@@V?$_String_const_iterator@V?$_String_val@U?$_Simple_types@D@std@@@std@@@std@@@detail@xpressive@boost@@UEBAXAEAU?$xpression_peeker@D@234@@Z 0000000180019850 f i GRBLdlg.obj
 0001:00018850       ?peek@?$dynamic_xpression@U?$lookbehind_matcher@U?$shared_matchable@V?$_String_const_iterator@V?$_String_val@U?$_Simple_types@D@std@@@std@@@std@@@detail@xpressive@boost@@@detail@xpressive@boost@@V?$_String_const_iterator@V?$_String_val@U?$_Simple_types@D@std@@@std@@@std@@@detail@xpressive@boost@@UEBAXAEAU?$xpression_peeker@D@234@@Z 0000000180019850 f i GRBLdlg.obj
 0001:00018850       ?peek@?$dynamic_xpression@U?$charset_matcher@U?$regex_traits@DU?$cpp_regex_traits@D@xpressive@boost@@@xpressive@boost@@U?$bool_@$0A@@mpl@3@U?$compound_charset@U?$regex_traits@DU?$cpp_regex_traits@D@xpressive@boost@@@xpressive@boost@@@detail@23@@detail@xpressive@boost@@V?$_String_const_iterator@V?$_String_val@U?$_Simple_types@D@std@@@std@@@std@@@detail@xpressive@boost@@UEBAXAEAU?$xpression_peeker@D@234@@Z 0000000180019850 f i GRBLdlg.obj
 0001:00018850       ?peek@?$dynamic_xpression@U?$assert_word_matcher@Uword_begin@detail@xpressive@boost@@U?$regex_traits@DU?$cpp_regex_traits@D@xpressive@boost@@@34@@detail@xpressive@boost@@V?$_String_const_iterator@V?$_String_val@U?$_Simple_types@D@std@@@std@@@std@@@detail@xpressive@boost@@UEBAXAEAU?$xpression_peeker@D@234@@Z 0000000180019850 f i GRBLdlg.obj
 0001:00018850       ?peek@?$dynamic_xpression@U?$literal_matcher@U?$regex_traits@DU?$cpp_regex_traits@D@xpressive@boost@@@xpressive@boost@@U?$bool_@$0A@@mpl@3@U?$bool_@$00@53@@detail@xpressive@boost@@V?$_String_const_iterator@V?$_String_val@U?$_Simple_types@D@std@@@std@@@std@@@detail@xpressive@boost@@UEBAXAEAU?$xpression_peeker@D@234@@Z 0000000180019850 f i GRBLdlg.obj
 0001:00018850       ?peek@?$dynamic_xpression@U?$optional_mark_matcher@U?$shared_matchable@V?$_String_const_iterator@V?$_String_val@U?$_Simple_types@D@std@@@std@@@std@@@detail@xpressive@boost@@U?$bool_@$00@mpl@4@@detail@xpressive@boost@@V?$_String_const_iterator@V?$_String_val@U?$_Simple_types@D@std@@@std@@@std@@@detail@xpressive@boost@@UEBAXAEAU?$xpression_peeker@D@234@@Z 0000000180019850 f i GRBLdlg.obj
 0001:00018850       ?peek@?$dynamic_xpression@Uindependent_end_matcher@detail@xpressive@boost@@V?$_String_const_iterator@V?$_String_val@U?$_Simple_types@D@std@@@std@@@std@@@detail@xpressive@boost@@UEBAXAEAU?$xpression_peeker@D@234@@Z 0000000180019850 f i GRBLdlg.obj
 0001:00018850       ?peek@?$dynamic_xpression@U?$assert_word_matcher@U?$word_boundary@U?$bool_@$00@mpl@boost@@@detail@xpressive@boost@@U?$regex_traits@DU?$cpp_regex_traits@D@xpressive@boost@@@34@@detail@xpressive@boost@@V?$_String_const_iterator@V?$_String_val@U?$_Simple_types@D@std@@@std@@@std@@@detail@xpressive@boost@@UEBAXAEAU?$xpression_peeker@D@234@@Z 0000000180019850 f i GRBLdlg.obj
 0001:00018850       ?peek@?$dynamic_xpression@Uend_matcher@detail@xpressive@boost@@V?$_String_const_iterator@V?$_String_val@U?$_Simple_types@D@std@@@std@@@std@@@detail@xpressive@boost@@UEBAXAEAU?$xpression_peeker@D@234@@Z 0000000180019850 f i GRBLdlg.obj
 0001:00018850       ?peek@?$dynamic_xpression@U?$mark_matcher@U?$regex_traits@DU?$cpp_regex_traits@D@xpressive@boost@@@xpressive@boost@@U?$bool_@$0A@@mpl@3@@detail@xpressive@boost@@V?$_String_const_iterator@V?$_String_val@U?$_Simple_types@D@std@@@std@@@std@@@detail@xpressive@boost@@UEBAXAEAU?$xpression_peeker@D@234@@Z 0000000180019850 f i GRBLdlg.obj
 0001:00018850       ?peek@?$dynamic_xpression@U?$optional_matcher@U?$shared_matchable@V?$_String_const_iterator@V?$_String_val@U?$_Simple_types@D@std@@@std@@@std@@@detail@xpressive@boost@@U?$bool_@$00@mpl@4@@detail@xpressive@boost@@V?$_String_const_iterator@V?$_String_val@U?$_Simple_types@D@std@@@std@@@std@@@detail@xpressive@boost@@UEBAXAEAU?$xpression_peeker@D@234@@Z 0000000180019850 f i GRBLdlg.obj
 0001:00018850       ?peek@?$dynamic_xpression@U?$charset_matcher@U?$regex_traits@DU?$cpp_regex_traits@D@xpressive@boost@@@xpressive@boost@@U?$bool_@$00@mpl@3@U?$compound_charset@U?$regex_traits@DU?$cpp_regex_traits@D@xpressive@boost@@@xpressive@boost@@@detail@23@@detail@xpressive@boost@@V?$_String_const_iterator@V?$_String_val@U?$_Simple_types@D@std@@@std@@@std@@@detail@xpressive@boost@@UEBAXAEAU?$xpression_peeker@D@234@@Z 0000000180019850 f i GRBLdlg.obj
 0001:00018850       ?peek@?$dynamic_xpression@Utrue_matcher@detail@xpressive@boost@@V?$_String_const_iterator@V?$_String_val@U?$_Simple_types@D@std@@@std@@@std@@@detail@xpressive@boost@@UEBAXAEAU?$xpression_peeker@D@234@@Z 0000000180019850 f i GRBLdlg.obj
 0001:00018850       ?peek@?$matchable_ex@V?$_String_const_iterator@V?$_String_val@U?$_Simple_types@D@std@@@std@@@std@@@detail@xpressive@boost@@UEBAXAEAU?$xpression_peeker@D@234@@Z 0000000180019850 f i GRBLdlg.obj
 0001:00018850       ?peek@?$dynamic_xpression@U?$repeat_end_matcher@U?$bool_@$0A@@mpl@boost@@@detail@xpressive@boost@@V?$_String_const_iterator@V?$_String_val@U?$_Simple_types@D@std@@@std@@@std@@@detail@xpressive@boost@@UEBAXAEAU?$xpression_peeker@D@234@@Z 0000000180019850 f i GRBLdlg.obj
 0001:00018850       ?peek@?$dynamic_xpression@U?$regex_byref_matcher@V?$_String_const_iterator@V?$_String_val@U?$_Simple_types@D@std@@@std@@@std@@@detail@xpressive@boost@@V?$_String_const_iterator@V?$_String_val@U?$_Simple_types@D@std@@@std@@@std@@@detail@xpressive@boost@@UEBAXAEAU?$xpression_peeker@D@234@@Z 0000000180019850 f i GRBLdlg.obj
 0001:00018850       ?peek@?$dynamic_xpression@U?$set_matcher@U?$regex_traits@DU?$cpp_regex_traits@D@xpressive@boost@@@xpressive@boost@@U?$int_@$01@mpl@3@@detail@xpressive@boost@@V?$_String_const_iterator@V?$_String_val@U?$_Simple_types@D@std@@@std@@@std@@@detail@xpressive@boost@@UEBAXAEAU?$xpression_peeker@D@234@@Z 0000000180019850 f i GRBLdlg.obj
 0001:00018850       ?peek@?$dynamic_xpression@U?$optional_mark_matcher@U?$shared_matchable@V?$_String_const_iterator@V?$_String_val@U?$_Simple_types@D@std@@@std@@@std@@@detail@xpressive@boost@@U?$bool_@$0A@@mpl@4@@detail@xpressive@boost@@V?$_String_const_iterator@V?$_String_val@U?$_Simple_types@D@std@@@std@@@std@@@detail@xpressive@boost@@UEBAXAEAU?$xpression_peeker@D@234@@Z 0000000180019850 f i GRBLdlg.obj
 0001:00018850       ?peek@?$dynamic_xpression@Ualternate_end_matcher@detail@xpressive@boost@@V?$_String_const_iterator@V?$_String_val@U?$_Simple_types@D@std@@@std@@@std@@@detail@xpressive@boost@@UEBAXAEAU?$xpression_peeker@D@234@@Z 0000000180019850 f i GRBLdlg.obj
 0001:00018850       ?peek@?$dynamic_xpression@U?$assert_word_matcher@Uword_end@detail@xpressive@boost@@U?$regex_traits@DU?$cpp_regex_traits@D@xpressive@boost@@@34@@detail@xpressive@boost@@V?$_String_const_iterator@V?$_String_val@U?$_Simple_types@D@std@@@std@@@std@@@detail@xpressive@boost@@UEBAXAEAU?$xpression_peeker@D@234@@Z 0000000180019850 f i GRBLdlg.obj
 0001:00018850       ?peek@?$dynamic_xpression@Umark_end_matcher@detail@xpressive@boost@@V?$_String_const_iterator@V?$_String_val@U?$_Simple_types@D@std@@@std@@@std@@@detail@xpressive@boost@@UEBAXAEAU?$xpression_peeker@D@234@@Z 0000000180019850 f i GRBLdlg.obj
 0001:00018850       ?peek@?$dynamic_xpression@U?$assert_eol_matcher@U?$regex_traits@DU?$cpp_regex_traits@D@xpressive@boost@@@xpressive@boost@@@detail@xpressive@boost@@V?$_String_const_iterator@V?$_String_val@U?$_Simple_types@D@std@@@std@@@std@@@detail@xpressive@boost@@UEBAXAEAU?$xpression_peeker@D@234@@Z 0000000180019850 f i GRBLdlg.obj
 0001:00018880       ?track_dependency_@?$enable_reference_tracking@U?$regex_impl@V?$_String_const_iterator@V?$_String_val@U?$_Simple_types@D@std@@@std@@@std@@@detail@xpressive@boost@@@detail@xpressive@boost@@AEAAXAEAU1234@@Z 0000000180019880 f i GRBLdlg.obj
 0001:00018b30       ?track_reference@?$enable_reference_tracking@U?$regex_impl@V?$_String_const_iterator@V?$_String_val@U?$_Simple_types@D@std@@@std@@@std@@@detail@xpressive@boost@@@detail@xpressive@boost@@QEAAXAEAU1234@@Z 0000000180019b30 f i GRBLdlg.obj
 0001:00018b80       ??_G?$matchable@V?$_String_const_iterator@V?$_String_val@U?$_Simple_types@D@std@@@std@@@std@@@detail@xpressive@boost@@UEAAPEAXI@Z 0000000180019b80 f i GRBLdlg.obj
 0001:00018b80       ??_E?$matchable@V?$_String_const_iterator@V?$_String_val@U?$_Simple_types@D@std@@@std@@@std@@@detail@xpressive@boost@@UEAAPEAXI@Z 0000000180019b80 f i * CIL library *:* CIL module *
 0001:00018bb0       ??_G?$leading_simple_repeat_finder@V?$_String_const_iterator@V?$_String_val@U?$_Simple_types@D@std@@@std@@@std@@@detail@xpressive@boost@@UEAAPEAXI@Z 0000000180019bb0 f i GRBLdlg.obj
 0001:00018bb0       ??_E?$leading_simple_repeat_finder@V?$_String_const_iterator@V?$_String_val@U?$_Simple_types@D@std@@@std@@@std@@@detail@xpressive@boost@@UEAAPEAXI@Z 0000000180019bb0 f i * CIL library *:* CIL module *
 0001:00018bb0       ??_G?$finder@V?$_String_const_iterator@V?$_String_val@U?$_Simple_types@D@std@@@std@@@std@@@detail@xpressive@boost@@UEAAPEAXI@Z 0000000180019bb0 f i GRBLdlg.obj
 0001:00018bb0       ??_E?$finder@V?$_String_const_iterator@V?$_String_val@U?$_Simple_types@D@std@@@std@@@std@@@detail@xpressive@boost@@UEAAPEAXI@Z 0000000180019bb0 f i * CIL library *:* CIL module *
 0001:00018be0       ??1?$weak_ptr@U?$regex_impl@V?$_String_const_iterator@V?$_String_val@U?$_Simple_types@D@std@@@std@@@std@@@detail@xpressive@boost@@@boost@@QEAA@XZ 0000000180019be0 f i GRBLdlg.obj
 0001:00018be0       ??1?$regex_byref_matcher@V?$_String_const_iterator@V?$_String_val@U?$_Simple_types@D@std@@@std@@@std@@@detail@xpressive@boost@@QEAA@XZ 0000000180019be0 f i GRBLdlg.obj
 0001:00018c00       ??1?$filter_iterator@U?$filter_self@U?$regex_impl@V?$_String_const_iterator@V?$_String_val@U?$_Simple_types@D@std@@@std@@@std@@@detail@xpressive@boost@@@detail@xpressive@boost@@U?$weak_iterator@U?$regex_impl@V?$_String_const_iterator@V?$_String_val@U?$_Simple_types@D@std@@@std@@@std@@@detail@xpressive@boost@@@234@@iterators@boost@@QEAA@XZ 0000000180019c00 f i GRBLdlg.obj
 0001:00018ca0       ?satisfy_@?$weak_iterator@U?$regex_impl@V?$_String_const_iterator@V?$_String_val@U?$_Simple_types@D@std@@@std@@@std@@@detail@xpressive@boost@@@detail@xpressive@boost@@AEAAXXZ 0000000180019ca0 f i GRBLdlg.obj
 0001:00018e70       ?erase@?$_Tree@V?$_Tset_traits@V?$weak_ptr@U?$regex_impl@V?$_String_const_iterator@V?$_String_val@U?$_Simple_types@D@std@@@std@@@std@@@detail@xpressive@boost@@@boost@@U?$less@V?$weak_ptr@U?$regex_impl@V?$_String_const_iterator@V?$_String_val@U?$_Simple_types@D@std@@@std@@@std@@@detail@xpressive@boost@@@boost@@@std@@V?$allocator@V?$weak_ptr@U?$regex_impl@V?$_String_const_iterator@V?$_String_val@U?$_Simple_types@D@std@@@std@@@std@@@detail@xpressive@boost@@@boost@@@4@$0A@@std@@@std@@QEAA?AV?$_Tree_const_iterator@V?$_Tree_val@U?$_Tree_simple_types@V?$weak_ptr@U?$regex_impl@V?$_String_const_iterator@V?$_String_val@U?$_Simple_types@D@std@@@std@@@std@@@detail@xpressive@boost@@@boost@@@std@@@std@@@2@V32@0@Z 0000000180019e70 f i GRBLdlg.obj
 0001:00018f40       ?erase@?$_Tree@V?$_Tset_traits@V?$shared_ptr@U?$regex_impl@V?$_String_const_iterator@V?$_String_val@U?$_Simple_types@D@std@@@std@@@std@@@detail@xpressive@boost@@@boost@@U?$less@V?$shared_ptr@U?$regex_impl@V?$_String_const_iterator@V?$_String_val@U?$_Simple_types@D@std@@@std@@@std@@@detail@xpressive@boost@@@boost@@@std@@V?$allocator@V?$shared_ptr@U?$regex_impl@V?$_String_const_iterator@V?$_String_val@U?$_Simple_types@D@std@@@std@@@std@@@detail@xpressive@boost@@@boost@@@4@$0A@@std@@@std@@QEAA?AV?$_Tree_const_iterator@V?$_Tree_val@U?$_Tree_simple_types@V?$shared_ptr@U?$regex_impl@V?$_String_const_iterator@V?$_String_val@U?$_Simple_types@D@std@@@std@@@std@@@detail@xpressive@boost@@@boost@@@std@@@std@@@2@V32@0@Z 0000000180019f40 f i GRBLdlg.obj
 0001:00019030       ?purge_stale_deps_@?$enable_reference_tracking@U?$regex_impl@V?$_String_const_iterator@V?$_String_val@U?$_Simple_types@D@std@@@std@@@std@@@detail@xpressive@boost@@@detail@xpressive@boost@@AEAAXXZ 000000018001a030 f i GRBLdlg.obj
 0001:000191a0       ?allocate@?$allocator@U?$named_mark@D@detail@xpressive@boost@@@std@@QEAAPEAU?$named_mark@D@detail@xpressive@boost@@_K@Z 000000018001a1a0 f i GRBLdlg.obj
 0001:00019230       ?clear@?$_Tree@V?$_Tset_traits@V?$weak_ptr@U?$regex_impl@V?$_String_const_iterator@V?$_String_val@U?$_Simple_types@D@std@@@std@@@std@@@detail@xpressive@boost@@@boost@@U?$less@V?$weak_ptr@U?$regex_impl@V?$_String_const_iterator@V?$_String_val@U?$_Simple_types@D@std@@@std@@@std@@@detail@xpressive@boost@@@boost@@@std@@V?$allocator@V?$weak_ptr@U?$regex_impl@V?$_String_const_iterator@V?$_String_val@U?$_Simple_types@D@std@@@std@@@std@@@detail@xpressive@boost@@@boost@@@4@$0A@@std@@@std@@QEAAXXZ 000000018001a230 f i GRBLdlg.obj
 0001:000192d0       ?erase@?$_Tree@V?$_Tset_traits@V?$weak_ptr@U?$regex_impl@V?$_String_const_iterator@V?$_String_val@U?$_Simple_types@D@std@@@std@@@std@@@detail@xpressive@boost@@@boost@@U?$less@V?$weak_ptr@U?$regex_impl@V?$_String_const_iterator@V?$_String_val@U?$_Simple_types@D@std@@@std@@@std@@@detail@xpressive@boost@@@boost@@@std@@V?$allocator@V?$weak_ptr@U?$regex_impl@V?$_String_const_iterator@V?$_String_val@U?$_Simple_types@D@std@@@std@@@std@@@detail@xpressive@boost@@@boost@@@4@$0A@@std@@@std@@QEAA?AV?$_Tree_const_iterator@V?$_Tree_val@U?$_Tree_simple_types@V?$weak_ptr@U?$regex_impl@V?$_String_const_iterator@V?$_String_val@U?$_Simple_types@D@std@@@std@@@std@@@detail@xpressive@boost@@@boost@@@std@@@std@@@2@V32@@Z 000000018001a2d0 f i GRBLdlg.obj
 0001:000197d0       ?erase@?$_Tree@V?$_Tset_traits@V?$shared_ptr@U?$regex_impl@V?$_String_const_iterator@V?$_String_val@U?$_Simple_types@D@std@@@std@@@std@@@detail@xpressive@boost@@@boost@@U?$less@V?$shared_ptr@U?$regex_impl@V?$_String_const_iterator@V?$_String_val@U?$_Simple_types@D@std@@@std@@@std@@@detail@xpressive@boost@@@boost@@@std@@V?$allocator@V?$shared_ptr@U?$regex_impl@V?$_String_const_iterator@V?$_String_val@U?$_Simple_types@D@std@@@std@@@std@@@detail@xpressive@boost@@@boost@@@4@$0A@@std@@@std@@QEAA?AV?$_Tree_const_iterator@V?$_Tree_val@U?$_Tree_simple_types@V?$shared_ptr@U?$regex_impl@V?$_String_const_iterator@V?$_String_val@U?$_Simple_types@D@std@@@std@@@std@@@detail@xpressive@boost@@@boost@@@std@@@std@@@2@V32@@Z 000000018001a7d0 f i GRBLdlg.obj
 0001:00019ce0       ?lock@?$weak_ptr@U?$regex_impl@V?$_String_const_iterator@V?$_String_val@U?$_Simple_types@D@std@@@std@@@std@@@detail@xpressive@boost@@@boost@@QEBA?AV?$shared_ptr@U?$regex_impl@V?$_String_const_iterator@V?$_String_val@U?$_Simple_types@D@std@@@std@@@std@@@detail@xpressive@boost@@@2@XZ 000000018001ace0 f i GRBLdlg.obj
 0001:00019d30       ?_Erase@?$_Tree@V?$_Tset_traits@V?$weak_ptr@U?$regex_impl@V?$_String_const_iterator@V?$_String_val@U?$_Simple_types@D@std@@@std@@@std@@@detail@xpressive@boost@@@boost@@U?$less@V?$weak_ptr@U?$regex_impl@V?$_String_const_iterator@V?$_String_val@U?$_Simple_types@D@std@@@std@@@std@@@detail@xpressive@boost@@@boost@@@std@@V?$allocator@V?$weak_ptr@U?$regex_impl@V?$_String_const_iterator@V?$_String_val@U?$_Simple_types@D@std@@@std@@@std@@@detail@xpressive@boost@@@boost@@@4@$0A@@std@@@std@@IEAAXPEAU?$_Tree_node@V?$weak_ptr@U?$regex_impl@V?$_String_const_iterator@V?$_String_val@U?$_Simple_types@D@std@@@std@@@std@@@detail@xpressive@boost@@@boost@@PEAX@2@@Z 000000018001ad30 f i GRBLdlg.obj
 0001:00019da0       ??$enable_both@Uregex_error@xpressive@boost@@@exception_detail@boost@@YA?AU?$wrapexcept@Uregex_error@xpressive@boost@@@1@AEBUregex_error@xpressive@1@@Z 000000018001ada0 f i GRBLdlg.obj
 0001:00019e40       ??$enable_error_info@Uregex_error@xpressive@boost@@@boost@@YA?AUregex_error@xpressive@0@AEBU120@@Z 000000018001ae40 f i GRBLdlg.obj
 0001:00019e60       ??$token_finder@U?$is_any_ofF@D@detail@algorithm@boost@@@algorithm@boost@@YA?AU?$token_finderF@U?$is_any_ofF@D@detail@algorithm@boost@@@detail@01@U?$is_any_ofF@D@301@W4token_compress_mode_type@01@@Z 000000018001ae60 f i GRBLdlg.obj
 0001:00019f70       ??$iter_split@V?$vector@V?$basic_string@DU?$char_traits@D@std@@V?$allocator@D@2@@std@@V?$allocator@V?$basic_string@DU?$char_traits@D@std@@V?$allocator@D@2@@std@@@2@@std@@AEAV?$basic_string@DU?$char_traits@D@std@@V?$allocator@D@2@@2@U?$token_finderF@U?$is_any_ofF@D@detail@algorithm@boost@@@detail@algorithm@boost@@@algorithm@boost@@YAAEAV?$vector@V?$basic_string@DU?$char_traits@D@std@@V?$allocator@D@2@@std@@V?$allocator@V?$basic_string@DU?$char_traits@D@std@@V?$allocator@D@2@@std@@@2@@std@@AEAV23@AEAV?$basic_string@DU?$char_traits@D@std@@V?$allocator@D@2@@3@U?$token_finderF@U?$is_any_ofF@D@detail@algorithm@boost@@@detail@01@@Z 000000018001af70 f i GRBLdlg.obj
 0001:0001a2b0       ??$trim_copy_if@V?$basic_string@DU?$char_traits@D@std@@V?$allocator@D@2@@std@@Uis_classifiedF@detail@algorithm@boost@@@algorithm@boost@@YA?AV?$basic_string@DU?$char_traits@D@std@@V?$allocator@D@2@@std@@AEBV23@Uis_classifiedF@detail@01@@Z 000000018001b2b0 f i GRBLdlg.obj
 0001:0001a410       ??$iter_split@V?$vector@V?$basic_string@DU?$char_traits@D@std@@V?$allocator@D@2@@std@@V?$allocator@V?$basic_string@DU?$char_traits@D@std@@V?$allocator@D@2@@std@@@2@@std@@AEAPEBDU?$token_finderF@U?$is_any_ofF@D@detail@algorithm@boost@@@detail@algorithm@boost@@@algorithm@boost@@YAAEAV?$vector@V?$basic_string@DU?$char_traits@D@std@@V?$allocator@D@2@@std@@V?$allocator@V?$basic_string@DU?$char_traits@D@std@@V?$allocator@D@2@@std@@@2@@std@@AEAV23@AEAPEBDU?$token_finderF@U?$is_any_ofF@D@detail@algorithm@boost@@@detail@01@@Z 000000018001b410 f i GRBLdlg.obj
 0001:0001a740       ??$regex_replace_impl@V?$back_insert_iterator@V?$basic_string@DU?$char_traits@D@std@@V?$allocator@D@2@@std@@@std@@V?$_String_const_iterator@V?$_String_val@U?$_Simple_types@D@std@@@std@@@2@PEBD@detail@xpressive@boost@@YA?AV?$back_insert_iterator@V?$basic_string@DU?$char_traits@D@std@@V?$allocator@D@2@@std@@@std@@V34@V?$_String_const_iterator@V?$_String_val@U?$_Simple_types@D@std@@@std@@@4@1AEBU?$basic_regex@V?$_String_const_iterator@V?$_String_val@U?$_Simple_types@D@std@@@std@@@std@@@12@AEBQEBDW4match_flag_type@regex_constants@12@@Z 000000018001b740 f i GRBLdlg.obj
 0001:0001aa70       ??$regex_match_impl@V?$_String_const_iterator@V?$_String_val@U?$_Simple_types@D@std@@@std@@@std@@@detail@xpressive@boost@@YA_NV?$_String_const_iterator@V?$_String_val@U?$_Simple_types@D@std@@@std@@@std@@0AEAU?$match_results@V?$_String_const_iterator@V?$_String_val@U?$_Simple_types@D@std@@@std@@@std@@@12@AEBU?$basic_regex@V?$_String_const_iterator@V?$_String_val@U?$_Simple_types@D@std@@@std@@@std@@@12@W4match_flag_type@regex_constants@12@@Z 000000018001ba70 f i GRBLdlg.obj
 0001:0001ab40       ??$compile@V?$basic_string@DU?$char_traits@D@std@@V?$allocator@D@2@@std@@@?$regex_compiler@V?$_String_const_iterator@V?$_String_val@U?$_Simple_types@D@std@@@std@@@std@@U?$regex_traits@DU?$cpp_regex_traits@D@xpressive@boost@@@xpressive@boost@@U?$compiler_traits@U?$regex_traits@DU?$cpp_regex_traits@D@xpressive@boost@@@xpressive@boost@@@45@@xpressive@boost@@QEAA?AU?$basic_regex@V?$_String_const_iterator@V?$_String_val@U?$_Simple_types@D@std@@@std@@@std@@@12@AEBV?$basic_string@DU?$char_traits@D@std@@V?$allocator@D@2@@std@@W4syntax_option_type@regex_constants@12@@Z 000000018001bb40 f i GRBLdlg.obj
 0001:0001ab90       ??$regex_search_impl@V?$_String_const_iterator@V?$_String_val@U?$_Simple_types@D@std@@@std@@@std@@@detail@xpressive@boost@@YA_NAEAU?$match_state@V?$_String_const_iterator@V?$_String_val@U?$_Simple_types@D@std@@@std@@@std@@@012@AEBU?$basic_regex@V?$_String_const_iterator@V?$_String_val@U?$_Simple_types@D@std@@@std@@@std@@@12@_N@Z 000000018001bb90 f i GRBLdlg.obj
 0001:0001ad80       ??$enable_both@Vbad_function_call@boost@@@exception_detail@boost@@YA?AU?$wrapexcept@Vbad_function_call@boost@@@1@AEBVbad_function_call@1@@Z 000000018001bd80 f i GRBLdlg.obj
 0001:0001ae20       ??$lookup_classname@U?$regex_traits@DU?$cpp_regex_traits@D@xpressive@boost@@@xpressive@boost@@$05@xpressive@boost@@YAGAEBU?$regex_traits@DU?$cpp_regex_traits@D@xpressive@boost@@@01@AEAY05$$CBD_N@Z 000000018001be20 f i GRBLdlg.obj
 0001:0001aec0       ??C?$intrusive_ptr@$$CBU?$matchable_ex@V?$_String_const_iterator@V?$_String_val@U?$_Simple_types@D@std@@@std@@@std@@@detail@xpressive@boost@@@boost@@QEBAPEBU?$matchable_ex@V?$_String_const_iterator@V?$_String_val@U?$_Simple_types@D@std@@@std@@@std@@@detail@xpressive@1@XZ 000000018001bec0 f i GRBLdlg.obj
 0001:0001aec0       ??$get_pointer@U?$regex_impl@V?$_String_const_iterator@V?$_String_val@U?$_Simple_types@D@std@@@std@@@std@@@detail@xpressive@boost@@@boost@@YAPEAU?$regex_impl@V?$_String_const_iterator@V?$_String_val@U?$_Simple_types@D@std@@@std@@@std@@@detail@xpressive@0@AEBV?$intrusive_ptr@U?$regex_impl@V?$_String_const_iterator@V?$_String_val@U?$_Simple_types@D@std@@@std@@@std@@@detail@xpressive@boost@@@0@@Z 000000018001bec0 f i GRBLdlg.obj
 0001:0001aed0       ??$fill_n@PEAU?$sub_match_impl@V?$_String_const_iterator@V?$_String_val@U?$_Simple_types@D@std@@@std@@@std@@@detail@xpressive@boost@@_KU1234@@std@@YAPEAU?$sub_match_impl@V?$_String_const_iterator@V?$_String_val@U?$_Simple_types@D@std@@@std@@@std@@@detail@xpressive@boost@@PEAU1234@_KAEBU1234@@Z 000000018001bed0 f i GRBLdlg.obj
 0001:0001af20       ??$_Copy_unchecked@PEAU?$named_mark@D@detail@xpressive@boost@@PEAU1234@@std@@YAPEAU?$named_mark@D@detail@xpressive@boost@@PEAU1234@00@Z 000000018001bf20 f i GRBLdlg.obj
 0001:0001afa0       ??$make_filter_iterator@U?$filter_self@U?$regex_impl@V?$_String_const_iterator@V?$_String_val@U?$_Simple_types@D@std@@@std@@@std@@@detail@xpressive@boost@@@detail@xpressive@boost@@U?$weak_iterator@U?$regex_impl@V?$_String_const_iterator@V?$_String_val@U?$_Simple_types@D@std@@@std@@@std@@@detail@xpressive@boost@@@234@@iterators@boost@@YA?AV?$filter_iterator@U?$filter_self@U?$regex_impl@V?$_String_const_iterator@V?$_String_val@U?$_Simple_types@D@std@@@std@@@std@@@detail@xpressive@boost@@@detail@xpressive@boost@@U?$weak_iterator@U?$regex_impl@V?$_String_const_iterator@V?$_String_val@U?$_Simple_types@D@std@@@std@@@std@@@detail@xpressive@boost@@@234@@01@U?$filter_self@U?$regex_impl@V?$_String_const_iterator@V?$_String_val@U?$_Simple_types@D@std@@@std@@@std@@@detail@xpressive@boost@@@detail@xpressive@1@U?$weak_iterator@U?$regex_impl@V?$_String_const_iterator@V?$_String_val@U?$_Simple_types@D@std@@@std@@@std@@@detail@xpressive@boost@@@451@1@Z 000000018001bfa0 f i GRBLdlg.obj
 0001:0001b0d0       ??$insert@V?$filter_iterator@U?$filter_self@U?$regex_impl@V?$_String_const_iterator@V?$_String_val@U?$_Simple_types@D@std@@@std@@@std@@@detail@xpressive@boost@@@detail@xpressive@boost@@U?$weak_iterator@U?$regex_impl@V?$_String_const_iterator@V?$_String_val@U?$_Simple_types@D@std@@@std@@@std@@@detail@xpressive@boost@@@234@@iterators@boost@@@?$_Tree@V?$_Tset_traits@V?$weak_ptr@U?$regex_impl@V?$_String_const_iterator@V?$_String_val@U?$_Simple_types@D@std@@@std@@@std@@@detail@xpressive@boost@@@boost@@U?$less@V?$weak_ptr@U?$regex_impl@V?$_String_const_iterator@V?$_String_val@U?$_Simple_types@D@std@@@std@@@std@@@detail@xpressive@boost@@@boost@@@std@@V?$allocator@V?$weak_ptr@U?$regex_impl@V?$_String_const_iterator@V?$_String_val@U?$_Simple_types@D@std@@@std@@@std@@@detail@xpressive@boost@@@boost@@@4@$0A@@std@@@std@@QEAAXV?$filter_iterator@U?$filter_self@U?$regex_impl@V?$_String_const_iterator@V?$_String_val@U?$_Simple_types@D@std@@@std@@@std@@@detail@xpressive@boost@@@detail@xpressive@boost@@U?$weak_iterator@U?$regex_impl@V?$_String_const_iterator@V?$_String_val@U?$_Simple_types@D@std@@@std@@@std@@@detail@xpressive@boost@@@234@@iterators@boost@@0@Z 000000018001c0d0 f i GRBLdlg.obj
 0001:0001b1d0       ??$insert@V?$_Tree_const_iterator@V?$_Tree_val@U?$_Tree_simple_types@V?$shared_ptr@U?$regex_impl@V?$_String_const_iterator@V?$_String_val@U?$_Simple_types@D@std@@@std@@@std@@@detail@xpressive@boost@@@boost@@@std@@@std@@@std@@@?$_Tree@V?$_Tset_traits@V?$shared_ptr@U?$regex_impl@V?$_String_const_iterator@V?$_String_val@U?$_Simple_types@D@std@@@std@@@std@@@detail@xpressive@boost@@@boost@@U?$less@V?$shared_ptr@U?$regex_impl@V?$_String_const_iterator@V?$_String_val@U?$_Simple_types@D@std@@@std@@@std@@@detail@xpressive@boost@@@boost@@@std@@V?$allocator@V?$shared_ptr@U?$regex_impl@V?$_String_const_iterator@V?$_String_val@U?$_Simple_types@D@std@@@std@@@std@@@detail@xpressive@boost@@@boost@@@4@$0A@@std@@@std@@QEAAXV?$_Tree_const_iterator@V?$_Tree_val@U?$_Tree_simple_types@V?$shared_ptr@U?$regex_impl@V?$_String_const_iterator@V?$_String_val@U?$_Simple_types@D@std@@@std@@@std@@@detail@xpressive@boost@@@boost@@@std@@@std@@@1@0@Z 000000018001c1d0 f i GRBLdlg.obj
 0001:0001b2a0       ??$?0U?$_Wrap_alloc@V?$allocator@U?$_Tree_node@V?$shared_ptr@U?$regex_impl@V?$_String_const_iterator@V?$_String_val@U?$_Simple_types@D@std@@@std@@@std@@@detail@xpressive@boost@@@boost@@PEAX@std@@@std@@@std@@@?$_Tree@V?$_Tset_traits@V?$shared_ptr@U?$regex_impl@V?$_String_const_iterator@V?$_String_val@U?$_Simple_types@D@std@@@std@@@std@@@detail@xpressive@boost@@@boost@@U?$less@V?$shared_ptr@U?$regex_impl@V?$_String_const_iterator@V?$_String_val@U?$_Simple_types@D@std@@@std@@@std@@@detail@xpressive@boost@@@boost@@@std@@V?$allocator@V?$shared_ptr@U?$regex_impl@V?$_String_const_iterator@V?$_String_val@U?$_Simple_types@D@std@@@std@@@std@@@detail@xpressive@boost@@@boost@@@4@$0A@@std@@@std@@QEAA@AEBV01@$$QEAU?$_Wrap_alloc@V?$allocator@U?$_Tree_node@V?$shared_ptr@U?$regex_impl@V?$_String_const_iterator@V?$_String_val@U?$_Simple_types@D@std@@@std@@@std@@@detail@xpressive@boost@@@boost@@PEAX@std@@@std@@@1@@Z 000000018001c2a0 f i GRBLdlg.obj
 0001:0001b370       ??_G?$results_extras@V?$_String_const_iterator@V?$_String_val@U?$_Simple_types@D@std@@@std@@@std@@@detail@xpressive@boost@@QEAAPEAXI@Z 000000018001c370 f i GRBLdlg.obj
 0001:0001b3f0       ??1?$save_restore@_N@detail@xpressive@boost@@QEAA@XZ 000000018001c3f0 f i GRBLdlg.obj
 0001:0001b400       ??0?$filter_iterator@U?$filter_self@U?$regex_impl@V?$_String_const_iterator@V?$_String_val@U?$_Simple_types@D@std@@@std@@@std@@@detail@xpressive@boost@@@detail@xpressive@boost@@U?$weak_iterator@U?$regex_impl@V?$_String_const_iterator@V?$_String_val@U?$_Simple_types@D@std@@@std@@@std@@@detail@xpressive@boost@@@234@@iterators@boost@@QEAA@U?$filter_self@U?$regex_impl@V?$_String_const_iterator@V?$_String_val@U?$_Simple_types@D@std@@@std@@@std@@@detail@xpressive@boost@@@detail@xpressive@2@U?$weak_iterator@U?$regex_impl@V?$_String_const_iterator@V?$_String_val@U?$_Simple_types@D@std@@@std@@@std@@@detail@xpressive@boost@@@452@1@Z 000000018001c400 f i GRBLdlg.obj
 0001:0001b520       ??0?$wrapexcept@Vbad_function_call@boost@@@boost@@QEAA@AEBU?$error_info_injector@Vbad_function_call@boost@@@exception_detail@1@@Z 000000018001c520 f i GRBLdlg.obj
 0001:0001b610       ??0?$wrapexcept@Uregex_error@xpressive@boost@@@boost@@QEAA@AEBUregex_error@xpressive@1@@Z 000000018001c610 f i GRBLdlg.obj
 0001:0001b700       ?reset@?$match_state@V?$_String_const_iterator@V?$_String_val@U?$_Simple_types@D@std@@@std@@@std@@@detail@xpressive@boost@@QEAAXAEAU?$match_results@V?$_String_const_iterator@V?$_String_val@U?$_Simple_types@D@std@@@std@@@std@@@34@AEBU?$regex_impl@V?$_String_const_iterator@V?$_String_val@U?$_Simple_types@D@std@@@std@@@std@@@234@@Z 000000018001c700 f i GRBLdlg.obj
 0001:0001b830       ?assign@?$basic_string@DU?$char_traits@D@std@@V?$allocator@D@2@@std@@QEAAAEAV12@V?$_String_const_iterator@V?$_String_val@U?$_Simple_types@D@std@@@std@@@2@0@Z 000000018001c830 f i GRBLdlg.obj
 0001:0001b8d0       ?satisfy_predicate@?$filter_iterator@U?$filter_self@U?$regex_impl@V?$_String_const_iterator@V?$_String_val@U?$_Simple_types@D@std@@@std@@@std@@@detail@xpressive@boost@@@detail@xpressive@boost@@U?$weak_iterator@U?$regex_impl@V?$_String_const_iterator@V?$_String_val@U?$_Simple_types@D@std@@@std@@@std@@@detail@xpressive@boost@@@234@@iterators@boost@@AEAAXXZ 000000018001c8d0 f i GRBLdlg.obj
 0001:0001b970       ?set_prefix_suffix_@?$match_results@V?$_String_const_iterator@V?$_String_val@U?$_Simple_types@D@std@@@std@@@std@@@xpressive@boost@@AEAAXV?$_String_const_iterator@V?$_String_val@U?$_Simple_types@D@std@@@std@@@std@@0@Z 000000018001c970 f i GRBLdlg.obj
 0001:0001bae0       ?match_@?$basic_regex@V?$_String_const_iterator@V?$_String_val@U?$_Simple_types@D@std@@@std@@@std@@@xpressive@boost@@AEBA_NAEAU?$match_state@V?$_String_const_iterator@V?$_String_val@U?$_Simple_types@D@std@@@std@@@std@@@detail@23@@Z 000000018001cae0 f i GRBLdlg.obj
 0001:0001bb40       ??$?0U?$token_finderF@U?$is_any_ofF@D@detail@algorithm@boost@@@detail@algorithm@boost@@@?$split_iterator@V?$_String_iterator@V?$_String_val@U?$_Simple_types@D@std@@@std@@@std@@@algorithm@boost@@QEAA@V?$_String_iterator@V?$_String_val@U?$_Simple_types@D@std@@@std@@@std@@0U?$token_finderF@U?$is_any_ofF@D@detail@algorithm@boost@@@detail@12@@Z 000000018001cb40 f i GRBLdlg.obj
 0001:0001bc80       ??$make_transform_iterator@U?$copy_iterator_rangeF@V?$basic_string@DU?$char_traits@D@std@@V?$allocator@D@2@@std@@V?$_String_iterator@V?$_String_val@U?$_Simple_types@D@std@@@std@@@2@@detail@algorithm@boost@@V?$split_iterator@V?$_String_iterator@V?$_String_val@U?$_Simple_types@D@std@@@std@@@std@@@34@@iterators@boost@@YA?AV?$transform_iterator@U?$copy_iterator_rangeF@V?$basic_string@DU?$char_traits@D@std@@V?$allocator@D@2@@std@@V?$_String_iterator@V?$_String_val@U?$_Simple_types@D@std@@@std@@@2@@detail@algorithm@boost@@V?$split_iterator@V?$_String_iterator@V?$_String_val@U?$_Simple_types@D@std@@@std@@@std@@@34@Uuse_default@4@U64@@01@V?$split_iterator@V?$_String_iterator@V?$_String_val@U?$_Simple_types@D@std@@@std@@@std@@@algorithm@1@U?$copy_iterator_rangeF@V?$basic_string@DU?$char_traits@D@std@@V?$allocator@D@2@@std@@V?$_String_iterator@V?$_String_val@U?$_Simple_types@D@std@@@std@@@2@@detail@41@@Z 000000018001cc80 f i GRBLdlg.obj
 0001:0001bc80       ??$make_transform_iterator@U?$copy_iterator_rangeF@V?$basic_string@DU?$char_traits@D@std@@V?$allocator@D@2@@std@@PEBD@detail@algorithm@boost@@V?$split_iterator@PEBD@34@@iterators@boost@@YA?AV?$transform_iterator@U?$copy_iterator_rangeF@V?$basic_string@DU?$char_traits@D@std@@V?$allocator@D@2@@std@@PEBD@detail@algorithm@boost@@V?$split_iterator@PEBD@34@Uuse_default@4@U64@@01@V?$split_iterator@PEBD@algorithm@1@U?$copy_iterator_rangeF@V?$basic_string@DU?$char_traits@D@std@@V?$allocator@D@2@@std@@PEBD@detail@41@@Z 000000018001cc80 f i GRBLdlg.obj
 0001:0001bd60       ??$?0V?$transform_iterator@U?$copy_iterator_rangeF@V?$basic_string@DU?$char_traits@D@std@@V?$allocator@D@2@@std@@V?$_String_iterator@V?$_String_val@U?$_Simple_types@D@std@@@std@@@2@@detail@algorithm@boost@@V?$split_iterator@V?$_String_iterator@V?$_String_val@U?$_Simple_types@D@std@@@std@@@std@@@34@Uuse_default@4@U64@@iterators@boost@@X@?$vector@V?$basic_string@DU?$char_traits@D@std@@V?$allocator@D@2@@std@@V?$allocator@V?$basic_string@DU?$char_traits@D@std@@V?$allocator@D@2@@std@@@2@@std@@QEAA@V?$transform_iterator@U?$copy_iterator_rangeF@V?$basic_string@DU?$char_traits@D@std@@V?$allocator@D@2@@std@@V?$_String_iterator@V?$_String_val@U?$_Simple_types@D@std@@@std@@@2@@detail@algorithm@boost@@V?$split_iterator@V?$_String_iterator@V?$_String_val@U?$_Simple_types@D@std@@@std@@@std@@@34@Uuse_default@4@U64@@iterators@boost@@0@Z 000000018001cd60 f i GRBLdlg.obj
 0001:0001bef0       ??$trim_end@V?$_String_iterator@V?$_String_val@U?$_Simple_types@D@std@@@std@@@std@@Uis_classifiedF@detail@algorithm@boost@@@detail@algorithm@boost@@YA?AV?$_String_iterator@V?$_String_val@U?$_Simple_types@D@std@@@std@@@std@@V34@0Uis_classifiedF@012@@Z 000000018001cef0 f i GRBLdlg.obj
 0001:0001bef0       ??$trim_end@V?$_String_const_iterator@V?$_String_val@U?$_Simple_types@D@std@@@std@@@std@@Uis_classifiedF@detail@algorithm@boost@@@detail@algorithm@boost@@YA?AV?$_String_const_iterator@V?$_String_val@U?$_Simple_types@D@std@@@std@@@std@@V34@0Uis_classifiedF@012@@Z 000000018001cef0 f i GRBLdlg.obj
 0001:0001bf80       ??$trim_begin@V?$_String_const_iterator@V?$_String_val@U?$_Simple_types@D@std@@@std@@@std@@Uis_classifiedF@detail@algorithm@boost@@@detail@algorithm@boost@@YA?AV?$_String_const_iterator@V?$_String_val@U?$_Simple_types@D@std@@@std@@@std@@V34@0Uis_classifiedF@012@@Z 000000018001cf80 f i GRBLdlg.obj
 0001:0001bf80       ??$trim_begin@V?$_String_iterator@V?$_String_val@U?$_Simple_types@D@std@@@std@@@std@@Uis_classifiedF@detail@algorithm@boost@@@detail@algorithm@boost@@YA?AV?$_String_iterator@V?$_String_val@U?$_Simple_types@D@std@@@std@@@std@@V34@0Uis_classifiedF@012@@Z 000000018001cf80 f i GRBLdlg.obj
 0001:0001c060       ??$?0U?$token_finderF@U?$is_any_ofF@D@detail@algorithm@boost@@@detail@algorithm@boost@@@?$split_iterator@PEBD@algorithm@boost@@QEAA@PEBD0U?$token_finderF@U?$is_any_ofF@D@detail@algorithm@boost@@@detail@12@@Z 000000018001d060 f i GRBLdlg.obj
 0001:0001c150       ??$?0V?$transform_iterator@U?$copy_iterator_rangeF@V?$basic_string@DU?$char_traits@D@std@@V?$allocator@D@2@@std@@PEBD@detail@algorithm@boost@@V?$split_iterator@PEBD@34@Uuse_default@4@U64@@iterators@boost@@X@?$vector@V?$basic_string@DU?$char_traits@D@std@@V?$allocator@D@2@@std@@V?$allocator@V?$basic_string@DU?$char_traits@D@std@@V?$allocator@D@2@@std@@@2@@std@@QEAA@V?$transform_iterator@U?$copy_iterator_rangeF@V?$basic_string@DU?$char_traits@D@std@@V?$allocator@D@2@@std@@PEBD@detail@algorithm@boost@@V?$split_iterator@PEBD@34@Uuse_default@4@U64@@iterators@boost@@0@Z 000000018001d150 f i GRBLdlg.obj
 0001:0001c2e0       ??$trim_right_if@V?$basic_string@DU?$char_traits@D@std@@V?$allocator@D@2@@std@@Uis_classifiedF@detail@algorithm@boost@@@algorithm@boost@@YAXAEAV?$basic_string@DU?$char_traits@D@std@@V?$allocator@D@2@@std@@Uis_classifiedF@detail@01@@Z 000000018001d2e0 f i GRBLdlg.obj
 0001:0001c3e0       ??$trim_left_if@V?$basic_string@DU?$char_traits@D@std@@V?$allocator@D@2@@std@@Uis_classifiedF@detail@algorithm@boost@@@algorithm@boost@@YAXAEAV?$basic_string@DU?$char_traits@D@std@@V?$allocator@D@2@@std@@Uis_classifiedF@detail@01@@Z 000000018001d3e0 f i GRBLdlg.obj
 0001:0001c4b0       ??$compile@V?$_String_const_iterator@V?$_String_val@U?$_Simple_types@D@std@@@std@@@std@@@?$regex_compiler@V?$_String_const_iterator@V?$_String_val@U?$_Simple_types@D@std@@@std@@@std@@U?$regex_traits@DU?$cpp_regex_traits@D@xpressive@boost@@@xpressive@boost@@U?$compiler_traits@U?$regex_traits@DU?$cpp_regex_traits@D@xpressive@boost@@@xpressive@boost@@@45@@xpressive@boost@@QEAA?AU?$basic_regex@V?$_String_const_iterator@V?$_String_val@U?$_Simple_types@D@std@@@std@@@std@@@12@V?$_String_const_iterator@V?$_String_val@U?$_Simple_types@D@std@@@std@@@std@@0W4syntax_option_type@regex_constants@12@@Z 000000018001d4b0 f i GRBLdlg.obj
 0001:0001c4d0       ??$enable_error_info@Vbad_function_call@boost@@@boost@@YA?AU?$error_info_injector@Vbad_function_call@boost@@@exception_detail@0@AEBVbad_function_call@0@@Z 000000018001d4d0 f i GRBLdlg.obj
 0001:0001c530       ??$lookup_classname@PEBD@?$cpp_regex_traits@D@xpressive@boost@@QEBAGPEBD0_N@Z 000000018001d530 f i GRBLdlg.obj
 0001:0001c530       ??$lookup_classname@PEAD@?$cpp_regex_traits@D@xpressive@boost@@QEBAGPEAD0_N@Z 000000018001d530 f i GRBLdlg.obj
 0001:0001c710       ??$_Insert_nohint@V?$weak_ptr@U?$regex_impl@V?$_String_const_iterator@V?$_String_val@U?$_Simple_types@D@std@@@std@@@std@@@detail@xpressive@boost@@@boost@@U_Nil@std@@@?$_Tree@V?$_Tset_traits@V?$weak_ptr@U?$regex_impl@V?$_String_const_iterator@V?$_String_val@U?$_Simple_types@D@std@@@std@@@std@@@detail@xpressive@boost@@@boost@@U?$less@V?$weak_ptr@U?$regex_impl@V?$_String_const_iterator@V?$_String_val@U?$_Simple_types@D@std@@@std@@@std@@@detail@xpressive@boost@@@boost@@@std@@V?$allocator@V?$weak_ptr@U?$regex_impl@V?$_String_const_iterator@V?$_String_val@U?$_Simple_types@D@std@@@std@@@std@@@detail@xpressive@boost@@@boost@@@4@$0A@@std@@@std@@IEAA?AU?$pair@V?$_Tree_const_iterator@V?$_Tree_val@U?$_Tree_simple_types@V?$weak_ptr@U?$regex_impl@V?$_String_const_iterator@V?$_String_val@U?$_Simple_types@D@std@@@std@@@std@@@detail@xpressive@boost@@@boost@@@std@@@std@@@std@@_N@1@_N$$QEAV?$weak_ptr@U?$regex_impl@V?$_String_const_iterator@V?$_String_val@U?$_Simple_types@D@std@@@std@@@std@@@detail@xpressive@boost@@@boost@@U_Nil@1@@Z 000000018001d710 f i GRBLdlg.obj
 0001:0001c870       ??$_Insert_nohint@AEBV?$shared_ptr@U?$regex_impl@V?$_String_const_iterator@V?$_String_val@U?$_Simple_types@D@std@@@std@@@std@@@detail@xpressive@boost@@@boost@@U_Nil@std@@@?$_Tree@V?$_Tset_traits@V?$shared_ptr@U?$regex_impl@V?$_String_const_iterator@V?$_String_val@U?$_Simple_types@D@std@@@std@@@std@@@detail@xpressive@boost@@@boost@@U?$less@V?$shared_ptr@U?$regex_impl@V?$_String_const_iterator@V?$_String_val@U?$_Simple_types@D@std@@@std@@@std@@@detail@xpressive@boost@@@boost@@@std@@V?$allocator@V?$shared_ptr@U?$regex_impl@V?$_String_const_iterator@V?$_String_val@U?$_Simple_types@D@std@@@std@@@std@@@detail@xpressive@boost@@@boost@@@4@$0A@@std@@@std@@IEAA?AU?$pair@V?$_Tree_const_iterator@V?$_Tree_val@U?$_Tree_simple_types@V?$shared_ptr@U?$regex_impl@V?$_String_const_iterator@V?$_String_val@U?$_Simple_types@D@std@@@std@@@std@@@detail@xpressive@boost@@@boost@@@std@@@std@@@std@@_N@1@_NAEBV?$shared_ptr@U?$regex_impl@V?$_String_const_iterator@V?$_String_val@U?$_Simple_types@D@std@@@std@@@std@@@detail@xpressive@boost@@@boost@@U_Nil@1@@Z 000000018001d870 f i GRBLdlg.obj
 0001:0001c9d0       ??$?RPEBD@?$token_finderF@U?$is_any_ofF@D@detail@algorithm@boost@@@detail@algorithm@boost@@QEBA?AV?$iterator_range@PEBD@3@PEBD0@Z 000000018001d9d0 f i GRBLdlg.obj
 0001:0001cb00       ??$?RV?$_String_iterator@V?$_String_val@U?$_Simple_types@D@std@@@std@@@std@@@?$token_finderF@U?$is_any_ofF@D@detail@algorithm@boost@@@detail@algorithm@boost@@QEBA?AV?$iterator_range@V?$_String_iterator@V?$_String_val@U?$_Simple_types@D@std@@@std@@@std@@@3@V?$_String_iterator@V?$_String_val@U?$_Simple_types@D@std@@@std@@@std@@0@Z 000000018001db00 f i GRBLdlg.obj
 0001:0001cc40       ?manage@?$functor_manager@P8CGRBLdlg@@EAAXXZ@function@detail@boost@@SAXAEBTfunction_buffer@234@AEAT5234@W4functor_manager_operation_type@234@@Z 000000018001dc40 f i GRBLdlg.obj
 0001:0001cc60       ?invoke@?$function_void_mem_invoker1@P8CGRBLdlg@@EAAXXZXPEAV1@@function@detail@boost@@SAXAEATfunction_buffer@234@PEAVCGRBLdlg@@@Z 000000018001dc60 f i GRBLdlg.obj
 0001:0001cc80       ?increment@?$split_iterator@PEBD@algorithm@boost@@AEAAXXZ 000000018001dc80 f i GRBLdlg.obj
 0001:0001cd20       ?increment@?$split_iterator@V?$_String_iterator@V?$_String_val@U?$_Simple_types@D@std@@@std@@@std@@@algorithm@boost@@AEAAXXZ 000000018001dd20 f i GRBLdlg.obj
 0001:0001cdc0       ??F?$_Tree_const_iterator@V?$_Tree_val@U?$_Tree_simple_types@V?$shared_ptr@U?$regex_impl@V?$_String_const_iterator@V?$_String_val@U?$_Simple_types@D@std@@@std@@@std@@@detail@xpressive@boost@@@boost@@@std@@@std@@@std@@QEAAAEAV01@XZ 000000018001ddc0 f i GRBLdlg.obj
 0001:0001cdc0       ??F?$_Tree_const_iterator@V?$_Tree_val@U?$_Tree_simple_types@U?$pair@$$CBV?$basic_string@DU?$char_traits@D@std@@V?$allocator@D@2@@std@@U?$basic_regex@V?$_String_const_iterator@V?$_String_val@U?$_Simple_types@D@std@@@std@@@std@@@xpressive@boost@@@std@@@std@@@std@@@std@@QEAAAEAV01@XZ 000000018001ddc0 f i GRBLdlg.obj
 0001:0001ce40       ?swap@?$regex_impl@V?$_String_const_iterator@V?$_String_val@U?$_Simple_types@D@std@@@std@@@std@@@detail@xpressive@boost@@QEAAXAEAU1234@@Z 000000018001de40 f i GRBLdlg.obj
 0001:0001cef0       ??R?$function2@V?$iterator_range@V?$_String_iterator@V?$_String_val@U?$_Simple_types@D@std@@@std@@@std@@@boost@@V?$_String_iterator@V?$_String_val@U?$_Simple_types@D@std@@@std@@@std@@V34@@boost@@QEBA?AV?$iterator_range@V?$_String_iterator@V?$_String_val@U?$_Simple_types@D@std@@@std@@@std@@@1@V?$_String_iterator@V?$_String_val@U?$_Simple_types@D@std@@@std@@@std@@0@Z 000000018001def0 f i GRBLdlg.obj
 0001:0001cef0       ??R?$function2@V?$iterator_range@PEBD@boost@@PEBDPEBD@boost@@QEBA?AV?$iterator_range@PEBD@1@PEBD0@Z 000000018001def0 f i GRBLdlg.obj
 0001:0001cfc0       ?manage_small@?$functor_manager_common@P8CGRBLdlg@@EAAXXZ@function@detail@boost@@SAXAEBTfunction_buffer@234@AEAT5234@W4functor_manager_operation_type@234@@Z 000000018001dfc0 f i GRBLdlg.obj
 0001:0001d040       ??$?0U?$token_finderF@U?$is_any_ofF@D@detail@algorithm@boost@@@detail@algorithm@boost@@@?$find_iterator_base@V?$_String_iterator@V?$_String_val@U?$_Simple_types@D@std@@@std@@@std@@@detail@algorithm@boost@@IEAA@U?$token_finderF@U?$is_any_ofF@D@detail@algorithm@boost@@@123@H@Z 000000018001e040 f i GRBLdlg.obj
 0001:0001d170       ??$_Construct@V?$transform_iterator@U?$copy_iterator_rangeF@V?$basic_string@DU?$char_traits@D@std@@V?$allocator@D@2@@std@@V?$_String_iterator@V?$_String_val@U?$_Simple_types@D@std@@@std@@@2@@detail@algorithm@boost@@V?$split_iterator@V?$_String_iterator@V?$_String_val@U?$_Simple_types@D@std@@@std@@@std@@@34@Uuse_default@4@U64@@iterators@boost@@@?$vector@V?$basic_string@DU?$char_traits@D@std@@V?$allocator@D@2@@std@@V?$allocator@V?$basic_string@DU?$char_traits@D@std@@V?$allocator@D@2@@std@@@2@@std@@QEAAXV?$transform_iterator@U?$copy_iterator_rangeF@V?$basic_string@DU?$char_traits@D@std@@V?$allocator@D@2@@std@@V?$_String_iterator@V?$_String_val@U?$_Simple_types@D@std@@@std@@@2@@detail@algorithm@boost@@V?$split_iterator@V?$_String_iterator@V?$_String_val@U?$_Simple_types@D@std@@@std@@@std@@@34@Uuse_default@4@U64@@iterators@boost@@0@Z 000000018001e170 f i GRBLdlg.obj
 0001:0001d2f0       ??$trim_end_iter_select@V?$_String_iterator@V?$_String_val@U?$_Simple_types@D@std@@@std@@@std@@Uis_classifiedF@detail@algorithm@boost@@@detail@algorithm@boost@@YA?AV?$_String_iterator@V?$_String_val@U?$_Simple_types@D@std@@@std@@@std@@V34@0Uis_classifiedF@012@Ubidirectional_iterator_tag@4@@Z 000000018001e2f0 f i GRBLdlg.obj
 0001:0001d2f0       ??$trim_end_iter_select@V?$_String_const_iterator@V?$_String_val@U?$_Simple_types@D@std@@@std@@@std@@Uis_classifiedF@detail@algorithm@boost@@@detail@algorithm@boost@@YA?AV?$_String_const_iterator@V?$_String_val@U?$_Simple_types@D@std@@@std@@@std@@V34@0Uis_classifiedF@012@Ubidirectional_iterator_tag@4@@Z 000000018001e2f0 f i GRBLdlg.obj
 0001:0001d3e0       ??$call_put_last@DU?$char_traits@D@std@@$$CBM@detail@io@boost@@YAXAEAV?$basic_ostream@DU?$char_traits@D@std@@@std@@PEBX@Z 000000018001e3e0 f i GRBLdlg.obj
 0001:0001d3f0       ??$call_put_last@DU?$char_traits@D@std@@$$CBH@detail@io@boost@@YAXAEAV?$basic_ostream@DU?$char_traits@D@std@@@std@@PEBX@Z 000000018001e3f0 f i GRBLdlg.obj
 0001:0001d400       ??$?0U?$token_finderF@U?$is_any_ofF@D@detail@algorithm@boost@@@detail@algorithm@boost@@@?$find_iterator_base@PEBD@detail@algorithm@boost@@IEAA@U?$token_finderF@U?$is_any_ofF@D@detail@algorithm@boost@@@123@H@Z 000000018001e400 f i GRBLdlg.obj
 0001:0001d530       ??$_Construct@V?$transform_iterator@U?$copy_iterator_rangeF@V?$basic_string@DU?$char_traits@D@std@@V?$allocator@D@2@@std@@PEBD@detail@algorithm@boost@@V?$split_iterator@PEBD@34@Uuse_default@4@U64@@iterators@boost@@@?$vector@V?$basic_string@DU?$char_traits@D@std@@V?$allocator@D@2@@std@@V?$allocator@V?$basic_string@DU?$char_traits@D@std@@V?$allocator@D@2@@std@@@2@@std@@QEAAXV?$transform_iterator@U?$copy_iterator_rangeF@V?$basic_string@DU?$char_traits@D@std@@V?$allocator@D@2@@std@@PEBD@detail@algorithm@boost@@V?$split_iterator@PEBD@34@Uuse_default@4@U64@@iterators@boost@@0@Z 000000018001e530 f i GRBLdlg.obj
 0001:0001d6b0       ??$static_compile_impl1@U?$expr@Ubitwise_or@tag@tagns_@proto@boost@@U?$list2@AEBU?$expr@Ushift_right@tag@tagns_@proto@boost@@U?$list2@AEBU?$expr@Ushift_right@tag@tagns_@proto@boost@@U?$list2@U?$expr@Uterminal@tag@tagns_@proto@boost@@U?$term@AEBD@argsns_@45@$0A@@exprns_@proto@boost@@AEBU?$expr@Udereference@tag@tagns_@proto@boost@@U?$list1@AEBU?$expr@Ucomplement@tag@tagns_@proto@boost@@U?$list1@AEBU?$expr@Uterminal@tag@tagns_@proto@boost@@U?$term@D@argsns_@45@$0A@@exprns_@proto@boost@@@argsns_@45@$00@exprns_@proto@boost@@@argsns_@45@$00@234@@argsns_@45@$01@exprns_@proto@boost@@U?$expr@Uterminal@tag@tagns_@proto@boost@@U?$term@AEBD@argsns_@45@$0A@@234@@argsns_@45@$01@exprns_@proto@boost@@AEBU?$expr@Ushift_right@tag@tagns_@proto@boost@@U?$list2@AEBU?$expr@Ubitwise_or@tag@tagns_@proto@boost@@U?$list2@AEBU?$expr@Uterminal@tag@tagns_@proto@boost@@U?$term@D@argsns_@45@$0A@@exprns_@proto@boost@@U?$expr@Uterminal@tag@tagns_@proto@boost@@U?$term@AEBD@argsns_@45@$0A@@234@@argsns_@45@$01@exprns_@proto@boost@@AEBU?$expr@Uunary_plus@tag@tagns_@proto@boost@@U?$list1@AEBU?$expr@Uterminal@tag@tagns_@proto@boost@@U?$term@Uposix_charset_placeholder@detail@xpressive@boost@@@argsns_@45@$0A@@exprns_@proto@boost@@@argsns_@45@$00@234@@argsns_@45@$01@234@@argsns_@45@$01@exprns_@proto@boost@@V?$_String_const_iterator@V?$_String_val@U?$_Simple_types@D@std@@@std@@@std@@@detail@xpressive@boost@@YAXAEBU?$expr@Ubitwise_or@tag@tagns_@proto@boost@@U?$list2@AEBU?$expr@Ushift_right@tag@tagns_@proto@boost@@U?$list2@AEBU?$expr@Ushift_right@tag@tagns_@proto@boost@@U?$list2@U?$expr@Uterminal@tag@tagns_@proto@boost@@U?$term@AEBD@argsns_@45@$0A@@exprns_@proto@boost@@AEBU?$expr@Udereference@tag@tagns_@proto@boost@@U?$list1@AEBU?$expr@Ucomplement@tag@tagns_@proto@boost@@U?$list1@AEBU?$expr@Uterminal@tag@tagns_@proto@boost@@U?$term@D@argsns_@45@$0A@@exprns_@proto@boost@@@argsns_@45@$00@exprns_@proto@boost@@@argsns_@45@$00@234@@argsns_@45@$01@exprns_@proto@boost@@U?$expr@Uterminal@tag@tagns_@proto@boost@@U?$term@AEBD@argsns_@45@$0A@@234@@argsns_@45@$01@exprns_@proto@boost@@AEBU?$expr@Ushift_right@tag@tagns_@proto@boost@@U?$list2@AEBU?$expr@Ubitwise_or@tag@tagns_@proto@boost@@U?$list2@AEBU?$expr@Uterminal@tag@tagns_@proto@boost@@U?$term@D@argsns_@45@$0A@@exprns_@proto@boost@@U?$expr@Uterminal@tag@tagns_@proto@boost@@U?$term@AEBD@argsns_@45@$0A@@234@@argsns_@45@$01@exprns_@proto@boost@@AEBU?$expr@Uunary_plus@tag@tagns_@proto@boost@@U?$list1@AEBU?$expr@Uterminal@tag@tagns_@proto@boost@@U?$term@Uposix_charset_placeholder@detail@xpressive@boost@@@argsns_@45@$0A@@exprns_@proto@boost@@@argsns_@45@$00@234@@argsns_@45@$01@234@@argsns_@45@$01@exprns_@proto@2@AEBV?$shared_ptr@U?$regex_impl@V?$_String_const_iterator@V?$_String_val@U?$_Simple_types@D@std@@@std@@@std@@@detail@xpressive@boost@@@2@@Z 000000018001e6b0 f i GRBLdlg.obj
 0001:0001d7e0       ??$static_compile_impl1@U?$expr@Ushift_right@tag@tagns_@proto@boost@@U?$list2@AEBU?$expr@Uassign@tag@tagns_@proto@boost@@U?$list2@AEBU?$expr@Uterminal@tag@tagns_@proto@boost@@U?$term@Umark_placeholder@detail@xpressive@boost@@@argsns_@45@$0A@@exprns_@proto@boost@@AEBU?$expr@Ushift_right@tag@tagns_@proto@boost@@U?$list2@AEBU?$expr@Ushift_right@tag@tagns_@proto@boost@@U?$list2@AEBU?$expr@Uterminal@tag@tagns_@proto@boost@@U?$term@Uassert_bos_matcher@detail@xpressive@boost@@@argsns_@45@$0A@@exprns_@proto@boost@@U?$expr@Uterminal@tag@tagns_@proto@boost@@U?$term@AEBD@argsns_@45@$0A@@234@@argsns_@45@$01@exprns_@proto@boost@@AEBU?$expr@Udereference@tag@tagns_@proto@boost@@U?$list1@AEBU?$expr@Uterminal@tag@tagns_@proto@boost@@U?$term@Uposix_charset_placeholder@detail@xpressive@boost@@@argsns_@45@$0A@@exprns_@proto@boost@@@argsns_@45@$00@234@@argsns_@45@$01@234@@argsns_@45@$01@exprns_@proto@boost@@AEBU?$expr@Uassign@tag@tagns_@proto@boost@@U?$list2@AEBU?$expr@Uterminal@tag@tagns_@proto@boost@@U?$term@Umark_placeholder@detail@xpressive@boost@@@argsns_@45@$0A@@exprns_@proto@boost@@AEBU?$expr@Udereference@tag@tagns_@proto@boost@@U?$list1@AEBU?$expr@Uterminal@tag@tagns_@proto@boost@@U?$term@Uany_matcher@detail@xpressive@boost@@@argsns_@45@$0A@@exprns_@proto@boost@@@argsns_@45@$00@234@@argsns_@45@$01@234@@argsns_@45@$01@exprns_@proto@boost@@V?$_String_const_iterator@V?$_String_val@U?$_Simple_types@D@std@@@std@@@std@@@detail@xpressive@boost@@YAXAEBU?$expr@Ushift_right@tag@tagns_@proto@boost@@U?$list2@AEBU?$expr@Uassign@tag@tagns_@proto@boost@@U?$list2@AEBU?$expr@Uterminal@tag@tagns_@proto@boost@@U?$term@Umark_placeholder@detail@xpressive@boost@@@argsns_@45@$0A@@exprns_@proto@boost@@AEBU?$expr@Ushift_right@tag@tagns_@proto@boost@@U?$list2@AEBU?$expr@Ushift_right@tag@tagns_@proto@boost@@U?$list2@AEBU?$expr@Uterminal@tag@tagns_@proto@boost@@U?$term@Uassert_bos_matcher@detail@xpressive@boost@@@argsns_@45@$0A@@exprns_@proto@boost@@U?$expr@Uterminal@tag@tagns_@proto@boost@@U?$term@AEBD@argsns_@45@$0A@@234@@argsns_@45@$01@exprns_@proto@boost@@AEBU?$expr@Udereference@tag@tagns_@proto@boost@@U?$list1@AEBU?$expr@Uterminal@tag@tagns_@proto@boost@@U?$term@Uposix_charset_placeholder@detail@xpressive@boost@@@argsns_@45@$0A@@exprns_@proto@boost@@@argsns_@45@$00@234@@argsns_@45@$01@234@@argsns_@45@$01@exprns_@proto@boost@@AEBU?$expr@Uassign@tag@tagns_@proto@boost@@U?$list2@AEBU?$expr@Uterminal@tag@tagns_@proto@boost@@U?$term@Umark_placeholder@detail@xpressive@boost@@@argsns_@45@$0A@@exprns_@proto@boost@@AEBU?$expr@Udereference@tag@tagns_@proto@boost@@U?$list1@AEBU?$expr@Uterminal@tag@tagns_@proto@boost@@U?$term@Uany_matcher@detail@xpressive@boost@@@argsns_@45@$0A@@exprns_@proto@boost@@@argsns_@45@$00@234@@argsns_@45@$01@234@@argsns_@45@$01@exprns_@proto@2@AEBV?$shared_ptr@U?$regex_impl@V?$_String_const_iterator@V?$_String_val@U?$_Simple_types@D@std@@@std@@@std@@@detail@xpressive@boost@@@2@@Z 000000018001e7e0 f i GRBLdlg.obj
 0001:0001d910       ??@c716278e407ead5c3ca704bb48b1e0f3@ 000000018001e910 f i GRBLdlg.obj
 0001:0001da40       ??$static_compile_impl1@U?$expr@Ushift_right@tag@tagns_@proto@boost@@U?$list2@AEBU?$expr@Ushift_right@tag@tagns_@proto@boost@@U?$list2@U?$expr@Uterminal@tag@tagns_@proto@boost@@U?$term@AEBD@argsns_@45@$0A@@exprns_@proto@boost@@AEBU?$expr@Udereference@tag@tagns_@proto@boost@@U?$list1@AEBU?$expr@Ucomplement@tag@tagns_@proto@boost@@U?$list1@AEBU?$expr@Uterminal@tag@tagns_@proto@boost@@U?$term@D@argsns_@45@$0A@@exprns_@proto@boost@@@argsns_@45@$00@exprns_@proto@boost@@@argsns_@45@$00@234@@argsns_@45@$01@exprns_@proto@boost@@U?$expr@Uterminal@tag@tagns_@proto@boost@@U?$term@AEBD@argsns_@45@$0A@@234@@argsns_@45@$01@exprns_@proto@boost@@V?$_String_const_iterator@V?$_String_val@U?$_Simple_types@D@std@@@std@@@std@@@detail@xpressive@boost@@YAXAEBU?$expr@Ushift_right@tag@tagns_@proto@boost@@U?$list2@AEBU?$expr@Ushift_right@tag@tagns_@proto@boost@@U?$list2@U?$expr@Uterminal@tag@tagns_@proto@boost@@U?$term@AEBD@argsns_@45@$0A@@exprns_@proto@boost@@AEBU?$expr@Udereference@tag@tagns_@proto@boost@@U?$list1@AEBU?$expr@Ucomplement@tag@tagns_@proto@boost@@U?$list1@AEBU?$expr@Uterminal@tag@tagns_@proto@boost@@U?$term@D@argsns_@45@$0A@@exprns_@proto@boost@@@argsns_@45@$00@exprns_@proto@boost@@@argsns_@45@$00@234@@argsns_@45@$01@exprns_@proto@boost@@U?$expr@Uterminal@tag@tagns_@proto@boost@@U?$term@AEBD@argsns_@45@$0A@@234@@argsns_@45@$01@exprns_@proto@2@AEBV?$shared_ptr@U?$regex_impl@V?$_String_const_iterator@V?$_String_val@U?$_Simple_types@D@std@@@std@@@std@@@detail@xpressive@boost@@@2@@Z 000000018001ea40 f i GRBLdlg.obj
 0001:0001db70       ??$compile_@V?$_String_const_iterator@V?$_String_val@U?$_Simple_types@D@std@@@std@@@std@@@?$regex_compiler@V?$_String_const_iterator@V?$_String_val@U?$_Simple_types@D@std@@@std@@@std@@U?$regex_traits@DU?$cpp_regex_traits@D@xpressive@boost@@@xpressive@boost@@U?$compiler_traits@U?$regex_traits@DU?$cpp_regex_traits@D@xpressive@boost@@@xpressive@boost@@@45@@xpressive@boost@@AEAA?AU?$basic_regex@V?$_String_const_iterator@V?$_String_val@U?$_Simple_types@D@std@@@std@@@std@@@12@V?$_String_const_iterator@V?$_String_val@U?$_Simple_types@D@std@@@std@@@std@@0W4syntax_option_type@regex_constants@12@Uforward_iterator_tag@5@@Z 000000018001eb70 f i GRBLdlg.obj
 0001:0001e050       ??$lookup_classname_impl_@PEAD@?$cpp_regex_traits@D@xpressive@boost@@CAGPEAD0@Z 000000018001f050 f i GRBLdlg.obj
 0001:0001e050       ??$lookup_classname_impl_@PEBD@?$cpp_regex_traits@D@xpressive@boost@@CAGPEBD0@Z 000000018001f050 f i GRBLdlg.obj
 0001:0001e0d0       ??$?0U?$regex_impl@V?$_String_const_iterator@V?$_String_val@U?$_Simple_types@D@std@@@std@@@std@@@detail@xpressive@boost@@@shared_count@detail@boost@@QEAA@PEAU?$regex_impl@V?$_String_const_iterator@V?$_String_val@U?$_Simple_types@D@std@@@std@@@std@@@1xpressive@2@@Z 000000018001f0d0 f i GRBLdlg.obj
 0001:0001e140       ??$_Insert_at@V?$weak_ptr@U?$regex_impl@V?$_String_const_iterator@V?$_String_val@U?$_Simple_types@D@std@@@std@@@std@@@detail@xpressive@boost@@@boost@@U_Nil@std@@@?$_Tree@V?$_Tset_traits@V?$weak_ptr@U?$regex_impl@V?$_String_const_iterator@V?$_String_val@U?$_Simple_types@D@std@@@std@@@std@@@detail@xpressive@boost@@@boost@@U?$less@V?$weak_ptr@U?$regex_impl@V?$_String_const_iterator@V?$_String_val@U?$_Simple_types@D@std@@@std@@@std@@@detail@xpressive@boost@@@boost@@@std@@V?$allocator@V?$weak_ptr@U?$regex_impl@V?$_String_const_iterator@V?$_String_val@U?$_Simple_types@D@std@@@std@@@std@@@detail@xpressive@boost@@@boost@@@4@$0A@@std@@@std@@IEAA?AV?$_Tree_const_iterator@V?$_Tree_val@U?$_Tree_simple_types@V?$weak_ptr@U?$regex_impl@V?$_String_const_iterator@V?$_String_val@U?$_Simple_types@D@std@@@std@@@std@@@detail@xpressive@boost@@@boost@@@std@@@std@@@1@_NPEAU?$_Tree_node@V?$weak_ptr@U?$regex_impl@V?$_String_const_iterator@V?$_String_val@U?$_Simple_types@D@std@@@std@@@std@@@detail@xpressive@boost@@@boost@@PEAX@1@$$QEAV?$weak_ptr@U?$regex_impl@V?$_String_const_iterator@V?$_String_val@U?$_Simple_types@D@std@@@std@@@std@@@detail@xpressive@boost@@@boost@@U_Nil@1@@Z 000000018001f140 f i GRBLdlg.obj
 0001:0001e410       ??$_Buynode@AEBV?$shared_ptr@U?$regex_impl@V?$_String_const_iterator@V?$_String_val@U?$_Simple_types@D@std@@@std@@@std@@@detail@xpressive@boost@@@boost@@@?$_Tree_comp_alloc@V?$_Tset_traits@V?$weak_ptr@U?$regex_impl@V?$_String_const_iterator@V?$_String_val@U?$_Simple_types@D@std@@@std@@@std@@@detail@xpressive@boost@@@boost@@U?$less@V?$weak_ptr@U?$regex_impl@V?$_String_const_iterator@V?$_String_val@U?$_Simple_types@D@std@@@std@@@std@@@detail@xpressive@boost@@@boost@@@std@@V?$allocator@V?$weak_ptr@U?$regex_impl@V?$_String_const_iterator@V?$_String_val@U?$_Simple_types@D@std@@@std@@@std@@@detail@xpressive@boost@@@boost@@@4@$0A@@std@@@std@@QEAAPEAU?$_Tree_node@V?$weak_ptr@U?$regex_impl@V?$_String_const_iterator@V?$_String_val@U?$_Simple_types@D@std@@@std@@@std@@@detail@xpressive@boost@@@boost@@PEAX@1@AEBV?$shared_ptr@U?$regex_impl@V?$_String_const_iterator@V?$_String_val@U?$_Simple_types@D@std@@@std@@@std@@@detail@xpressive@boost@@@boost@@@Z 000000018001f410 f i GRBLdlg.obj
 0001:0001e460       ??$_Insert_hint@AEAV?$weak_ptr@U?$regex_impl@V?$_String_const_iterator@V?$_String_val@U?$_Simple_types@D@std@@@std@@@std@@@detail@xpressive@boost@@@boost@@PEAU?$_Tree_node@V?$weak_ptr@U?$regex_impl@V?$_String_const_iterator@V?$_String_val@U?$_Simple_types@D@std@@@std@@@std@@@detail@xpressive@boost@@@boost@@PEAX@std@@@?$_Tree@V?$_Tset_traits@V?$weak_ptr@U?$regex_impl@V?$_String_const_iterator@V?$_String_val@U?$_Simple_types@D@std@@@std@@@std@@@detail@xpressive@boost@@@boost@@U?$less@V?$weak_ptr@U?$regex_impl@V?$_String_const_iterator@V?$_String_val@U?$_Simple_types@D@std@@@std@@@std@@@detail@xpressive@boost@@@boost@@@std@@V?$allocator@V?$weak_ptr@U?$regex_impl@V?$_String_const_iterator@V?$_String_val@U?$_Simple_types@D@std@@@std@@@std@@@detail@xpressive@boost@@@boost@@@4@$0A@@std@@@std@@IEAA?AV?$_Tree_const_iterator@V?$_Tree_val@U?$_Tree_simple_types@V?$weak_ptr@U?$regex_impl@V?$_String_const_iterator@V?$_String_val@U?$_Simple_types@D@std@@@std@@@std@@@detail@xpressive@boost@@@boost@@@std@@@std@@@1@V21@AEAV?$weak_ptr@U?$regex_impl@V?$_String_const_iterator@V?$_String_val@U?$_Simple_types@D@std@@@std@@@std@@@detail@xpressive@boost@@@boost@@PEAU?$_Tree_node@V?$weak_ptr@U?$regex_impl@V?$_String_const_iterator@V?$_String_val@U?$_Simple_types@D@std@@@std@@@std@@@detail@xpressive@boost@@@boost@@PEAX@1@@Z 000000018001f460 f i GRBLdlg.obj
 0001:0001e6c0       ??$_Insert_at@AEBV?$shared_ptr@U?$regex_impl@V?$_String_const_iterator@V?$_String_val@U?$_Simple_types@D@std@@@std@@@std@@@detail@xpressive@boost@@@boost@@U_Nil@std@@@?$_Tree@V?$_Tset_traits@V?$shared_ptr@U?$regex_impl@V?$_String_const_iterator@V?$_String_val@U?$_Simple_types@D@std@@@std@@@std@@@detail@xpressive@boost@@@boost@@U?$less@V?$shared_ptr@U?$regex_impl@V?$_String_const_iterator@V?$_String_val@U?$_Simple_types@D@std@@@std@@@std@@@detail@xpressive@boost@@@boost@@@std@@V?$allocator@V?$shared_ptr@U?$regex_impl@V?$_String_const_iterator@V?$_String_val@U?$_Simple_types@D@std@@@std@@@std@@@detail@xpressive@boost@@@boost@@@4@$0A@@std@@@std@@IEAA?AV?$_Tree_const_iterator@V?$_Tree_val@U?$_Tree_simple_types@V?$shared_ptr@U?$regex_impl@V?$_String_const_iterator@V?$_String_val@U?$_Simple_types@D@std@@@std@@@std@@@detail@xpressive@boost@@@boost@@@std@@@std@@@1@_NPEAU?$_Tree_node@V?$shared_ptr@U?$regex_impl@V?$_String_const_iterator@V?$_String_val@U?$_Simple_types@D@std@@@std@@@std@@@detail@xpressive@boost@@@boost@@PEAX@1@AEBV?$shared_ptr@U?$regex_impl@V?$_String_const_iterator@V?$_String_val@U?$_Simple_types@D@std@@@std@@@std@@@detail@xpressive@boost@@@boost@@U_Nil@1@@Z 000000018001f6c0 f i GRBLdlg.obj
 0001:0001e990       ??$_Buynode@AEAV?$shared_ptr@U?$regex_impl@V?$_String_const_iterator@V?$_String_val@U?$_Simple_types@D@std@@@std@@@std@@@detail@xpressive@boost@@@boost@@@?$_Tree_comp_alloc@V?$_Tset_traits@V?$shared_ptr@U?$regex_impl@V?$_String_const_iterator@V?$_String_val@U?$_Simple_types@D@std@@@std@@@std@@@detail@xpressive@boost@@@boost@@U?$less@V?$shared_ptr@U?$regex_impl@V?$_String_const_iterator@V?$_String_val@U?$_Simple_types@D@std@@@std@@@std@@@detail@xpressive@boost@@@boost@@@std@@V?$allocator@V?$shared_ptr@U?$regex_impl@V?$_String_const_iterator@V?$_String_val@U?$_Simple_types@D@std@@@std@@@std@@@detail@xpressive@boost@@@boost@@@4@$0A@@std@@@std@@QEAAPEAU?$_Tree_node@V?$shared_ptr@U?$regex_impl@V?$_String_const_iterator@V?$_String_val@U?$_Simple_types@D@std@@@std@@@std@@@detail@xpressive@boost@@@boost@@PEAX@1@AEAV?$shared_ptr@U?$regex_impl@V?$_String_const_iterator@V?$_String_val@U?$_Simple_types@D@std@@@std@@@std@@@detail@xpressive@boost@@@boost@@@Z 000000018001f990 f i GRBLdlg.obj
 0001:0001e990       ??$_Buynode@AEBV?$shared_ptr@U?$regex_impl@V?$_String_const_iterator@V?$_String_val@U?$_Simple_types@D@std@@@std@@@std@@@detail@xpressive@boost@@@boost@@@?$_Tree_comp_alloc@V?$_Tset_traits@V?$shared_ptr@U?$regex_impl@V?$_String_const_iterator@V?$_String_val@U?$_Simple_types@D@std@@@std@@@std@@@detail@xpressive@boost@@@boost@@U?$less@V?$shared_ptr@U?$regex_impl@V?$_String_const_iterator@V?$_String_val@U?$_Simple_types@D@std@@@std@@@std@@@detail@xpressive@boost@@@boost@@@std@@V?$allocator@V?$shared_ptr@U?$regex_impl@V?$_String_const_iterator@V?$_String_val@U?$_Simple_types@D@std@@@std@@@std@@@detail@xpressive@boost@@@boost@@@4@$0A@@std@@@std@@QEAAPEAU?$_Tree_node@V?$shared_ptr@U?$regex_impl@V?$_String_const_iterator@V?$_String_val@U?$_Simple_types@D@std@@@std@@@std@@@detail@xpressive@boost@@@boost@@PEAX@1@AEBV?$shared_ptr@U?$regex_impl@V?$_String_const_iterator@V?$_String_val@U?$_Simple_types@D@std@@@std@@@std@@@detail@xpressive@boost@@@boost@@@Z 000000018001f990 f i GRBLdlg.obj
 0001:0001e9e0       ??$_Insert_hint@AEAV?$shared_ptr@U?$regex_impl@V?$_String_const_iterator@V?$_String_val@U?$_Simple_types@D@std@@@std@@@std@@@detail@xpressive@boost@@@boost@@PEAU?$_Tree_node@V?$shared_ptr@U?$regex_impl@V?$_String_const_iterator@V?$_String_val@U?$_Simple_types@D@std@@@std@@@std@@@detail@xpressive@boost@@@boost@@PEAX@std@@@?$_Tree@V?$_Tset_traits@V?$shared_ptr@U?$regex_impl@V?$_String_const_iterator@V?$_String_val@U?$_Simple_types@D@std@@@std@@@std@@@detail@xpressive@boost@@@boost@@U?$less@V?$shared_ptr@U?$regex_impl@V?$_String_const_iterator@V?$_String_val@U?$_Simple_types@D@std@@@std@@@std@@@detail@xpressive@boost@@@boost@@@std@@V?$allocator@V?$shared_ptr@U?$regex_impl@V?$_String_const_iterator@V?$_String_val@U?$_Simple_types@D@std@@@std@@@std@@@detail@xpressive@boost@@@boost@@@4@$0A@@std@@@std@@IEAA?AV?$_Tree_const_iterator@V?$_Tree_val@U?$_Tree_simple_types@V?$shared_ptr@U?$regex_impl@V?$_String_const_iterator@V?$_String_val@U?$_Simple_types@D@std@@@std@@@std@@@detail@xpressive@boost@@@boost@@@std@@@std@@@1@V21@AEAV?$shared_ptr@U?$regex_impl@V?$_String_const_iterator@V?$_String_val@U?$_Simple_types@D@std@@@std@@@std@@@detail@xpressive@boost@@@boost@@PEAU?$_Tree_node@V?$shared_ptr@U?$regex_impl@V?$_String_const_iterator@V?$_String_val@U?$_Simple_types@D@std@@@std@@@std@@@detail@xpressive@boost@@@boost@@PEAX@1@@Z 000000018001f9e0 f i GRBLdlg.obj
 0001:0001ec00       ??$_Copy_nodes@U_Copy_tag@?$_Tree@V?$_Tset_traits@V?$shared_ptr@U?$regex_impl@V?$_String_const_iterator@V?$_String_val@U?$_Simple_types@D@std@@@std@@@std@@@detail@xpressive@boost@@@boost@@U?$less@V?$shared_ptr@U?$regex_impl@V?$_String_const_iterator@V?$_String_val@U?$_Simple_types@D@std@@@std@@@std@@@detail@xpressive@boost@@@boost@@@std@@V?$allocator@V?$shared_ptr@U?$regex_impl@V?$_String_const_iterator@V?$_String_val@U?$_Simple_types@D@std@@@std@@@std@@@detail@xpressive@boost@@@boost@@@4@$0A@@std@@@std@@@?$_Tree@V?$_Tset_traits@V?$shared_ptr@U?$regex_impl@V?$_String_const_iterator@V?$_String_val@U?$_Simple_types@D@std@@@std@@@std@@@detail@xpressive@boost@@@boost@@U?$less@V?$shared_ptr@U?$regex_impl@V?$_String_const_iterator@V?$_String_val@U?$_Simple_types@D@std@@@std@@@std@@@detail@xpressive@boost@@@boost@@@std@@V?$allocator@V?$shared_ptr@U?$regex_impl@V?$_String_const_iterator@V?$_String_val@U?$_Simple_types@D@std@@@std@@@std@@@detail@xpressive@boost@@@boost@@@4@$0A@@std@@@std@@IEAAPEAU?$_Tree_node@V?$shared_ptr@U?$regex_impl@V?$_String_const_iterator@V?$_String_val@U?$_Simple_types@D@std@@@std@@@std@@@detail@xpressive@boost@@@boost@@PEAX@1@PEAU21@0U_Copy_tag@01@@Z 000000018001fc00 f i GRBLdlg.obj
 0001:0001eca0       ??1?$sequence@V?$_String_const_iterator@V?$_String_val@U?$_Simple_types@D@std@@@std@@@std@@@detail@xpressive@boost@@QEAA@XZ 000000018001fca0 f i GRBLdlg.obj
 0001:0001ed40       ?dispose@?$sp_counted_impl_p@U?$regex_impl@V?$_String_const_iterator@V?$_String_val@U?$_Simple_types@D@std@@@std@@@std@@@detail@xpressive@boost@@@detail@boost@@UEAAXXZ 000000018001fd40 f i GRBLdlg.obj
 0001:0001ed70       ?in_range@?$traits_holder@U?$cpp_regex_traits@D@xpressive@boost@@@detail@xpressive@boost@@UEBA_NDDD@Z 000000018001fd70 f i GRBLdlg.obj
 0001:0001ed70       ?in_range@?$traits_holder@U?$regex_traits@DU?$cpp_regex_traits@D@xpressive@boost@@@xpressive@boost@@@detail@xpressive@boost@@UEBA_NDDD@Z 000000018001fd70 f i GRBLdlg.obj
 0001:0001ed80       ?value@?$traits_holder@U?$cpp_regex_traits@D@xpressive@boost@@@detail@xpressive@boost@@UEBAHDH@Z 000000018001fd80 f i GRBLdlg.obj
 0001:0001ed80       ?value@?$traits_holder@U?$regex_traits@DU?$cpp_regex_traits@D@xpressive@boost@@@xpressive@boost@@@detail@xpressive@boost@@UEBAHDH@Z 000000018001fd80 f i GRBLdlg.obj
 0001:0001ed90       ?toupper@?$traits_holder@U?$cpp_regex_traits@D@xpressive@boost@@@detail@xpressive@boost@@UEBADD@Z 000000018001fd90 f i GRBLdlg.obj
 0001:0001ed90       ?toupper@?$traits_holder@U?$regex_traits@DU?$cpp_regex_traits@D@xpressive@boost@@@xpressive@boost@@@detail@xpressive@boost@@UEBADD@Z 000000018001fd90 f i GRBLdlg.obj
 0001:0001eda0       ?tolower@?$traits_holder@U?$cpp_regex_traits@D@xpressive@boost@@@detail@xpressive@boost@@UEBADD@Z 000000018001fda0 f i GRBLdlg.obj
 0001:0001eda0       ?tolower@?$traits_holder@U?$regex_traits@DU?$cpp_regex_traits@D@xpressive@boost@@@xpressive@boost@@@detail@xpressive@boost@@UEBADD@Z 000000018001fda0 f i GRBLdlg.obj
 0001:0001edb0       ??A?$map@V?$basic_string@DU?$char_traits@D@std@@V?$allocator@D@2@@std@@U?$basic_regex@V?$_String_const_iterator@V?$_String_val@U?$_Simple_types@D@std@@@std@@@std@@@xpressive@boost@@U?$less@V?$basic_string@DU?$char_traits@D@std@@V?$allocator@D@2@@std@@@2@V?$allocator@U?$pair@$$CBV?$basic_string@DU?$char_traits@D@std@@V?$allocator@D@2@@std@@U?$basic_regex@V?$_String_const_iterator@V?$_String_val@U?$_Simple_types@D@std@@@std@@@std@@@xpressive@boost@@@std@@@2@@std@@QEAAAEAU?$basic_regex@V?$_String_const_iterator@V?$_String_val@U?$_Simple_types@D@std@@@std@@@std@@@xpressive@boost@@AEBV?$basic_string@DU?$char_traits@D@std@@V?$allocator@D@2@@1@@Z 000000018001fdb0 f i GRBLdlg.obj
 0001:0001ee70       ??Y?$sequence@V?$_String_const_iterator@V?$_String_val@U?$_Simple_types@D@std@@@std@@@std@@@detail@xpressive@boost@@QEAAAEAU0123@AEBU0123@@Z 000000018001fe70 f i GRBLdlg.obj
 0001:0001ef30       ?_Buynode0@?$_Tree_comp_alloc@V?$_Tset_traits@V?$weak_ptr@U?$regex_impl@V?$_String_const_iterator@V?$_String_val@U?$_Simple_types@D@std@@@std@@@std@@@detail@xpressive@boost@@@boost@@U?$less@V?$weak_ptr@U?$regex_impl@V?$_String_const_iterator@V?$_String_val@U?$_Simple_types@D@std@@@std@@@std@@@detail@xpressive@boost@@@boost@@@std@@V?$allocator@V?$weak_ptr@U?$regex_impl@V?$_String_const_iterator@V?$_String_val@U?$_Simple_types@D@std@@@std@@@std@@@detail@xpressive@boost@@@boost@@@4@$0A@@std@@@std@@QEAAPEAU?$_Tree_node@V?$weak_ptr@U?$regex_impl@V?$_String_const_iterator@V?$_String_val@U?$_Simple_types@D@std@@@std@@@std@@@detail@xpressive@boost@@@boost@@PEAX@2@XZ 000000018001ff30 f i GRBLdlg.obj
 0001:0001ef30       ?_Buynode0@?$_Tree_comp_alloc@V?$_Tmap_traits@PEBVtype_info@@PEAXUtype_info_less@detail@xpressive@boost@@V?$allocator@U?$pair@QEBVtype_info@@PEAX@std@@@std@@$0A@@std@@@std@@QEAAPEAU?$_Tree_node@U?$pair@QEBVtype_info@@PEAX@std@@PEAX@2@XZ 000000018001ff30 f i GRBLdlg.obj
 0001:0001ef30       ?_Buynode0@?$_Tree_comp_alloc@V?$_Tset_traits@V?$shared_ptr@U?$regex_impl@V?$_String_const_iterator@V?$_String_val@U?$_Simple_types@D@std@@@std@@@std@@@detail@xpressive@boost@@@boost@@U?$less@V?$shared_ptr@U?$regex_impl@V?$_String_const_iterator@V?$_String_val@U?$_Simple_types@D@std@@@std@@@std@@@detail@xpressive@boost@@@boost@@@std@@V?$allocator@V?$shared_ptr@U?$regex_impl@V?$_String_const_iterator@V?$_String_val@U?$_Simple_types@D@std@@@std@@@std@@@detail@xpressive@boost@@@boost@@@4@$0A@@std@@@std@@QEAAPEAU?$_Tree_node@V?$shared_ptr@U?$regex_impl@V?$_String_const_iterator@V?$_String_val@U?$_Simple_types@D@std@@@std@@@std@@@detail@xpressive@boost@@@boost@@PEAX@2@XZ 000000018001ff30 f i GRBLdlg.obj
 0001:0001ef80       ??_E?$sp_counted_impl_p@V?$clone_impl@Ubad_alloc_@exception_detail@boost@@@exception_detail@boost@@@detail@boost@@UEAAPEAXI@Z 000000018001ff80 f i * CIL library *:* CIL module *
 0001:0001ef80       ??_G?$sp_counted_impl_p@V?$clone_impl@Ubad_alloc_@exception_detail@boost@@@exception_detail@boost@@@detail@boost@@UEAAPEAXI@Z 000000018001ff80 f i SerialPort.obj
 0001:0001ef80       ??_E?$sp_counted_impl_p@U?$regex_impl@V?$_String_const_iterator@V?$_String_val@U?$_Simple_types@D@std@@@std@@@std@@@detail@xpressive@boost@@@detail@boost@@UEAAPEAXI@Z 000000018001ff80 f i * CIL library *:* CIL module *
 0001:0001ef80       ??_G?$sp_counted_impl_p@U?$regex_impl@V?$_String_const_iterator@V?$_String_val@U?$_Simple_types@D@std@@@std@@@std@@@detail@xpressive@boost@@@detail@boost@@UEAAPEAXI@Z 000000018001ff80 f i GRBLdlg.obj
 0001:0001ef80       ??_G?$sp_counted_impl_p@V?$clone_impl@Ubad_exception_@exception_detail@boost@@@exception_detail@boost@@@detail@boost@@UEAAPEAXI@Z 000000018001ff80 f i SerialPort.obj
 0001:0001ef80       ??_E?$sp_counted_impl_p@V?$clone_impl@Ubad_exception_@exception_detail@boost@@@exception_detail@boost@@@detail@boost@@UEAAPEAXI@Z 000000018001ff80 f i * CIL library *:* CIL module *
 0001:0001efb0       ??_E?$traits_holder@U?$cpp_regex_traits@D@xpressive@boost@@@detail@xpressive@boost@@UEAAPEAXI@Z 000000018001ffb0 f i * CIL library *:* CIL module *
 0001:0001efb0       ??_E?$traits_holder@U?$regex_traits@DU?$cpp_regex_traits@D@xpressive@boost@@@xpressive@boost@@@detail@xpressive@boost@@UEAAPEAXI@Z 000000018001ffb0 f i * CIL library *:* CIL module *
 0001:0001efb0       ??_G?$traits_holder@U?$cpp_regex_traits@D@xpressive@boost@@@detail@xpressive@boost@@UEAAPEAXI@Z 000000018001ffb0 f i GRBLdlg.obj
 0001:0001efb0       ??_G?$traits_holder@U?$regex_traits@DU?$cpp_regex_traits@D@xpressive@boost@@@xpressive@boost@@@detail@xpressive@boost@@UEAAPEAXI@Z 000000018001ffb0 f i GRBLdlg.obj
 0001:0001f020       ??4?$sequence@V?$_String_const_iterator@V?$_String_val@U?$_Simple_types@D@std@@@std@@@std@@@detail@xpressive@boost@@QEAAAEAU0123@AEBU0123@@Z 0000000180020020 f i GRBLdlg.obj
 0001:0001f110       ??4?$shared_matchable@V?$_String_const_iterator@V?$_String_val@U?$_Simple_types@D@std@@@std@@@std@@@detail@xpressive@boost@@QEAAAEAU0123@AEBU0123@@Z 0000000180020110 f i GRBLdlg.obj
 0001:0001f170       ?repeat@?$dynamic_xpression@Ualternate_end_matcher@detail@xpressive@boost@@V?$_String_const_iterator@V?$_String_val@U?$_Simple_types@D@std@@@std@@@std@@@detail@xpressive@boost@@UEBAXAEBUquant_spec@234@AEAU?$sequence@V?$_String_const_iterator@V?$_String_val@U?$_Simple_types@D@std@@@std@@@std@@@234@@Z 0000000180020170 f i GRBLdlg.obj
 0001:0001f180       ?link@?$dynamic_xpression@Ualternate_end_matcher@detail@xpressive@boost@@V?$_String_const_iterator@V?$_String_val@U?$_Simple_types@D@std@@@std@@@std@@@detail@xpressive@boost@@UEBAXAEAU?$xpression_linker@D@234@@Z 0000000180020180 f i GRBLdlg.obj
 0001:0001f210       ?match@?$dynamic_xpression@Ualternate_end_matcher@detail@xpressive@boost@@V?$_String_const_iterator@V?$_String_val@U?$_Simple_types@D@std@@@std@@@std@@@detail@xpressive@boost@@UEBA_NAEAU?$match_state@V?$_String_const_iterator@V?$_String_val@U?$_Simple_types@D@std@@@std@@@std@@@234@@Z 0000000180020210 f i GRBLdlg.obj
 0001:0001f220       ?value@?$cpp_regex_traits@D@xpressive@boost@@QEBAHDH@Z 0000000180020220 f i GRBLdlg.obj
 0001:0001f3a0       ??_D?$basic_stringstream@DU?$char_traits@D@std@@V?$allocator@D@2@@std@@QEAAXXZ 00000001800203a0 f i GRBLdlg.obj
 0001:0001f3d0       ?repeat_@?$dynamic_xpression@Ualternate_end_matcher@detail@xpressive@boost@@V?$_String_const_iterator@V?$_String_val@U?$_Simple_types@D@std@@@std@@@std@@@detail@xpressive@boost@@AEBAXAEBUquant_spec@234@AEAU?$sequence@V?$_String_const_iterator@V?$_String_val@U?$_Simple_types@D@std@@@std@@@std@@@234@U?$int_@$0A@@mpl@4@U?$bool_@$0A@@84@@Z 00000001800203d0 f i GRBLdlg.obj
 0001:0001f510       ?getloc@?$cpp_regex_traits@D@xpressive@boost@@QEBA?AVlocale@std@@XZ 0000000180020510 f i GRBLdlg.obj
 0001:0001f540       ??1?$basic_stringstream@DU?$char_traits@D@std@@V?$allocator@D@2@@std@@UEAA@XZ 0000000180020540 f i GRBLdlg.obj
 0001:0001f5c0       ??0?$basic_stringstream@DU?$char_traits@D@std@@V?$allocator@D@2@@std@@QEAA@H@Z 00000001800205c0 f i GRBLdlg.obj
 0001:0001f680       ??_E?$basic_stringstream@DU?$char_traits@D@std@@V?$allocator@D@2@@std@@UEAAPEAXI@Z 0000000180020680 f i * CIL library *:* CIL module *
 0001:0001f680       ??_G?$basic_stringstream@DU?$char_traits@D@std@@V?$allocator@D@2@@std@@UEAAPEAXI@Z 0000000180020680 f i GRBLdlg.obj
 0001:0001f6d0       ??4?$tracking_ptr@U?$regex_impl@V?$_String_const_iterator@V?$_String_val@U?$_Simple_types@D@std@@@std@@@std@@@detail@xpressive@boost@@@detail@xpressive@boost@@QEAAAEAU0123@AEBU0123@@Z 00000001800206d0 f i GRBLdlg.obj
 0001:0001f790       ??G?$_Deque_iterator@V?$_Deque_val@U?$_Deque_simple_types@PEBX@std@@@std@@@std@@QEBA?AV01@_J@Z 0000000180020790 f i GRBLdlg.obj
 0001:0001f7e0       ?end@?$deque@PEBXV?$allocator@PEBX@std@@@std@@QEAA?AV?$_Deque_iterator@V?$_Deque_val@U?$_Deque_simple_types@PEBX@std@@@std@@@2@XZ 00000001800207e0 f i GRBLdlg.obj
 0001:0001f800       ??$_Construct@V?$transform_iterator@U?$copy_iterator_rangeF@V?$basic_string@DU?$char_traits@D@std@@V?$allocator@D@2@@std@@V?$_String_iterator@V?$_String_val@U?$_Simple_types@D@std@@@std@@@2@@detail@algorithm@boost@@V?$split_iterator@V?$_String_iterator@V?$_String_val@U?$_Simple_types@D@std@@@std@@@std@@@34@Uuse_default@4@U64@@iterators@boost@@@?$vector@V?$basic_string@DU?$char_traits@D@std@@V?$allocator@D@2@@std@@V?$allocator@V?$basic_string@DU?$char_traits@D@std@@V?$allocator@D@2@@std@@@2@@std@@QEAAXV?$transform_iterator@U?$copy_iterator_rangeF@V?$basic_string@DU?$char_traits@D@std@@V?$allocator@D@2@@std@@V?$_String_iterator@V?$_String_val@U?$_Simple_types@D@std@@@std@@@2@@detail@algorithm@boost@@V?$split_iterator@V?$_String_iterator@V?$_String_val@U?$_Simple_types@D@std@@@std@@@std@@@34@Uuse_default@4@U64@@iterators@boost@@0Uinput_iterator_tag@1@@Z 0000000180020800 f i GRBLdlg.obj
 0001:0001f990       ??$_Construct@V?$transform_iterator@U?$copy_iterator_rangeF@V?$basic_string@DU?$char_traits@D@std@@V?$allocator@D@2@@std@@PEBD@detail@algorithm@boost@@V?$split_iterator@PEBD@34@Uuse_default@4@U64@@iterators@boost@@@?$vector@V?$basic_string@DU?$char_traits@D@std@@V?$allocator@D@2@@std@@V?$allocator@V?$basic_string@DU?$char_traits@D@std@@V?$allocator@D@2@@std@@@2@@std@@QEAAXV?$transform_iterator@U?$copy_iterator_rangeF@V?$basic_string@DU?$char_traits@D@std@@V?$allocator@D@2@@std@@PEBD@detail@algorithm@boost@@V?$split_iterator@PEBD@34@Uuse_default@4@U64@@iterators@boost@@0Uinput_iterator_tag@1@@Z 0000000180020990 f i GRBLdlg.obj
 0001:0001fb20       ??$static_compile_impl2@U?$expr@Ubitwise_or@tag@tagns_@proto@boost@@U?$list2@AEBU?$expr@Ushift_right@tag@tagns_@proto@boost@@U?$list2@AEBU?$expr@Ushift_right@tag@tagns_@proto@boost@@U?$list2@U?$expr@Uterminal@tag@tagns_@proto@boost@@U?$term@AEBD@argsns_@45@$0A@@exprns_@proto@boost@@AEBU?$expr@Udereference@tag@tagns_@proto@boost@@U?$list1@AEBU?$expr@Ucomplement@tag@tagns_@proto@boost@@U?$list1@AEBU?$expr@Uterminal@tag@tagns_@proto@boost@@U?$term@D@argsns_@45@$0A@@exprns_@proto@boost@@@argsns_@45@$00@exprns_@proto@boost@@@argsns_@45@$00@234@@argsns_@45@$01@exprns_@proto@boost@@U?$expr@Uterminal@tag@tagns_@proto@boost@@U?$term@AEBD@argsns_@45@$0A@@234@@argsns_@45@$01@exprns_@proto@boost@@AEBU?$expr@Ushift_right@tag@tagns_@proto@boost@@U?$list2@AEBU?$expr@Ubitwise_or@tag@tagns_@proto@boost@@U?$list2@AEBU?$expr@Uterminal@tag@tagns_@proto@boost@@U?$term@D@argsns_@45@$0A@@exprns_@proto@boost@@U?$expr@Uterminal@tag@tagns_@proto@boost@@U?$term@AEBD@argsns_@45@$0A@@234@@argsns_@45@$01@exprns_@proto@boost@@AEBU?$expr@Uunary_plus@tag@tagns_@proto@boost@@U?$list1@AEBU?$expr@Uterminal@tag@tagns_@proto@boost@@U?$term@Uposix_charset_placeholder@detail@xpressive@boost@@@argsns_@45@$0A@@exprns_@proto@boost@@@argsns_@45@$00@234@@argsns_@45@$01@234@@argsns_@45@$01@exprns_@proto@boost@@V?$_String_const_iterator@V?$_String_val@U?$_Simple_types@D@std@@@std@@@std@@U?$cpp_regex_traits@D@xpressive@4@@detail@xpressive@boost@@YAXAEBU?$expr@Ubitwise_or@tag@tagns_@proto@boost@@U?$list2@AEBU?$expr@Ushift_right@tag@tagns_@proto@boost@@U?$list2@AEBU?$expr@Ushift_right@tag@tagns_@proto@boost@@U?$list2@U?$expr@Uterminal@tag@tagns_@proto@boost@@U?$term@AEBD@argsns_@45@$0A@@exprns_@proto@boost@@AEBU?$expr@Udereference@tag@tagns_@proto@boost@@U?$list1@AEBU?$expr@Ucomplement@tag@tagns_@proto@boost@@U?$list1@AEBU?$expr@Uterminal@tag@tagns_@proto@boost@@U?$term@D@argsns_@45@$0A@@exprns_@proto@boost@@@argsns_@45@$00@exprns_@proto@boost@@@argsns_@45@$00@234@@argsns_@45@$01@exprns_@proto@boost@@U?$expr@Uterminal@tag@tagns_@proto@boost@@U?$term@AEBD@argsns_@45@$0A@@234@@argsns_@45@$01@exprns_@proto@boost@@AEBU?$expr@Ushift_right@tag@tagns_@proto@boost@@U?$list2@AEBU?$expr@Ubitwise_or@tag@tagns_@proto@boost@@U?$list2@AEBU?$expr@Uterminal@tag@tagns_@proto@boost@@U?$term@D@argsns_@45@$0A@@exprns_@proto@boost@@U?$expr@Uterminal@tag@tagns_@proto@boost@@U?$term@AEBD@argsns_@45@$0A@@234@@argsns_@45@$01@exprns_@proto@boost@@AEBU?$expr@Uunary_plus@tag@tagns_@proto@boost@@U?$list1@AEBU?$expr@Uterminal@tag@tagns_@proto@boost@@U?$term@Uposix_charset_placeholder@detail@xpressive@boost@@@argsns_@45@$0A@@exprns_@proto@boost@@@argsns_@45@$00@234@@argsns_@45@$01@234@@argsns_@45@$01@exprns_@proto@2@AEBV?$shared_ptr@U?$regex_impl@V?$_String_const_iterator@V?$_String_val@U?$_Simple_types@D@std@@@std@@@std@@@detail@xpressive@boost@@@2@AEBU?$cpp_regex_traits@D@12@@Z 0000000180020b20 f i GRBLdlg.obj
 0001:0001fe10       ??$static_compile_impl2@U?$expr@Ushift_right@tag@tagns_@proto@boost@@U?$list2@AEBU?$expr@Uassign@tag@tagns_@proto@boost@@U?$list2@AEBU?$expr@Uterminal@tag@tagns_@proto@boost@@U?$term@Umark_placeholder@detail@xpressive@boost@@@argsns_@45@$0A@@exprns_@proto@boost@@AEBU?$expr@Ushift_right@tag@tagns_@proto@boost@@U?$list2@AEBU?$expr@Ushift_right@tag@tagns_@proto@boost@@U?$list2@AEBU?$expr@Uterminal@tag@tagns_@proto@boost@@U?$term@Uassert_bos_matcher@detail@xpressive@boost@@@argsns_@45@$0A@@exprns_@proto@boost@@U?$expr@Uterminal@tag@tagns_@proto@boost@@U?$term@AEBD@argsns_@45@$0A@@234@@argsns_@45@$01@exprns_@proto@boost@@AEBU?$expr@Udereference@tag@tagns_@proto@boost@@U?$list1@AEBU?$expr@Uterminal@tag@tagns_@proto@boost@@U?$term@Uposix_charset_placeholder@detail@xpressive@boost@@@argsns_@45@$0A@@exprns_@proto@boost@@@argsns_@45@$00@234@@argsns_@45@$01@234@@argsns_@45@$01@exprns_@proto@boost@@AEBU?$expr@Uassign@tag@tagns_@proto@boost@@U?$list2@AEBU?$expr@Uterminal@tag@tagns_@proto@boost@@U?$term@Umark_placeholder@detail@xpressive@boost@@@argsns_@45@$0A@@exprns_@proto@boost@@AEBU?$expr@Udereference@tag@tagns_@proto@boost@@U?$list1@AEBU?$expr@Uterminal@tag@tagns_@proto@boost@@U?$term@Uany_matcher@detail@xpressive@boost@@@argsns_@45@$0A@@exprns_@proto@boost@@@argsns_@45@$00@234@@argsns_@45@$01@234@@argsns_@45@$01@exprns_@proto@boost@@V?$_String_const_iterator@V?$_String_val@U?$_Simple_types@D@std@@@std@@@std@@U?$cpp_regex_traits@D@xpressive@4@@detail@xpressive@boost@@YAXAEBU?$expr@Ushift_right@tag@tagns_@proto@boost@@U?$list2@AEBU?$expr@Uassign@tag@tagns_@proto@boost@@U?$list2@AEBU?$expr@Uterminal@tag@tagns_@proto@boost@@U?$term@Umark_placeholder@detail@xpressive@boost@@@argsns_@45@$0A@@exprns_@proto@boost@@AEBU?$expr@Ushift_right@tag@tagns_@proto@boost@@U?$list2@AEBU?$expr@Ushift_right@tag@tagns_@proto@boost@@U?$list2@AEBU?$expr@Uterminal@tag@tagns_@proto@boost@@U?$term@Uassert_bos_matcher@detail@xpressive@boost@@@argsns_@45@$0A@@exprns_@proto@boost@@U?$expr@Uterminal@tag@tagns_@proto@boost@@U?$term@AEBD@argsns_@45@$0A@@234@@argsns_@45@$01@exprns_@proto@boost@@AEBU?$expr@Udereference@tag@tagns_@proto@boost@@U?$list1@AEBU?$expr@Uterminal@tag@tagns_@proto@boost@@U?$term@Uposix_charset_placeholder@detail@xpressive@boost@@@argsns_@45@$0A@@exprns_@proto@boost@@@argsns_@45@$00@234@@argsns_@45@$01@234@@argsns_@45@$01@exprns_@proto@boost@@AEBU?$expr@Uassign@tag@tagns_@proto@boost@@U?$list2@AEBU?$expr@Uterminal@tag@tagns_@proto@boost@@U?$term@Umark_placeholder@detail@xpressive@boost@@@argsns_@45@$0A@@exprns_@proto@boost@@AEBU?$expr@Udereference@tag@tagns_@proto@boost@@U?$list1@AEBU?$expr@Uterminal@tag@tagns_@proto@boost@@U?$term@Uany_matcher@detail@xpressive@boost@@@argsns_@45@$0A@@exprns_@proto@boost@@@argsns_@45@$00@234@@argsns_@45@$01@234@@argsns_@45@$01@exprns_@proto@2@AEBV?$shared_ptr@U?$regex_impl@V?$_String_const_iterator@V?$_String_val@U?$_Simple_types@D@std@@@std@@@std@@@detail@xpressive@boost@@@2@AEBU?$cpp_regex_traits@D@12@@Z 0000000180020e10 f i GRBLdlg.obj
 0001:00020050       ??@3b97a0a39b702b2f2ffe43b05c55628a@ 0000000180021050 f i GRBLdlg.obj
 0001:00020290       ??$format_ecma_262_@PEBDV?$back_insert_iterator@V?$basic_string@DU?$char_traits@D@std@@V?$allocator@D@2@@std@@@std@@@?$match_results@V?$_String_const_iterator@V?$_String_val@U?$_Simple_types@D@std@@@std@@@std@@@xpressive@boost@@AEBA?AV?$back_insert_iterator@V?$basic_string@DU?$char_traits@D@std@@V?$allocator@D@2@@std@@@std@@PEBD0V34@@Z 0000000180021290 f i GRBLdlg.obj
 0001:000203c0       ??$static_compile_impl2@U?$expr@Ushift_right@tag@tagns_@proto@boost@@U?$list2@AEBU?$expr@Ushift_right@tag@tagns_@proto@boost@@U?$list2@U?$expr@Uterminal@tag@tagns_@proto@boost@@U?$term@AEBD@argsns_@45@$0A@@exprns_@proto@boost@@AEBU?$expr@Udereference@tag@tagns_@proto@boost@@U?$list1@AEBU?$expr@Ucomplement@tag@tagns_@proto@boost@@U?$list1@AEBU?$expr@Uterminal@tag@tagns_@proto@boost@@U?$term@D@argsns_@45@$0A@@exprns_@proto@boost@@@argsns_@45@$00@exprns_@proto@boost@@@argsns_@45@$00@234@@argsns_@45@$01@exprns_@proto@boost@@U?$expr@Uterminal@tag@tagns_@proto@boost@@U?$term@AEBD@argsns_@45@$0A@@234@@argsns_@45@$01@exprns_@proto@boost@@V?$_String_const_iterator@V?$_String_val@U?$_Simple_types@D@std@@@std@@@std@@U?$cpp_regex_traits@D@xpressive@4@@detail@xpressive@boost@@YAXAEBU?$expr@Ushift_right@tag@tagns_@proto@boost@@U?$list2@AEBU?$expr@Ushift_right@tag@tagns_@proto@boost@@U?$list2@U?$expr@Uterminal@tag@tagns_@proto@boost@@U?$term@AEBD@argsns_@45@$0A@@exprns_@proto@boost@@AEBU?$expr@Udereference@tag@tagns_@proto@boost@@U?$list1@AEBU?$expr@Ucomplement@tag@tagns_@proto@boost@@U?$list1@AEBU?$expr@Uterminal@tag@tagns_@proto@boost@@U?$term@D@argsns_@45@$0A@@exprns_@proto@boost@@@argsns_@45@$00@exprns_@proto@boost@@@argsns_@45@$00@234@@argsns_@45@$01@exprns_@proto@boost@@U?$expr@Uterminal@tag@tagns_@proto@boost@@U?$term@AEBD@argsns_@45@$0A@@234@@argsns_@45@$01@exprns_@proto@2@AEBV?$shared_ptr@U?$regex_impl@V?$_String_const_iterator@V?$_String_val@U?$_Simple_types@D@std@@@std@@@std@@@detail@xpressive@boost@@@2@AEBU?$cpp_regex_traits@D@12@@Z 00000001800213c0 f i GRBLdlg.obj
 0001:00020650       ??$get_token@V?$_String_const_iterator@V?$_String_val@U?$_Simple_types@D@std@@@std@@@std@@@?$compiler_traits@U?$regex_traits@DU?$cpp_regex_traits@D@xpressive@boost@@@xpressive@boost@@@xpressive@boost@@QEAA?AW4compiler_token_type@regex_constants@12@AEAV?$_String_const_iterator@V?$_String_val@U?$_Simple_types@D@std@@@std@@@std@@V56@@Z 0000000180021650 f i GRBLdlg.obj
 0001:000207e0       ??$get_group_type@V?$_String_const_iterator@V?$_String_val@U?$_Simple_types@D@std@@@std@@@std@@@?$compiler_traits@U?$regex_traits@DU?$cpp_regex_traits@D@xpressive@boost@@@xpressive@boost@@@xpressive@boost@@QEAA?AW4compiler_token_type@regex_constants@12@AEAV?$_String_const_iterator@V?$_String_val@U?$_Simple_types@D@std@@@std@@@std@@V56@AEAV?$basic_string@DU?$char_traits@D@std@@V?$allocator@D@2@@6@@Z 00000001800217e0 f i GRBLdlg.obj
 0001:00020de0       ??$parse_alternates@V?$_String_const_iterator@V?$_String_val@U?$_Simple_types@D@std@@@std@@@std@@@?$regex_compiler@V?$_String_const_iterator@V?$_String_val@U?$_Simple_types@D@std@@@std@@@std@@U?$regex_traits@DU?$cpp_regex_traits@D@xpressive@boost@@@xpressive@boost@@U?$compiler_traits@U?$regex_traits@DU?$cpp_regex_traits@D@xpressive@boost@@@xpressive@boost@@@45@@xpressive@boost@@AEAA?AU?$sequence@V?$_String_const_iterator@V?$_String_val@U?$_Simple_types@D@std@@@std@@@std@@@detail@12@AEAV?$_String_const_iterator@V?$_String_val@U?$_Simple_types@D@std@@@std@@@std@@V56@@Z 0000000180021de0 f i GRBLdlg.obj
 0001:000210c0       ??$make_dynamic@V?$_String_const_iterator@V?$_String_val@U?$_Simple_types@D@std@@@std@@@std@@Uend_matcher@detail@xpressive@boost@@@detail@xpressive@boost@@YA?AU?$sequence@V?$_String_const_iterator@V?$_String_val@U?$_Simple_types@D@std@@@std@@@std@@@012@AEBUend_matcher@012@@Z 00000001800220c0 f i GRBLdlg.obj
 0001:000211f0       ??$common_compile@V?$_String_const_iterator@V?$_String_val@U?$_Simple_types@D@std@@@std@@@std@@U?$regex_traits@DU?$cpp_regex_traits@D@xpressive@boost@@@xpressive@boost@@@detail@xpressive@boost@@YAXAEBV?$intrusive_ptr@$$CBU?$matchable_ex@V?$_String_const_iterator@V?$_String_val@U?$_Simple_types@D@std@@@std@@@std@@@detail@xpressive@boost@@@2@AEAU?$regex_impl@V?$_String_const_iterator@V?$_String_val@U?$_Simple_types@D@std@@@std@@@std@@@012@AEBU?$regex_traits@DU?$cpp_regex_traits@D@xpressive@boost@@@12@@Z 00000001800221f0 f i GRBLdlg.obj
 0001:000213f0       ??$_Uninitialized_copy_al_unchecked1@PEAU?$named_mark@D@detail@xpressive@boost@@PEAU1234@V?$allocator@U?$named_mark@D@detail@xpressive@boost@@@std@@@std@@YAPEAU?$named_mark@D@detail@xpressive@boost@@PEAU1234@00AEAU?$_Wrap_alloc@V?$allocator@U?$named_mark@D@detail@xpressive@boost@@@std@@@0@U_General_ptr_iterator_tag@0@U_Any_tag@0@@Z 00000001800223f0 f i GRBLdlg.obj
 0001:000213f0       ??$_Uninitialized_copy_al_unchecked1@PEBU?$named_mark@D@detail@xpressive@boost@@PEAU1234@V?$allocator@U?$named_mark@D@detail@xpressive@boost@@@std@@@std@@YAPEAU?$named_mark@D@detail@xpressive@boost@@PEBU1234@0PEAU1234@AEAU?$_Wrap_alloc@V?$allocator@U?$named_mark@D@detail@xpressive@boost@@@std@@@0@U_General_ptr_iterator_tag@0@U_Any_tag@0@@Z 00000001800223f0 f i GRBLdlg.obj
 0001:00021490       ??$_Insert_at@AEAV?$weak_ptr@U?$regex_impl@V?$_String_const_iterator@V?$_String_val@U?$_Simple_types@D@std@@@std@@@std@@@detail@xpressive@boost@@@boost@@PEAU?$_Tree_node@V?$weak_ptr@U?$regex_impl@V?$_String_const_iterator@V?$_String_val@U?$_Simple_types@D@std@@@std@@@std@@@detail@xpressive@boost@@@boost@@PEAX@std@@@?$_Tree@V?$_Tset_traits@V?$weak_ptr@U?$regex_impl@V?$_String_const_iterator@V?$_String_val@U?$_Simple_types@D@std@@@std@@@std@@@detail@xpressive@boost@@@boost@@U?$less@V?$weak_ptr@U?$regex_impl@V?$_String_const_iterator@V?$_String_val@U?$_Simple_types@D@std@@@std@@@std@@@detail@xpressive@boost@@@boost@@@std@@V?$allocator@V?$weak_ptr@U?$regex_impl@V?$_String_const_iterator@V?$_String_val@U?$_Simple_types@D@std@@@std@@@std@@@detail@xpressive@boost@@@boost@@@4@$0A@@std@@@std@@IEAA?AV?$_Tree_const_iterator@V?$_Tree_val@U?$_Tree_simple_types@V?$weak_ptr@U?$regex_impl@V?$_String_const_iterator@V?$_String_val@U?$_Simple_types@D@std@@@std@@@std@@@detail@xpressive@boost@@@boost@@@std@@@std@@@1@_NPEAU?$_Tree_node@V?$weak_ptr@U?$regex_impl@V?$_String_const_iterator@V?$_String_val@U?$_Simple_types@D@std@@@std@@@std@@@detail@xpressive@boost@@@boost@@PEAX@1@AEAV?$weak_ptr@U?$regex_impl@V?$_String_const_iterator@V?$_String_val@U?$_Simple_types@D@std@@@std@@@std@@@detail@xpressive@boost@@@boost@@1@Z 0000000180022490 f i GRBLdlg.obj
 0001:00021760       ??$_Insert_nohint@AEAV?$weak_ptr@U?$regex_impl@V?$_String_const_iterator@V?$_String_val@U?$_Simple_types@D@std@@@std@@@std@@@detail@xpressive@boost@@@boost@@PEAU?$_Tree_node@V?$weak_ptr@U?$regex_impl@V?$_String_const_iterator@V?$_String_val@U?$_Simple_types@D@std@@@std@@@std@@@detail@xpressive@boost@@@boost@@PEAX@std@@@?$_Tree@V?$_Tset_traits@V?$weak_ptr@U?$regex_impl@V?$_String_const_iterator@V?$_String_val@U?$_Simple_types@D@std@@@std@@@std@@@detail@xpressive@boost@@@boost@@U?$less@V?$weak_ptr@U?$regex_impl@V?$_String_const_iterator@V?$_String_val@U?$_Simple_types@D@std@@@std@@@std@@@detail@xpressive@boost@@@boost@@@std@@V?$allocator@V?$weak_ptr@U?$regex_impl@V?$_String_const_iterator@V?$_String_val@U?$_Simple_types@D@std@@@std@@@std@@@detail@xpressive@boost@@@boost@@@4@$0A@@std@@@std@@IEAA?AU?$pair@V?$_Tree_const_iterator@V?$_Tree_val@U?$_Tree_simple_types@V?$weak_ptr@U?$regex_impl@V?$_String_const_iterator@V?$_String_val@U?$_Simple_types@D@std@@@std@@@std@@@detail@xpressive@boost@@@boost@@@std@@@std@@@std@@_N@1@_NAEAV?$weak_ptr@U?$regex_impl@V?$_String_const_iterator@V?$_String_val@U?$_Simple_types@D@std@@@std@@@std@@@detail@xpressive@boost@@@boost@@PEAU?$_Tree_node@V?$weak_ptr@U?$regex_impl@V?$_String_const_iterator@V?$_String_val@U?$_Simple_types@D@std@@@std@@@std@@@detail@xpressive@boost@@@boost@@PEAX@1@@Z 0000000180022760 f i GRBLdlg.obj
 0001:00021910       ??$_Insert_at@AEAV?$shared_ptr@U?$regex_impl@V?$_String_const_iterator@V?$_String_val@U?$_Simple_types@D@std@@@std@@@std@@@detail@xpressive@boost@@@boost@@PEAU?$_Tree_node@V?$shared_ptr@U?$regex_impl@V?$_String_const_iterator@V?$_String_val@U?$_Simple_types@D@std@@@std@@@std@@@detail@xpressive@boost@@@boost@@PEAX@std@@@?$_Tree@V?$_Tset_traits@V?$shared_ptr@U?$regex_impl@V?$_String_const_iterator@V?$_String_val@U?$_Simple_types@D@std@@@std@@@std@@@detail@xpressive@boost@@@boost@@U?$less@V?$shared_ptr@U?$regex_impl@V?$_String_const_iterator@V?$_String_val@U?$_Simple_types@D@std@@@std@@@std@@@detail@xpressive@boost@@@boost@@@std@@V?$allocator@V?$shared_ptr@U?$regex_impl@V?$_String_const_iterator@V?$_String_val@U?$_Simple_types@D@std@@@std@@@std@@@detail@xpressive@boost@@@boost@@@4@$0A@@std@@@std@@IEAA?AV?$_Tree_const_iterator@V?$_Tree_val@U?$_Tree_simple_types@V?$shared_ptr@U?$regex_impl@V?$_String_const_iterator@V?$_String_val@U?$_Simple_types@D@std@@@std@@@std@@@detail@xpressive@boost@@@boost@@@std@@@std@@@1@_NPEAU?$_Tree_node@V?$shared_ptr@U?$regex_impl@V?$_String_const_iterator@V?$_String_val@U?$_Simple_types@D@std@@@std@@@std@@@detail@xpressive@boost@@@boost@@PEAX@1@AEAV?$shared_ptr@U?$regex_impl@V?$_String_const_iterator@V?$_String_val@U?$_Simple_types@D@std@@@std@@@std@@@detail@xpressive@boost@@@boost@@1@Z 0000000180022910 f i GRBLdlg.obj
 0001:00021c00       ??$_Insert_nohint@AEAV?$shared_ptr@U?$regex_impl@V?$_String_const_iterator@V?$_String_val@U?$_Simple_types@D@std@@@std@@@std@@@detail@xpressive@boost@@@boost@@PEAU?$_Tree_node@V?$shared_ptr@U?$regex_impl@V?$_String_const_iterator@V?$_String_val@U?$_Simple_types@D@std@@@std@@@std@@@detail@xpressive@boost@@@boost@@PEAX@std@@@?$_Tree@V?$_Tset_traits@V?$shared_ptr@U?$regex_impl@V?$_String_const_iterator@V?$_String_val@U?$_Simple_types@D@std@@@std@@@std@@@detail@xpressive@boost@@@boost@@U?$less@V?$shared_ptr@U?$regex_impl@V?$_String_const_iterator@V?$_String_val@U?$_Simple_types@D@std@@@std@@@std@@@detail@xpressive@boost@@@boost@@@std@@V?$allocator@V?$shared_ptr@U?$regex_impl@V?$_String_const_iterator@V?$_String_val@U?$_Simple_types@D@std@@@std@@@std@@@detail@xpressive@boost@@@boost@@@4@$0A@@std@@@std@@IEAA?AU?$pair@V?$_Tree_const_iterator@V?$_Tree_val@U?$_Tree_simple_types@V?$shared_ptr@U?$regex_impl@V?$_String_const_iterator@V?$_String_val@U?$_Simple_types@D@std@@@std@@@std@@@detail@xpressive@boost@@@boost@@@std@@@std@@@std@@_N@1@_NAEAV?$shared_ptr@U?$regex_impl@V?$_String_const_iterator@V?$_String_val@U?$_Simple_types@D@std@@@std@@@std@@@detail@xpressive@boost@@@boost@@PEAU?$_Tree_node@V?$shared_ptr@U?$regex_impl@V?$_String_const_iterator@V?$_String_val@U?$_Simple_types@D@std@@@std@@@std@@@detail@xpressive@boost@@@boost@@PEAX@1@@Z 0000000180022c00 f i GRBLdlg.obj
 0001:00021dd0       ??$_Find_if_unchecked@PEADU?$is_any_ofF@D@detail@algorithm@boost@@@std@@YAPEADPEAD0AEAU?$is_any_ofF@D@detail@algorithm@boost@@@Z 0000000180022dd0 f i GRBLdlg.obj
 0001:00021dd0       ??$_Find_if_unchecked@PEBDU?$is_any_ofF@D@detail@algorithm@boost@@@std@@YAPEBDPEBD0AEAU?$is_any_ofF@D@detail@algorithm@boost@@@Z 0000000180022dd0 f i GRBLdlg.obj
 0001:00021e70       ??$make_simple_repeat@V?$_String_const_iterator@V?$_String_val@U?$_Simple_types@D@std@@@std@@@std@@@detail@xpressive@boost@@YAXAEBUquant_spec@012@AEAU?$sequence@V?$_String_const_iterator@V?$_String_val@U?$_Simple_types@D@std@@@std@@@std@@@012@@Z 0000000180022e70 f i GRBLdlg.obj
 0001:00021f30       ??$make_repeat@V?$_String_const_iterator@V?$_String_val@U?$_Simple_types@D@std@@@std@@@std@@@detail@xpressive@boost@@YAXAEBUquant_spec@012@AEAU?$sequence@V?$_String_const_iterator@V?$_String_val@U?$_Simple_types@D@std@@@std@@@std@@@012@@Z 0000000180022f30 f i GRBLdlg.obj
 0001:000220e0       ??1?$xpression_visitor@V?$_String_const_iterator@V?$_String_val@U?$_Simple_types@D@std@@@std@@@std@@U?$bool_@$0A@@mpl@boost@@U?$cpp_regex_traits@D@xpressive@5@@detail@xpressive@boost@@QEAA@XZ 00000001800230e0 f i GRBLdlg.obj
 0001:00022160       ??4?$sequence@V?$_String_const_iterator@V?$_String_val@U?$_Simple_types@D@std@@@std@@@std@@@detail@xpressive@boost@@QEAAAEAU0123@$$QEAU0123@@Z 0000000180023160 f i GRBLdlg.obj
 0001:00022240       ??1?$alternate_matcher@U?$alternates_vector@V?$_String_const_iterator@V?$_String_val@U?$_Simple_types@D@std@@@std@@@std@@@detail@xpressive@boost@@U?$regex_traits@DU?$cpp_regex_traits@D@xpressive@boost@@@34@@detail@xpressive@boost@@QEAA@XZ 0000000180023240 f i GRBLdlg.obj
 0001:00022240       ??1?$alternates_vector@V?$_String_const_iterator@V?$_String_val@U?$_Simple_types@D@std@@@std@@@std@@@detail@xpressive@boost@@QEAA@XZ 0000000180023240 f i GRBLdlg.obj
 0001:00022280       ??1?$xpression_linker@D@detail@xpressive@boost@@QEAA@XZ 0000000180023280 f i GRBLdlg.obj
 0001:000222b0       ??1?$named_mark@D@detail@xpressive@boost@@QEAA@XZ 00000001800232b0 f i GRBLdlg.obj
 0001:000222b0       ??1?$string_matcher@U?$regex_traits@DU?$cpp_regex_traits@D@xpressive@boost@@@xpressive@boost@@U?$bool_@$00@mpl@3@@detail@xpressive@boost@@QEAA@XZ 00000001800232b0 f i GRBLdlg.obj
 0001:000222b0       ??1?$simple_repeat_matcher@U?$matcher_wrapper@U?$string_matcher@U?$regex_traits@DU?$cpp_regex_traits@D@xpressive@boost@@@xpressive@boost@@U?$bool_@$00@mpl@3@@detail@xpressive@boost@@@detail@xpressive@boost@@U?$bool_@$00@mpl@4@@detail@xpressive@boost@@QEAA@XZ 00000001800232b0 f i GRBLdlg.obj
 0001:000222b0       ??1?$simple_repeat_matcher@U?$matcher_wrapper@U?$string_matcher@U?$regex_traits@DU?$cpp_regex_traits@D@xpressive@boost@@@xpressive@boost@@U?$bool_@$0A@@mpl@3@@detail@xpressive@boost@@@detail@xpressive@boost@@U?$bool_@$0A@@mpl@4@@detail@xpressive@boost@@QEAA@XZ 00000001800232b0 f i GRBLdlg.obj
 0001:000222b0       ??1?$matcher_wrapper@U?$string_matcher@U?$regex_traits@DU?$cpp_regex_traits@D@xpressive@boost@@@xpressive@boost@@U?$bool_@$00@mpl@3@@detail@xpressive@boost@@@detail@xpressive@boost@@QEAA@XZ 00000001800232b0 f i GRBLdlg.obj
 0001:000222b0       ??1?$simple_repeat_matcher@U?$matcher_wrapper@U?$string_matcher@U?$regex_traits@DU?$cpp_regex_traits@D@xpressive@boost@@@xpressive@boost@@U?$bool_@$00@mpl@3@@detail@xpressive@boost@@@detail@xpressive@boost@@U?$bool_@$0A@@mpl@4@@detail@xpressive@boost@@QEAA@XZ 00000001800232b0 f i GRBLdlg.obj
 0001:000222b0       ??1?$string_matcher@U?$regex_traits@DU?$cpp_regex_traits@D@xpressive@boost@@@xpressive@boost@@U?$bool_@$0A@@mpl@3@@detail@xpressive@boost@@QEAA@XZ 00000001800232b0 f i GRBLdlg.obj
 0001:000222b0       ??1?$matcher_wrapper@U?$string_matcher@U?$regex_traits@DU?$cpp_regex_traits@D@xpressive@boost@@@xpressive@boost@@U?$bool_@$0A@@mpl@3@@detail@xpressive@boost@@@detail@xpressive@boost@@QEAA@XZ 00000001800232b0 f i GRBLdlg.obj
 0001:000222b0       ??1?$simple_repeat_matcher@U?$matcher_wrapper@U?$string_matcher@U?$regex_traits@DU?$cpp_regex_traits@D@xpressive@boost@@@xpressive@boost@@U?$bool_@$0A@@mpl@3@@detail@xpressive@boost@@@detail@xpressive@boost@@U?$bool_@$00@mpl@4@@detail@xpressive@boost@@QEAA@XZ 00000001800232b0 f i GRBLdlg.obj
 0001:000222c0       ?repeat@?$dynamic_xpression@Uend_matcher@detail@xpressive@boost@@V?$_String_const_iterator@V?$_String_val@U?$_Simple_types@D@std@@@std@@@std@@@detail@xpressive@boost@@UEBAXAEBUquant_spec@234@AEAU?$sequence@V?$_String_const_iterator@V?$_String_val@U?$_Simple_types@D@std@@@std@@@std@@@234@@Z 00000001800232c0 f i GRBLdlg.obj
 0001:000222d0       ?link@?$dynamic_xpression@Uany_matcher@detail@xpressive@boost@@V?$_String_const_iterator@V?$_String_val@U?$_Simple_types@D@std@@@std@@@std@@@detail@xpressive@boost@@UEBAXAEAU?$xpression_linker@D@234@@Z 00000001800232d0 f i GRBLdlg.obj
 0001:000222d0       ?link@?$dynamic_xpression@Utrue_matcher@detail@xpressive@boost@@V?$_String_const_iterator@V?$_String_val@U?$_Simple_types@D@std@@@std@@@std@@@detail@xpressive@boost@@UEBAXAEAU?$xpression_linker@D@234@@Z 00000001800232d0 f i GRBLdlg.obj
 0001:000222d0       ?link@?$dynamic_xpression@Uend_matcher@detail@xpressive@boost@@V?$_String_const_iterator@V?$_String_val@U?$_Simple_types@D@std@@@std@@@std@@@detail@xpressive@boost@@UEBAXAEAU?$xpression_linker@D@234@@Z 00000001800232d0 f i GRBLdlg.obj
 0001:000222d0       ?link@?$dynamic_xpression@Uindependent_end_matcher@detail@xpressive@boost@@V?$_String_const_iterator@V?$_String_val@U?$_Simple_types@D@std@@@std@@@std@@@detail@xpressive@boost@@UEBAXAEAU?$xpression_linker@D@234@@Z 00000001800232d0 f i GRBLdlg.obj
 0001:000222d0       ?link@?$dynamic_xpression@Uassert_bos_matcher@detail@xpressive@boost@@V?$_String_const_iterator@V?$_String_val@U?$_Simple_types@D@std@@@std@@@std@@@detail@xpressive@boost@@UEBAXAEAU?$xpression_linker@D@234@@Z 00000001800232d0 f i GRBLdlg.obj
 0001:000222d0       ?link@?$dynamic_xpression@Uassert_eos_matcher@detail@xpressive@boost@@V?$_String_const_iterator@V?$_String_val@U?$_Simple_types@D@std@@@std@@@std@@@detail@xpressive@boost@@UEBAXAEAU?$xpression_linker@D@234@@Z 00000001800232d0 f i GRBLdlg.obj
 0001:000222e0       ?match@?$dynamic_xpression@Uend_matcher@detail@xpressive@boost@@V?$_String_const_iterator@V?$_String_val@U?$_Simple_types@D@std@@@std@@@std@@@detail@xpressive@boost@@UEBA_NAEAU?$match_state@V?$_String_const_iterator@V?$_String_val@U?$_Simple_types@D@std@@@std@@@std@@@234@@Z 00000001800232e0 f i GRBLdlg.obj
 0001:000222f0       ??@d881430ba9f021eae9ce7c15c50e2ec8@ 00000001800232f0 f i GRBLdlg.obj
 0001:00022490       ??@746bb0fa9bd0a80a02267241b640b096@ 0000000180023490 f i GRBLdlg.obj
 0001:00022680       ??D?$iterator_facade_base@V?$transform_iterator@U?$copy_iterator_rangeF@V?$basic_string@DU?$char_traits@D@std@@V?$allocator@D@2@@std@@PEBD@detail@algorithm@boost@@V?$split_iterator@PEBD@34@Uuse_default@4@U64@@iterators@boost@@V?$basic_string@DU?$char_traits@D@std@@V?$allocator@D@2@@std@@Uforward_traversal_tag@23@V45@_J$0A@$0A@@detail@iterators@boost@@QEBA?AV?$basic_string@DU?$char_traits@D@std@@V?$allocator@D@2@@std@@XZ 0000000180023680 f i GRBLdlg.obj
 0001:00022680       ??D?$iterator_facade_base@V?$transform_iterator@U?$copy_iterator_rangeF@V?$basic_string@DU?$char_traits@D@std@@V?$allocator@D@2@@std@@V?$_String_iterator@V?$_String_val@U?$_Simple_types@D@std@@@std@@@2@@detail@algorithm@boost@@V?$split_iterator@V?$_String_iterator@V?$_String_val@U?$_Simple_types@D@std@@@std@@@std@@@34@Uuse_default@4@U64@@iterators@boost@@V?$basic_string@DU?$char_traits@D@std@@V?$allocator@D@2@@std@@Uforward_traversal_tag@23@V45@_J$0A@$0A@@detail@iterators@boost@@QEBA?AV?$basic_string@DU?$char_traits@D@std@@V?$allocator@D@2@@std@@XZ 0000000180023680 f i GRBLdlg.obj
 0001:000226b0       ??_5?$sequence@V?$_String_const_iterator@V?$_String_val@U?$_Simple_types@D@std@@@std@@@std@@@detail@xpressive@boost@@QEAAAEAU0123@U0123@@Z 00000001800236b0 f i GRBLdlg.obj
 0001:00022920       ??_E?$dynamic_xpression@Uany_matcher@detail@xpressive@boost@@V?$_String_const_iterator@V?$_String_val@U?$_Simple_types@D@std@@@std@@@std@@@detail@xpressive@boost@@UEAAPEAXI@Z 0000000180023920 f i * CIL library *:* CIL module *
 0001:00022920       ??_E?$dynamic_xpression@Uend_matcher@detail@xpressive@boost@@V?$_String_const_iterator@V?$_String_val@U?$_Simple_types@D@std@@@std@@@std@@@detail@xpressive@boost@@UEAAPEAXI@Z 0000000180023920 f i * CIL library *:* CIL module *
 0001:00022920       ??_E?$dynamic_xpression@Uindependent_end_matcher@detail@xpressive@boost@@V?$_String_const_iterator@V?$_String_val@U?$_Simple_types@D@std@@@std@@@std@@@detail@xpressive@boost@@UEAAPEAXI@Z 0000000180023920 f i * CIL library *:* CIL module *
 0001:00022920       ??_G?$dynamic_xpression@Uany_matcher@detail@xpressive@boost@@V?$_String_const_iterator@V?$_String_val@U?$_Simple_types@D@std@@@std@@@std@@@detail@xpressive@boost@@UEAAPEAXI@Z 0000000180023920 f i GRBLdlg.obj
 0001:00022920       ??_G?$dynamic_xpression@Uassert_bos_matcher@detail@xpressive@boost@@V?$_String_const_iterator@V?$_String_val@U?$_Simple_types@D@std@@@std@@@std@@@detail@xpressive@boost@@UEAAPEAXI@Z 0000000180023920 f i GRBLdlg.obj
 0001:00022920       ??_E?$dynamic_xpression@Uassert_eos_matcher@detail@xpressive@boost@@V?$_String_const_iterator@V?$_String_val@U?$_Simple_types@D@std@@@std@@@std@@@detail@xpressive@boost@@UEAAPEAXI@Z 0000000180023920 f i * CIL library *:* CIL module *
 0001:00022920       ??_G?$dynamic_xpression@Utrue_matcher@detail@xpressive@boost@@V?$_String_const_iterator@V?$_String_val@U?$_Simple_types@D@std@@@std@@@std@@@detail@xpressive@boost@@UEAAPEAXI@Z 0000000180023920 f i GRBLdlg.obj
 0001:00022920       ??_G?$dynamic_xpression@Uassert_eos_matcher@detail@xpressive@boost@@V?$_String_const_iterator@V?$_String_val@U?$_Simple_types@D@std@@@std@@@std@@@detail@xpressive@boost@@UEAAPEAXI@Z 0000000180023920 f i GRBLdlg.obj
 0001:00022920       ??_G?$dynamic_xpression@Uindependent_end_matcher@detail@xpressive@boost@@V?$_String_const_iterator@V?$_String_val@U?$_Simple_types@D@std@@@std@@@std@@@detail@xpressive@boost@@UEAAPEAXI@Z 0000000180023920 f i GRBLdlg.obj
 0001:00022920       ??_G?$dynamic_xpression@Uend_matcher@detail@xpressive@boost@@V?$_String_const_iterator@V?$_String_val@U?$_Simple_types@D@std@@@std@@@std@@@detail@xpressive@boost@@UEAAPEAXI@Z 0000000180023920 f i GRBLdlg.obj
 0001:00022920       ??_E?$dynamic_xpression@Uassert_bos_matcher@detail@xpressive@boost@@V?$_String_const_iterator@V?$_String_val@U?$_Simple_types@D@std@@@std@@@std@@@detail@xpressive@boost@@UEAAPEAXI@Z 0000000180023920 f i * CIL library *:* CIL module *
 0001:00022920       ??_E?$dynamic_xpression@Utrue_matcher@detail@xpressive@boost@@V?$_String_const_iterator@V?$_String_val@U?$_Simple_types@D@std@@@std@@@std@@@detail@xpressive@boost@@UEAAPEAXI@Z 0000000180023920 f i * CIL library *:* CIL module *
 0001:000229a0       ?repeat_@?$dynamic_xpression@Uend_matcher@detail@xpressive@boost@@V?$_String_const_iterator@V?$_String_val@U?$_Simple_types@D@std@@@std@@@std@@@detail@xpressive@boost@@AEBAXAEBUquant_spec@234@AEAU?$sequence@V?$_String_const_iterator@V?$_String_val@U?$_Simple_types@D@std@@@std@@@std@@@234@U?$int_@$0A@@mpl@4@U?$bool_@$0A@@84@@Z 00000001800239a0 f i GRBLdlg.obj
 0001:00022ae0       ?push_back@?$vector@U?$shared_matchable@V?$_String_const_iterator@V?$_String_val@U?$_Simple_types@D@std@@@std@@@std@@@detail@xpressive@boost@@V?$allocator@U?$shared_matchable@V?$_String_const_iterator@V?$_String_val@U?$_Simple_types@D@std@@@std@@@std@@@detail@xpressive@boost@@@std@@@std@@QEAAXAEBU?$shared_matchable@V?$_String_const_iterator@V?$_String_val@U?$_Simple_types@D@std@@@std@@@std@@@detail@xpressive@boost@@@Z 0000000180023ae0 f i GRBLdlg.obj
 0001:00022c60       ??0?$vector@U?$shared_matchable@V?$_String_const_iterator@V?$_String_val@U?$_Simple_types@D@std@@@std@@@std@@@detail@xpressive@boost@@V?$allocator@U?$shared_matchable@V?$_String_const_iterator@V?$_String_val@U?$_Simple_types@D@std@@@std@@@std@@@detail@xpressive@boost@@@std@@@std@@QEAA@AEBV01@@Z 0000000180023c60 f i GRBLdlg.obj
 0001:00022d00       ?_Tidy@?$deque@PEBXV?$allocator@PEBX@std@@@std@@IEAAXXZ 0000000180023d00 f i GRBLdlg.obj
 0001:00022df0       ??0?$alternate_matcher@U?$alternates_list@U?$static_xpression@U?$literal_matcher@U?$cpp_regex_traits@D@xpressive@boost@@U?$bool_@$0A@@mpl@3@U453@@detail@xpressive@boost@@U?$static_xpression@U?$simple_repeat_matcher@U?$static_xpression@U?$literal_matcher@U?$cpp_regex_traits@D@xpressive@boost@@U?$bool_@$0A@@mpl@3@U?$bool_@$00@53@@detail@xpressive@boost@@U?$static_xpression@Utrue_matcher@detail@xpressive@boost@@Uno_next@234@@234@@detail@xpressive@boost@@U?$bool_@$00@mpl@4@@detail@xpressive@boost@@U?$static_xpression@U?$literal_matcher@U?$cpp_regex_traits@D@xpressive@boost@@U?$bool_@$0A@@mpl@3@U453@@detail@xpressive@boost@@U?$static_xpression@Ualternate_end_matcher@detail@xpressive@boost@@Uno_next@234@@234@@234@@234@@detail@xpressive@boost@@U?$alternates_list@U?$static_xpression@U?$alternate_matcher@U?$alternates_list@U?$static_xpression@U?$literal_matcher@U?$cpp_regex_traits@D@xpressive@boost@@U?$bool_@$0A@@mpl@3@U453@@detail@xpressive@boost@@U?$static_xpression@Ualternate_end_matcher@detail@xpressive@boost@@Uno_next@234@@234@@detail@xpressive@boost@@U?$alternates_list@U?$static_xpression@U?$literal_matcher@U?$cpp_regex_traits@D@xpressive@boost@@U?$bool_@$0A@@mpl@3@U453@@detail@xpressive@boost@@U?$static_xpression@Ualternate_end_matcher@detail@xpressive@boost@@Uno_next@234@@234@@detail@xpressive@boost@@Unil_@fusion@4@@234@@detail@xpressive@boost@@U?$cpp_regex_traits@D@34@@detail@xpressive@boost@@U?$static_xpression@U?$simple_repeat_matcher@U?$static_xpression@U?$posix_charset_matcher@U?$cpp_regex_traits@D@xpressive@boost@@@detail@xpressive@boost@@U?$static_xpression@Utrue_matcher@detail@xpressive@boost@@Uno_next@234@@234@@detail@xpressive@boost@@U?$bool_@$00@mpl@4@@detail@xpressive@boost@@U?$static_xpression@Ualternate_end_matcher@detail@xpressive@boost@@Uno_next@234@@234@@234@@detail@xpressive@boost@@Unil_@fusion@4@@234@@detail@xpressive@boost@@U?$cpp_regex_traits@D@34@@detail@xpressive@boost@@QEAA@AEBU0123@@Z 0000000180023df0 f i GRBLdlg.obj
 0001:00022ec0       ??_G?$dynamic_xpression@Umark_begin_matcher@detail@xpressive@boost@@V?$_String_const_iterator@V?$_String_val@U?$_Simple_types@D@std@@@std@@@std@@@detail@xpressive@boost@@UEAAPEAXI@Z 0000000180023ec0 f i GRBLdlg.obj
 0001:00022ec0       ??_G?$dynamic_xpression@U?$posix_charset_matcher@U?$regex_traits@DU?$cpp_regex_traits@D@xpressive@boost@@@xpressive@boost@@@detail@xpressive@boost@@V?$_String_const_iterator@V?$_String_val@U?$_Simple_types@D@std@@@std@@@std@@@detail@xpressive@boost@@UEAAPEAXI@Z 0000000180023ec0 f i GRBLdlg.obj
 0001:00022ec0       ??_E?$dynamic_xpression@U?$assert_bol_matcher@U?$regex_traits@DU?$cpp_regex_traits@D@xpressive@boost@@@xpressive@boost@@@detail@xpressive@boost@@V?$_String_const_iterator@V?$_String_val@U?$_Simple_types@D@std@@@std@@@std@@@detail@xpressive@boost@@UEAAPEAXI@Z 0000000180023ec0 f i * CIL library *:* CIL module *
 0001:00022ec0       ??_E?$dynamic_xpression@U?$literal_matcher@U?$regex_traits@DU?$cpp_regex_traits@D@xpressive@boost@@@xpressive@boost@@U?$bool_@$0A@@mpl@3@U?$bool_@$00@53@@detail@xpressive@boost@@V?$_String_const_iterator@V?$_String_val@U?$_Simple_types@D@std@@@std@@@std@@@detail@xpressive@boost@@UEAAPEAXI@Z 0000000180023ec0 f i * CIL library *:* CIL module *
 0001:00022ec0       ??_E?$dynamic_xpression@U?$mark_matcher@U?$regex_traits@DU?$cpp_regex_traits@D@xpressive@boost@@@xpressive@boost@@U?$bool_@$0A@@mpl@3@@detail@xpressive@boost@@V?$_String_const_iterator@V?$_String_val@U?$_Simple_types@D@std@@@std@@@std@@@detail@xpressive@boost@@UEAAPEAXI@Z 0000000180023ec0 f i * CIL library *:* CIL module *
 0001:00022ec0       ??_G?$dynamic_xpression@Ualternate_end_matcher@detail@xpressive@boost@@V?$_String_const_iterator@V?$_String_val@U?$_Simple_types@D@std@@@std@@@std@@@detail@xpressive@boost@@UEAAPEAXI@Z 0000000180023ec0 f i GRBLdlg.obj
 0001:00022ec0       ??_G?$dynamic_xpression@U?$assert_eol_matcher@U?$regex_traits@DU?$cpp_regex_traits@D@xpressive@boost@@@xpressive@boost@@@detail@xpressive@boost@@V?$_String_const_iterator@V?$_String_val@U?$_Simple_types@D@std@@@std@@@std@@@detail@xpressive@boost@@UEAAPEAXI@Z 0000000180023ec0 f i GRBLdlg.obj
 0001:00022ec0       ??_E?$dynamic_xpression@Umark_end_matcher@detail@xpressive@boost@@V?$_String_const_iterator@V?$_String_val@U?$_Simple_types@D@std@@@std@@@std@@@detail@xpressive@boost@@UEAAPEAXI@Z 0000000180023ec0 f i * CIL library *:* CIL module *
 0001:00022ec0       ??_E?$dynamic_xpression@U?$assert_word_matcher@Uword_end@detail@xpressive@boost@@U?$regex_traits@DU?$cpp_regex_traits@D@xpressive@boost@@@34@@detail@xpressive@boost@@V?$_String_const_iterator@V?$_String_val@U?$_Simple_types@D@std@@@std@@@std@@@detail@xpressive@boost@@UEAAPEAXI@Z 0000000180023ec0 f i * CIL library *:* CIL module *
 0001:00022ec0       ??_E?$dynamic_xpression@U?$assert_word_matcher@Uword_begin@detail@xpressive@boost@@U?$regex_traits@DU?$cpp_regex_traits@D@xpressive@boost@@@34@@detail@xpressive@boost@@V?$_String_const_iterator@V?$_String_val@U?$_Simple_types@D@std@@@std@@@std@@@detail@xpressive@boost@@UEAAPEAXI@Z 0000000180023ec0 f i * CIL library *:* CIL module *
 0001:00022ec0       ??_G?$dynamic_xpression@Urepeat_begin_matcher@detail@xpressive@boost@@V?$_String_const_iterator@V?$_String_val@U?$_Simple_types@D@std@@@std@@@std@@@detail@xpressive@boost@@UEAAPEAXI@Z 0000000180023ec0 f i GRBLdlg.obj
 0001:00022ec0       ??_G?$dynamic_xpression@U?$set_matcher@U?$regex_traits@DU?$cpp_regex_traits@D@xpressive@boost@@@xpressive@boost@@U?$int_@$01@mpl@3@@detail@xpressive@boost@@V?$_String_const_iterator@V?$_String_val@U?$_Simple_types@D@std@@@std@@@std@@@detail@xpressive@boost@@UEAAPEAXI@Z 0000000180023ec0 f i GRBLdlg.obj
 0001:00022ec0       ??_E?$dynamic_xpression@U?$set_matcher@U?$regex_traits@DU?$cpp_regex_traits@D@xpressive@boost@@@xpressive@boost@@U?$int_@$01@mpl@3@@detail@xpressive@boost@@V?$_String_const_iterator@V?$_String_val@U?$_Simple_types@D@std@@@std@@@std@@@detail@xpressive@boost@@UEAAPEAXI@Z 0000000180023ec0 f i * CIL library *:* CIL module *
 0001:00022ec0       ??_G?$dynamic_xpression@U?$assert_word_matcher@Uword_end@detail@xpressive@boost@@U?$regex_traits@DU?$cpp_regex_traits@D@xpressive@boost@@@34@@detail@xpressive@boost@@V?$_String_const_iterator@V?$_String_val@U?$_Simple_types@D@std@@@std@@@std@@@detail@xpressive@boost@@UEAAPEAXI@Z 0000000180023ec0 f i GRBLdlg.obj
 0001:00022ec0       ??_E?$dynamic_xpression@U?$literal_matcher@U?$regex_traits@DU?$cpp_regex_traits@D@xpressive@boost@@@xpressive@boost@@U?$bool_@$00@mpl@3@U?$bool_@$0A@@53@@detail@xpressive@boost@@V?$_String_const_iterator@V?$_String_val@U?$_Simple_types@D@std@@@std@@@std@@@detail@xpressive@boost@@UEAAPEAXI@Z 0000000180023ec0 f i * CIL library *:* CIL module *
 0001:00022ec0       ??_E?$dynamic_xpression@Umark_begin_matcher@detail@xpressive@boost@@V?$_String_const_iterator@V?$_String_val@U?$_Simple_types@D@std@@@std@@@std@@@detail@xpressive@boost@@UEAAPEAXI@Z 0000000180023ec0 f i * CIL library *:* CIL module *
 0001:00022ec0       ??_G?$dynamic_xpression@U?$mark_matcher@U?$regex_traits@DU?$cpp_regex_traits@D@xpressive@boost@@@xpressive@boost@@U?$bool_@$00@mpl@3@@detail@xpressive@boost@@V?$_String_const_iterator@V?$_String_val@U?$_Simple_types@D@std@@@std@@@std@@@detail@xpressive@boost@@UEAAPEAXI@Z 0000000180023ec0 f i GRBLdlg.obj
 0001:00022ec0       ??_G?$dynamic_xpression@Umark_end_matcher@detail@xpressive@boost@@V?$_String_const_iterator@V?$_String_val@U?$_Simple_types@D@std@@@std@@@std@@@detail@xpressive@boost@@UEAAPEAXI@Z 0000000180023ec0 f i GRBLdlg.obj
 0001:00022ec0       ??_G?$dynamic_xpression@U?$assert_word_matcher@U?$word_boundary@U?$bool_@$00@mpl@boost@@@detail@xpressive@boost@@U?$regex_traits@DU?$cpp_regex_traits@D@xpressive@boost@@@34@@detail@xpressive@boost@@V?$_String_const_iterator@V?$_String_val@U?$_Simple_types@D@std@@@std@@@std@@@detail@xpressive@boost@@UEAAPEAXI@Z 0000000180023ec0 f i GRBLdlg.obj
 0001:00022ec0       ??_G?$dynamic_xpression@U?$assert_bol_matcher@U?$regex_traits@DU?$cpp_regex_traits@D@xpressive@boost@@@xpressive@boost@@@detail@xpressive@boost@@V?$_String_const_iterator@V?$_String_val@U?$_Simple_types@D@std@@@std@@@std@@@detail@xpressive@boost@@UEAAPEAXI@Z 0000000180023ec0 f i GRBLdlg.obj
 0001:00022ec0       ??_E?$dynamic_xpression@U?$assert_word_matcher@U?$word_boundary@U?$bool_@$00@mpl@boost@@@detail@xpressive@boost@@U?$regex_traits@DU?$cpp_regex_traits@D@xpressive@boost@@@34@@detail@xpressive@boost@@V?$_String_const_iterator@V?$_String_val@U?$_Simple_types@D@std@@@std@@@std@@@detail@xpressive@boost@@UEAAPEAXI@Z 0000000180023ec0 f i * CIL library *:* CIL module *
 0001:00022ec0       ??_G?$dynamic_xpression@U?$literal_matcher@U?$regex_traits@DU?$cpp_regex_traits@D@xpressive@boost@@@xpressive@boost@@U?$bool_@$00@mpl@3@U?$bool_@$0A@@53@@detail@xpressive@boost@@V?$_String_const_iterator@V?$_String_val@U?$_Simple_types@D@std@@@std@@@std@@@detail@xpressive@boost@@UEAAPEAXI@Z 0000000180023ec0 f i GRBLdlg.obj
 0001:00022ec0       ??_G?$dynamic_xpression@U?$assert_word_matcher@U?$word_boundary@U?$bool_@$0A@@mpl@boost@@@detail@xpressive@boost@@U?$regex_traits@DU?$cpp_regex_traits@D@xpressive@boost@@@34@@detail@xpressive@boost@@V?$_String_const_iterator@V?$_String_val@U?$_Simple_types@D@std@@@std@@@std@@@detail@xpressive@boost@@UEAAPEAXI@Z 0000000180023ec0 f i GRBLdlg.obj
 0001:00022ec0       ??_G?$dynamic_xpression@U?$assert_word_matcher@Uword_begin@detail@xpressive@boost@@U?$regex_traits@DU?$cpp_regex_traits@D@xpressive@boost@@@34@@detail@xpressive@boost@@V?$_String_const_iterator@V?$_String_val@U?$_Simple_types@D@std@@@std@@@std@@@detail@xpressive@boost@@UEAAPEAXI@Z 0000000180023ec0 f i GRBLdlg.obj
 0001:00022ec0       ??_G?$dynamic_xpression@U?$mark_matcher@U?$regex_traits@DU?$cpp_regex_traits@D@xpressive@boost@@@xpressive@boost@@U?$bool_@$0A@@mpl@3@@detail@xpressive@boost@@V?$_String_const_iterator@V?$_String_val@U?$_Simple_types@D@std@@@std@@@std@@@detail@xpressive@boost@@UEAAPEAXI@Z 0000000180023ec0 f i GRBLdlg.obj
 0001:00022ec0       ??_G?$dynamic_xpression@U?$literal_matcher@U?$regex_traits@DU?$cpp_regex_traits@D@xpressive@boost@@@xpressive@boost@@U?$bool_@$0A@@mpl@3@U453@@detail@xpressive@boost@@V?$_String_const_iterator@V?$_String_val@U?$_Simple_types@D@std@@@std@@@std@@@detail@xpressive@boost@@UEAAPEAXI@Z 0000000180023ec0 f i GRBLdlg.obj
 0001:00022ec0       ??_E?$dynamic_xpression@Urepeat_begin_matcher@detail@xpressive@boost@@V?$_String_const_iterator@V?$_String_val@U?$_Simple_types@D@std@@@std@@@std@@@detail@xpressive@boost@@UEAAPEAXI@Z 0000000180023ec0 f i * CIL library *:* CIL module *
 0001:00022ec0       ??_E?$dynamic_xpression@U?$assert_eol_matcher@U?$regex_traits@DU?$cpp_regex_traits@D@xpressive@boost@@@xpressive@boost@@@detail@xpressive@boost@@V?$_String_const_iterator@V?$_String_val@U?$_Simple_types@D@std@@@std@@@std@@@detail@xpressive@boost@@UEAAPEAXI@Z 0000000180023ec0 f i * CIL library *:* CIL module *
 0001:00022ec0       ??_E?$dynamic_xpression@U?$literal_matcher@U?$regex_traits@DU?$cpp_regex_traits@D@xpressive@boost@@@xpressive@boost@@U?$bool_@$0A@@mpl@3@U453@@detail@xpressive@boost@@V?$_String_const_iterator@V?$_String_val@U?$_Simple_types@D@std@@@std@@@std@@@detail@xpressive@boost@@UEAAPEAXI@Z 0000000180023ec0 f i * CIL library *:* CIL module *
 0001:00022ec0       ??_G?$dynamic_xpression@U?$literal_matcher@U?$regex_traits@DU?$cpp_regex_traits@D@xpressive@boost@@@xpressive@boost@@U?$bool_@$0A@@mpl@3@U?$bool_@$00@53@@detail@xpressive@boost@@V?$_String_const_iterator@V?$_String_val@U?$_Simple_types@D@std@@@std@@@std@@@detail@xpressive@boost@@UEAAPEAXI@Z 0000000180023ec0 f i GRBLdlg.obj
 0001:00022ec0       ??_E?$dynamic_xpression@U?$assert_word_matcher@U?$word_boundary@U?$bool_@$0A@@mpl@boost@@@detail@xpressive@boost@@U?$regex_traits@DU?$cpp_regex_traits@D@xpressive@boost@@@34@@detail@xpressive@boost@@V?$_String_const_iterator@V?$_String_val@U?$_Simple_types@D@std@@@std@@@std@@@detail@xpressive@boost@@UEAAPEAXI@Z 0000000180023ec0 f i * CIL library *:* CIL module *
 0001:00022ec0       ??_E?$dynamic_xpression@U?$posix_charset_matcher@U?$regex_traits@DU?$cpp_regex_traits@D@xpressive@boost@@@xpressive@boost@@@detail@xpressive@boost@@V?$_String_const_iterator@V?$_String_val@U?$_Simple_types@D@std@@@std@@@std@@@detail@xpressive@boost@@UEAAPEAXI@Z 0000000180023ec0 f i * CIL library *:* CIL module *
 0001:00022ec0       ??_E?$dynamic_xpression@U?$mark_matcher@U?$regex_traits@DU?$cpp_regex_traits@D@xpressive@boost@@@xpressive@boost@@U?$bool_@$00@mpl@3@@detail@xpressive@boost@@V?$_String_const_iterator@V?$_String_val@U?$_Simple_types@D@std@@@std@@@std@@@detail@xpressive@boost@@UEAAPEAXI@Z 0000000180023ec0 f i * CIL library *:* CIL module *
 0001:00022ec0       ??_E?$dynamic_xpression@Ualternate_end_matcher@detail@xpressive@boost@@V?$_String_const_iterator@V?$_String_val@U?$_Simple_types@D@std@@@std@@@std@@@detail@xpressive@boost@@UEAAPEAXI@Z 0000000180023ec0 f i * CIL library *:* CIL module *
 0001:00022f40       ?deallocate@?$_Wrap_alloc@V?$allocator@U?$shared_matchable@V?$_String_const_iterator@V?$_String_val@U?$_Simple_types@D@std@@@std@@@std@@@detail@xpressive@boost@@@std@@@std@@QEAAXPEAU?$shared_matchable@V?$_String_const_iterator@V?$_String_val@U?$_Simple_types@D@std@@@std@@@std@@@detail@xpressive@boost@@_K@Z 0000000180023f40 f i GRBLdlg.obj
 0001:00022f40       ?deallocate@?$_Wrap_alloc@V?$allocator@V?$intrusive_ptr@Vbasic_cv_list_entry@detail@boost@@@boost@@@std@@@std@@QEAAXPEAV?$intrusive_ptr@Vbasic_cv_list_entry@detail@boost@@@boost@@_K@Z 0000000180023f40 f i SerialPort.obj
 0001:00022f40       ?deallocate@?$_Wrap_alloc@V?$allocator@PEAVSerialObserver@serial@@@std@@@std@@QEAAXPEAPEAVSerialObserver@serial@@_K@Z 0000000180023f40 f i SerialPort.obj
 0001:00022fc0       ??@e163ce6f5d9f6e56b5ce4bb58ce5ad6a@ 0000000180023fc0 f i GRBLdlg.obj
 0001:00023240       ??@3036d494050141f244e54d55365f1d36@ 0000000180024240 f i GRBLdlg.obj
 0001:000234a0       ?_Reallocate@?$vector@U?$shared_matchable@V?$_String_const_iterator@V?$_String_val@U?$_Simple_types@D@std@@@std@@@std@@@detail@xpressive@boost@@V?$allocator@U?$shared_matchable@V?$_String_const_iterator@V?$_String_val@U?$_Simple_types@D@std@@@std@@@std@@@detail@xpressive@boost@@@std@@@std@@IEAAX_K@Z 00000001800244a0 f i GRBLdlg.obj
 0001:00023520       ??@153f976a6c6f3e166dc51e34cc6705d5@ 0000000180024520 f i GRBLdlg.obj
 0001:00023700       ?allocate@?$allocator@U?$shared_matchable@V?$_String_const_iterator@V?$_String_val@U?$_Simple_types@D@std@@@std@@@std@@@detail@xpressive@boost@@@std@@QEAAPEAU?$shared_matchable@V?$_String_const_iterator@V?$_String_val@U?$_Simple_types@D@std@@@std@@@std@@@detail@xpressive@boost@@_K@Z 0000000180024700 f i GRBLdlg.obj
 0001:00023700       ?allocate@?$allocator@PEAVSerialObserver@serial@@@std@@QEAAPEAPEAVSerialObserver@serial@@_K@Z 0000000180024700 f i SerialPort.obj
 0001:00023790       ??@1da85942155dcb13c6f5b91f3a4986e0@ 0000000180024790 f i GRBLdlg.obj
 0001:00023960       ??R?$reverse_fold_impl@U_state@proto@boost@@U?$Grammar@D@xpressive@3@U?$expr@Ushift_right@tag@tagns_@proto@boost@@U?$list2@AEBU?$expr@Uassign@tag@tagns_@proto@boost@@U?$list2@AEBU?$expr@Uterminal@tag@tagns_@proto@boost@@U?$term@Umark_placeholder@detail@xpressive@boost@@@argsns_@45@$0A@@exprns_@proto@boost@@AEBU?$expr@Ushift_right@tag@tagns_@proto@boost@@U?$list2@AEBU?$expr@Uterminal@tag@tagns_@proto@boost@@U?$term@Uposix_charset_placeholder@detail@xpressive@boost@@@argsns_@45@$0A@@exprns_@proto@boost@@AEBU?$expr@Uunary_plus@tag@tagns_@proto@boost@@U?$list1@AEBU?$expr@Uterminal@tag@tagns_@proto@boost@@U?$term@Uposix_charset_placeholder@detail@xpressive@boost@@@argsns_@45@$0A@@exprns_@proto@boost@@@argsns_@45@$00@234@@argsns_@45@$01@234@@argsns_@45@$01@exprns_@proto@boost@@U?$expr@Uterminal@tag@tagns_@proto@boost@@U?$term@U?$repeat_end_matcher@U?$bool_@$00@mpl@boost@@@detail@xpressive@boost@@@argsns_@45@$0A@@234@@argsns_@45@$01@exprns_@23@U?$static_xpression@Ualternate_end_matcher@detail@xpressive@boost@@Uno_next@234@@detail@53@AEAU?$xpression_visitor@V?$_String_const_iterator@V?$_String_val@U?$_Simple_types@D@std@@@std@@@std@@U?$bool_@$0A@@mpl@boost@@U?$cpp_regex_traits@D@xpressive@5@@953@$01@detail@proto@boost@@QEBA?AU?$static_xpression@Umark_begin_matcher@detail@xpressive@boost@@U?$static_xpression@U?$posix_charset_matcher@U?$cpp_regex_traits@D@xpressive@boost@@@detail@xpressive@boost@@U?$static_xpression@U?$simple_repeat_matcher@U?$static_xpression@U?$posix_charset_matcher@U?$cpp_regex_traits@D@xpressive@boost@@@detail@xpressive@boost@@U?$static_xpression@Utrue_matcher@detail@xpressive@boost@@Uno_next@234@@234@@detail@xpressive@boost@@U?$bool_@$00@mpl@4@@detail@xpressive@boost@@U?$static_xpression@Umark_end_matcher@detail@xpressive@boost@@U?$static_xpression@U?$repeat_end_matcher@U?$bool_@$00@mpl@boost@@@detail@xpressive@boost@@U?$static_xpression@Ualternate_end_matcher@detail@xpressive@boost@@Uno_next@234@@234@@234@@234@@234@@234@@1xpressive@3@AEBU?$expr@Ushift_right@tag@tagns_@proto@boost@@U?$list2@AEBU?$expr@Uassign@tag@tagns_@proto@boost@@U?$list2@AEBU?$expr@Uterminal@tag@tagns_@proto@boost@@U?$term@Umark_placeholder@detail@xpressive@boost@@@argsns_@45@$0A@@exprns_@proto@boost@@AEBU?$expr@Ushift_right@tag@tagns_@proto@boost@@U?$list2@AEBU?$expr@Uterminal@tag@tagns_@proto@boost@@U?$term@Uposix_charset_placeholder@detail@xpressive@boost@@@argsns_@45@$0A@@exprns_@proto@boost@@AEBU?$expr@Uunary_plus@tag@tagns_@proto@boost@@U?$list1@AEBU?$expr@Uterminal@tag@tagns_@proto@boost@@U?$term@Uposix_charset_placeholder@detail@xpressive@boost@@@argsns_@45@$0A@@exprns_@proto@boost@@@argsns_@45@$00@234@@argsns_@45@$01@234@@argsns_@45@$01@exprns_@proto@boost@@U?$expr@Uterminal@tag@tagns_@proto@boost@@U?$term@U?$repeat_end_matcher@U?$bool_@$00@mpl@boost@@@detail@xpressive@boost@@@argsns_@45@$0A@@234@@argsns_@45@$01@exprns_@23@AEBU?$static_xpression@Ualternate_end_matcher@detail@xpressive@boost@@Uno_next@234@@153@AEAU?$xpression_visitor@V?$_String_const_iterator@V?$_String_val@U?$_Simple_types@D@std@@@std@@@std@@U?$bool_@$0A@@mpl@boost@@U?$cpp_regex_traits@D@xpressive@5@@153@@Z 0000000180024960 f i GRBLdlg.obj
 0001:00023b20       ??$_Sort_unchecked1@PEAD_JU?$less@X@std@@@std@@YAXPEAD0_JAEAU?$less@X@0@@Z 0000000180024b20 f i GRBLdlg.obj
 0001:00023c40       ??$assign_to@U?$token_finderF@U?$is_any_ofF@D@detail@algorithm@boost@@@detail@algorithm@boost@@@?$function2@V?$iterator_range@V?$_String_iterator@V?$_String_val@U?$_Simple_types@D@std@@@std@@@std@@@boost@@V?$_String_iterator@V?$_String_val@U?$_Simple_types@D@std@@@std@@@std@@V34@@boost@@AEAAXU?$token_finderF@U?$is_any_ofF@D@detail@algorithm@boost@@@detail@algorithm@1@@Z 0000000180024c40 f i GRBLdlg.obj
 0001:00023d10       ??$assign_to@U?$token_finderF@U?$is_any_ofF@D@detail@algorithm@boost@@@detail@algorithm@boost@@@?$function2@V?$iterator_range@PEBD@boost@@PEBDPEBD@boost@@AEAAXU?$token_finderF@U?$is_any_ofF@D@detail@algorithm@boost@@@detail@algorithm@1@@Z 0000000180024d10 f i GRBLdlg.obj
 0001:00023de0       ??@bf38a87c0d25676605927eef1e873f14@ 0000000180024de0 f i GRBLdlg.obj
 0001:00023e70       ??$common_compile@V?$_String_const_iterator@V?$_String_val@U?$_Simple_types@D@std@@@std@@@std@@U?$cpp_regex_traits@D@xpressive@boost@@@detail@xpressive@boost@@YAXAEBV?$intrusive_ptr@$$CBU?$matchable_ex@V?$_String_const_iterator@V?$_String_val@U?$_Simple_types@D@std@@@std@@@std@@@detail@xpressive@boost@@@2@AEAU?$regex_impl@V?$_String_const_iterator@V?$_String_val@U?$_Simple_types@D@std@@@std@@@std@@@012@AEBU?$cpp_regex_traits@D@12@@Z 0000000180024e70 f i GRBLdlg.obj
 0001:00024070       ??$make_adaptor@U?$matchable_ex@V?$_String_const_iterator@V?$_String_val@U?$_Simple_types@D@std@@@std@@@std@@@detail@xpressive@boost@@U?$static_xpression@Umark_begin_matcher@detail@xpressive@boost@@U?$static_xpression@Uassert_bos_matcher@detail@xpressive@boost@@U?$static_xpression@U?$literal_matcher@U?$cpp_regex_traits@D@xpressive@boost@@U?$bool_@$0A@@mpl@3@U453@@detail@xpressive@boost@@U?$static_xpression@U?$simple_repeat_matcher@U?$static_xpression@U?$posix_charset_matcher@U?$cpp_regex_traits@D@xpressive@boost@@@detail@xpressive@boost@@U?$static_xpression@Utrue_matcher@detail@xpressive@boost@@Uno_next@234@@234@@detail@xpressive@boost@@U?$bool_@$00@mpl@4@@detail@xpressive@boost@@U?$static_xpression@Umark_end_matcher@detail@xpressive@boost@@U?$static_xpression@Umark_begin_matcher@detail@xpressive@boost@@U?$static_xpression@U?$simple_repeat_matcher@U?$static_xpression@Uany_matcher@detail@xpressive@boost@@U?$static_xpression@Utrue_matcher@detail@xpressive@boost@@Uno_next@234@@234@@detail@xpressive@boost@@U?$bool_@$00@mpl@4@@detail@xpressive@boost@@U?$static_xpression@Umark_end_matcher@detail@xpressive@boost@@U?$static_xpression@Uend_matcher@detail@xpressive@boost@@Uno_next@234@@234@@234@@234@@234@@234@@234@@234@@234@@234@@detail@xpressive@boost@@YA?AV?$intrusive_ptr@$$CBU?$matchable_ex@V?$_String_const_iterator@V?$_String_val@U?$_Simple_types@D@std@@@std@@@std@@@detail@xpressive@boost@@@2@AEBU?$static_xpression@Umark_begin_matcher@detail@xpressive@boost@@U?$static_xpression@Uassert_bos_matcher@detail@xpressive@boost@@U?$static_xpression@U?$literal_matcher@U?$cpp_regex_traits@D@xpressive@boost@@U?$bool_@$0A@@mpl@3@U453@@detail@xpressive@boost@@U?$static_xpression@U?$simple_repeat_matcher@U?$static_xpression@U?$posix_charset_matcher@U?$cpp_regex_traits@D@xpressive@boost@@@detail@xpressive@boost@@U?$static_xpression@Utrue_matcher@detail@xpressive@boost@@Uno_next@234@@234@@detail@xpressive@boost@@U?$bool_@$00@mpl@4@@detail@xpressive@boost@@U?$static_xpression@Umark_end_matcher@detail@xpressive@boost@@U?$static_xpression@Umark_begin_matcher@detail@xpressive@boost@@U?$static_xpression@U?$simple_repeat_matcher@U?$static_xpression@Uany_matcher@detail@xpressive@boost@@U?$static_xpression@Utrue_matcher@detail@xpressive@boost@@Uno_next@234@@234@@detail@xpressive@boost@@U?$bool_@$00@mpl@4@@detail@xpressive@boost@@U?$static_xpression@Umark_end_matcher@detail@xpressive@boost@@U?$static_xpression@Uend_matcher@detail@xpressive@boost@@Uno_next@234@@234@@234@@234@@234@@234@@234@@234@@234@@012@@Z 0000000180025070 f i GRBLdlg.obj
 0001:00024120       ??@2681b52b24bef8899274f69af9957566@ 0000000180025120 f i GRBLdlg.obj
 0001:000241f0       ??$_Copy_unchecked1@PEBDV?$back_insert_iterator@V?$basic_string@DU?$char_traits@D@std@@V?$allocator@D@2@@std@@@std@@@std@@YA?AV?$back_insert_iterator@V?$basic_string@DU?$char_traits@D@std@@V?$allocator@D@2@@std@@@0@PEBD0V10@U_General_ptr_iterator_tag@0@@Z 00000001800251f0 f i GRBLdlg.obj
 0001:000242c0       ??$format_backref_@PEBDV?$back_insert_iterator@V?$basic_string@DU?$char_traits@D@std@@V?$allocator@D@2@@std@@@std@@@?$match_results@V?$_String_const_iterator@V?$_String_val@U?$_Simple_types@D@std@@@std@@@std@@@xpressive@boost@@AEBA?AV?$back_insert_iterator@V?$basic_string@DU?$char_traits@D@std@@V?$allocator@D@2@@std@@@std@@AEAPEBDPEBDV34@@Z 00000001800252c0 f i GRBLdlg.obj
 0001:000246c0       ??$make_adaptor@U?$matchable_ex@V?$_String_const_iterator@V?$_String_val@U?$_Simple_types@D@std@@@std@@@std@@@detail@xpressive@boost@@U?$static_xpression@U?$literal_matcher@U?$cpp_regex_traits@D@xpressive@boost@@U?$bool_@$0A@@mpl@3@U453@@detail@xpressive@boost@@U?$static_xpression@U?$simple_repeat_matcher@U?$static_xpression@U?$literal_matcher@U?$cpp_regex_traits@D@xpressive@boost@@U?$bool_@$0A@@mpl@3@U?$bool_@$00@53@@detail@xpressive@boost@@U?$static_xpression@Utrue_matcher@detail@xpressive@boost@@Uno_next@234@@234@@detail@xpressive@boost@@U?$bool_@$00@mpl@4@@detail@xpressive@boost@@U?$static_xpression@U?$literal_matcher@U?$cpp_regex_traits@D@xpressive@boost@@U?$bool_@$0A@@mpl@3@U453@@detail@xpressive@boost@@U?$static_xpression@Uend_matcher@detail@xpressive@boost@@Uno_next@234@@234@@234@@234@@234@@detail@xpressive@boost@@YA?AV?$intrusive_ptr@$$CBU?$matchable_ex@V?$_String_const_iterator@V?$_String_val@U?$_Simple_types@D@std@@@std@@@std@@@detail@xpressive@boost@@@2@AEBU?$static_xpression@U?$literal_matcher@U?$cpp_regex_traits@D@xpressive@boost@@U?$bool_@$0A@@mpl@3@U453@@detail@xpressive@boost@@U?$static_xpression@U?$simple_repeat_matcher@U?$static_xpression@U?$literal_matcher@U?$cpp_regex_traits@D@xpressive@boost@@U?$bool_@$0A@@mpl@3@U?$bool_@$00@53@@detail@xpressive@boost@@U?$static_xpression@Utrue_matcher@detail@xpressive@boost@@Uno_next@234@@234@@detail@xpressive@boost@@U?$bool_@$00@mpl@4@@detail@xpressive@boost@@U?$static_xpression@U?$literal_matcher@U?$cpp_regex_traits@D@xpressive@boost@@U?$bool_@$0A@@mpl@3@U453@@detail@xpressive@boost@@U?$static_xpression@Uend_matcher@detail@xpressive@boost@@Uno_next@234@@234@@234@@234@@012@@Z 00000001800256c0 f i GRBLdlg.obj
 0001:00024750       ??$eat_ws_@V?$_String_const_iterator@V?$_String_val@U?$_Simple_types@D@std@@@std@@@std@@@?$compiler_traits@U?$regex_traits@DU?$cpp_regex_traits@D@xpressive@boost@@@xpressive@boost@@@xpressive@boost@@AEAAAEAV?$_String_const_iterator@V?$_String_val@U?$_Simple_types@D@std@@@std@@@std@@AEAV34@V34@@Z 0000000180025750 f i GRBLdlg.obj
 0001:00024820       ??$get_escape_token@V?$_String_const_iterator@V?$_String_val@U?$_Simple_types@D@std@@@std@@@std@@@?$compiler_traits@U?$regex_traits@DU?$cpp_regex_traits@D@xpressive@boost@@@xpressive@boost@@@xpressive@boost@@QEAA?AW4compiler_token_type@regex_constants@12@AEAV?$_String_const_iterator@V?$_String_val@U?$_Simple_types@D@std@@@std@@@std@@V56@@Z 0000000180025820 f i GRBLdlg.obj
 0001:00024920       ??$get_name_@V?$_String_const_iterator@V?$_String_val@U?$_Simple_types@D@std@@@std@@@std@@@?$compiler_traits@U?$regex_traits@DU?$cpp_regex_traits@D@xpressive@boost@@@xpressive@boost@@@xpressive@boost@@AEAAXAEAV?$_String_const_iterator@V?$_String_val@U?$_Simple_types@D@std@@@std@@@std@@V34@AEAV?$basic_string@DU?$char_traits@D@std@@V?$allocator@D@2@@4@@Z 0000000180025920 f i GRBLdlg.obj
 0001:00024b10       ??$parse_mods_@V?$_String_const_iterator@V?$_String_val@U?$_Simple_types@D@std@@@std@@@std@@@?$compiler_traits@U?$regex_traits@DU?$cpp_regex_traits@D@xpressive@boost@@@xpressive@boost@@@xpressive@boost@@AEAA?AW4compiler_token_type@regex_constants@12@AEAV?$_String_const_iterator@V?$_String_val@U?$_Simple_types@D@std@@@std@@@std@@V56@@Z 0000000180025b10 f i GRBLdlg.obj
 0001:00024e10       ??$parse_sequence@V?$_String_const_iterator@V?$_String_val@U?$_Simple_types@D@std@@@std@@@std@@@?$regex_compiler@V?$_String_const_iterator@V?$_String_val@U?$_Simple_types@D@std@@@std@@@std@@U?$regex_traits@DU?$cpp_regex_traits@D@xpressive@boost@@@xpressive@boost@@U?$compiler_traits@U?$regex_traits@DU?$cpp_regex_traits@D@xpressive@boost@@@xpressive@boost@@@45@@xpressive@boost@@AEAA?AU?$sequence@V?$_String_const_iterator@V?$_String_val@U?$_Simple_types@D@std@@@std@@@std@@@detail@12@AEAV?$_String_const_iterator@V?$_String_val@U?$_Simple_types@D@std@@@std@@@std@@V56@@Z 0000000180025e10 f i GRBLdlg.obj
 0001:00025030       ??$make_dynamic@V?$_String_const_iterator@V?$_String_val@U?$_Simple_types@D@std@@@std@@@std@@U?$alternate_matcher@U?$alternates_vector@V?$_String_const_iterator@V?$_String_val@U?$_Simple_types@D@std@@@std@@@std@@@detail@xpressive@boost@@U?$regex_traits@DU?$cpp_regex_traits@D@xpressive@boost@@@34@@detail@xpressive@boost@@@detail@xpressive@boost@@YA?AU?$sequence@V?$_String_const_iterator@V?$_String_val@U?$_Simple_types@D@std@@@std@@@std@@@012@AEBU?$alternate_matcher@U?$alternates_vector@V?$_String_const_iterator@V?$_String_val@U?$_Simple_types@D@std@@@std@@@std@@@detail@xpressive@boost@@U?$regex_traits@DU?$cpp_regex_traits@D@xpressive@boost@@@34@@012@@Z 0000000180026030 f i GRBLdlg.obj
 0001:00025190       ??$?UV?$_String_const_iterator@V?$_String_val@U?$_Simple_types@D@std@@@std@@@std@@@detail@xpressive@boost@@YA?AU?$sequence@V?$_String_const_iterator@V?$_String_val@U?$_Simple_types@D@std@@@std@@@std@@@012@U3012@AEBU3012@@Z 0000000180026190 f i GRBLdlg.obj
 0001:000252c0       ??$optimize_regex@V?$_String_const_iterator@V?$_String_val@U?$_Simple_types@D@std@@@std@@@std@@U?$regex_traits@DU?$cpp_regex_traits@D@xpressive@boost@@@xpressive@boost@@@detail@xpressive@boost@@YA?AV?$intrusive_ptr@U?$finder@V?$_String_const_iterator@V?$_String_val@U?$_Simple_types@D@std@@@std@@@std@@@detail@xpressive@boost@@@2@AEBU?$xpression_peeker@D@012@AEBU?$regex_traits@DU?$cpp_regex_traits@D@xpressive@boost@@@12@U?$bool_@$00@mpl@2@@Z 00000001800262c0 f i GRBLdlg.obj
 0001:00025370       ??$_Buynode@V?$weak_ptr@U?$regex_impl@V?$_String_const_iterator@V?$_String_val@U?$_Simple_types@D@std@@@std@@@std@@@detail@xpressive@boost@@@boost@@@?$_Tree_comp_alloc@V?$_Tset_traits@V?$weak_ptr@U?$regex_impl@V?$_String_const_iterator@V?$_String_val@U?$_Simple_types@D@std@@@std@@@std@@@detail@xpressive@boost@@@boost@@U?$less@V?$weak_ptr@U?$regex_impl@V?$_String_const_iterator@V?$_String_val@U?$_Simple_types@D@std@@@std@@@std@@@detail@xpressive@boost@@@boost@@@std@@V?$allocator@V?$weak_ptr@U?$regex_impl@V?$_String_const_iterator@V?$_String_val@U?$_Simple_types@D@std@@@std@@@std@@@detail@xpressive@boost@@@boost@@@4@$0A@@std@@@std@@QEAAPEAU?$_Tree_node@V?$weak_ptr@U?$regex_impl@V?$_String_const_iterator@V?$_String_val@U?$_Simple_types@D@std@@@std@@@std@@@detail@xpressive@boost@@@boost@@PEAX@1@$$QEAV?$weak_ptr@U?$regex_impl@V?$_String_const_iterator@V?$_String_val@U?$_Simple_types@D@std@@@std@@@std@@@detail@xpressive@boost@@@boost@@@Z 0000000180026370 f i GRBLdlg.obj
 0001:000253b0       ??$make_dynamic@V?$_String_const_iterator@V?$_String_val@U?$_Simple_types@D@std@@@std@@@std@@Utrue_matcher@detail@xpressive@boost@@@detail@xpressive@boost@@YA?AU?$sequence@V?$_String_const_iterator@V?$_String_val@U?$_Simple_types@D@std@@@std@@@std@@@012@AEBUtrue_matcher@012@@Z 00000001800263b0 f i GRBLdlg.obj
 0001:000254e0       ??$make_simple_repeat@V?$_String_const_iterator@V?$_String_val@U?$_Simple_types@D@std@@@std@@@std@@U?$shared_matchable@V?$_String_const_iterator@V?$_String_val@U?$_Simple_types@D@std@@@std@@@std@@@detail@xpressive@boost@@@detail@xpressive@boost@@YAXAEBUquant_spec@012@AEAU?$sequence@V?$_String_const_iterator@V?$_String_val@U?$_Simple_types@D@std@@@std@@@std@@@012@AEBU?$shared_matchable@V?$_String_const_iterator@V?$_String_val@U?$_Simple_types@D@std@@@std@@@std@@@012@@Z 00000001800264e0 f i GRBLdlg.obj
 0001:000256d0       ??$make_dynamic@V?$_String_const_iterator@V?$_String_val@U?$_Simple_types@D@std@@@std@@@std@@Umark_begin_matcher@detail@xpressive@boost@@@detail@xpressive@boost@@YA?AU?$sequence@V?$_String_const_iterator@V?$_String_val@U?$_Simple_types@D@std@@@std@@@std@@@012@AEBUmark_begin_matcher@012@@Z 00000001800266d0 f i GRBLdlg.obj
 0001:00025800       ??$?HV?$_String_const_iterator@V?$_String_val@U?$_Simple_types@D@std@@@std@@@std@@@detail@xpressive@boost@@YA?AU?$sequence@V?$_String_const_iterator@V?$_String_val@U?$_Simple_types@D@std@@@std@@@std@@@012@U3012@AEBU3012@@Z 0000000180026800 f i GRBLdlg.obj
 0001:000258a0       ??$make_dynamic@V?$_String_const_iterator@V?$_String_val@U?$_Simple_types@D@std@@@std@@@std@@Umark_end_matcher@detail@xpressive@boost@@@detail@xpressive@boost@@YA?AU?$sequence@V?$_String_const_iterator@V?$_String_val@U?$_Simple_types@D@std@@@std@@@std@@@012@AEBUmark_end_matcher@012@@Z 00000001800268a0 f i GRBLdlg.obj
 0001:000259d0       ??$make_repeat@V?$_String_const_iterator@V?$_String_val@U?$_Simple_types@D@std@@@std@@@std@@@detail@xpressive@boost@@YAXAEBUquant_spec@012@AEAU?$sequence@V?$_String_const_iterator@V?$_String_val@U?$_Simple_types@D@std@@@std@@@std@@@012@H@Z 00000001800269d0 f i GRBLdlg.obj
 0001:00025b20       ??$make_optional@V?$_String_const_iterator@V?$_String_val@U?$_Simple_types@D@std@@@std@@@std@@@detail@xpressive@boost@@YAXAEBUquant_spec@012@AEAU?$sequence@V?$_String_const_iterator@V?$_String_val@U?$_Simple_types@D@std@@@std@@@std@@@012@@Z 0000000180026b20 f i GRBLdlg.obj
 0001:00025d90       ??$match@V?$_String_const_iterator@V?$_String_val@U?$_Simple_types@D@std@@@std@@@std@@Uno_next@detail@xpressive@boost@@@end_matcher@detail@xpressive@boost@@SA_NAEAU?$match_state@V?$_String_const_iterator@V?$_String_val@U?$_Simple_types@D@std@@@std@@@std@@@123@AEBUno_next@123@@Z 0000000180026d90 f i GRBLdlg.obj
 0001:00025d90       ??$match@V?$_String_const_iterator@V?$_String_val@U?$_Simple_types@D@std@@@std@@@std@@U?$matchable_ex@V?$_String_const_iterator@V?$_String_val@U?$_Simple_types@D@std@@@std@@@std@@@detail@xpressive@boost@@@end_matcher@detail@xpressive@boost@@SA_NAEAU?$match_state@V?$_String_const_iterator@V?$_String_val@U?$_Simple_types@D@std@@@std@@@std@@@123@AEBU?$matchable_ex@V?$_String_const_iterator@V?$_String_val@U?$_Simple_types@D@std@@@std@@@std@@@123@@Z 0000000180026d90 f i GRBLdlg.obj
 0001:00025e50       ??$get_invalid_xpression@V?$_String_const_iterator@V?$_String_val@U?$_Simple_types@D@std@@@std@@@std@@@detail@xpressive@boost@@YAAEBU?$shared_matchable@V?$_String_const_iterator@V?$_String_val@U?$_Simple_types@D@std@@@std@@@std@@@012@XZ 0000000180026e50 f i GRBLdlg.obj
 0001:00025fa0       ??$dereference@V?$transform_iterator@U?$copy_iterator_rangeF@V?$basic_string@DU?$char_traits@D@std@@V?$allocator@D@2@@std@@PEBD@detail@algorithm@boost@@V?$split_iterator@PEBD@34@Uuse_default@4@U64@@iterators@boost@@@iterator_core_access@iterators@boost@@CA?AV?$basic_string@DU?$char_traits@D@std@@V?$allocator@D@2@@std@@AEBV?$transform_iterator@U?$copy_iterator_rangeF@V?$basic_string@DU?$char_traits@D@std@@V?$allocator@D@2@@std@@PEBD@detail@algorithm@boost@@V?$split_iterator@PEBD@34@Uuse_default@4@U64@@12@@Z 0000000180026fa0 f i GRBLdlg.obj
 0001:00025fa0       ??$dereference@V?$transform_iterator@U?$copy_iterator_rangeF@V?$basic_string@DU?$char_traits@D@std@@V?$allocator@D@2@@std@@V?$_String_iterator@V?$_String_val@U?$_Simple_types@D@std@@@std@@@2@@detail@algorithm@boost@@V?$split_iterator@V?$_String_iterator@V?$_String_val@U?$_Simple_types@D@std@@@std@@@std@@@34@Uuse_default@4@U64@@iterators@boost@@@iterator_core_access@iterators@boost@@CA?AV?$basic_string@DU?$char_traits@D@std@@V?$allocator@D@2@@std@@AEBV?$transform_iterator@U?$copy_iterator_rangeF@V?$basic_string@DU?$char_traits@D@std@@V?$allocator@D@2@@std@@V?$_String_iterator@V?$_String_val@U?$_Simple_types@D@std@@@std@@@2@@detail@algorithm@boost@@V?$split_iterator@V?$_String_iterator@V?$_String_val@U?$_Simple_types@D@std@@@std@@@std@@@34@Uuse_default@4@U64@@12@@Z 0000000180026fa0 f i GRBLdlg.obj
 0001:00025fd0       ??$_Destroy_range@V?$allocator@U?$shared_matchable@V?$_String_const_iterator@V?$_String_val@U?$_Simple_types@D@std@@@std@@@std@@@detail@xpressive@boost@@@std@@PEAU?$shared_matchable@V?$_String_const_iterator@V?$_String_val@U?$_Simple_types@D@std@@@std@@@std@@@detail@xpressive@boost@@@std@@YAXPEAU?$shared_matchable@V?$_String_const_iterator@V?$_String_val@U?$_Simple_types@D@std@@@std@@@std@@@detail@xpressive@boost@@0AEAU?$_Wrap_alloc@V?$allocator@U?$shared_matchable@V?$_String_const_iterator@V?$_String_val@U?$_Simple_types@D@std@@@std@@@std@@@detail@xpressive@boost@@@std@@@0@@Z 0000000180026fd0 f i GRBLdlg.obj
 0001:00026040       ?match@?$invalid_xpression@V?$_String_const_iterator@V?$_String_val@U?$_Simple_types@D@std@@@std@@@std@@@detail@xpressive@boost@@UEBA_NAEAU?$match_state@V?$_String_const_iterator@V?$_String_val@U?$_Simple_types@D@std@@@std@@@std@@@234@@Z 0000000180027040 f i GRBLdlg.obj
 0001:00026040       ?ok_for_partial_matches@?$boyer_moore_finder@V?$_String_const_iterator@V?$_String_val@U?$_Simple_types@D@std@@@std@@@std@@U?$regex_traits@DU?$cpp_regex_traits@D@xpressive@boost@@@xpressive@boost@@@detail@xpressive@boost@@UEBA_NXZ 0000000180027040 f i GRBLdlg.obj
 0001:00026040       ?ok_for_partial_matches@?$boyer_moore_finder@V?$_String_const_iterator@V?$_String_val@U?$_Simple_types@D@std@@@std@@@std@@U?$cpp_regex_traits@D@xpressive@boost@@@detail@xpressive@boost@@UEBA_NXZ 0000000180027040 f i GRBLdlg.obj
 0001:00026050       ?repeat@?$dynamic_xpression@Umark_end_matcher@detail@xpressive@boost@@V?$_String_const_iterator@V?$_String_val@U?$_Simple_types@D@std@@@std@@@std@@@detail@xpressive@boost@@UEBAXAEBUquant_spec@234@AEAU?$sequence@V?$_String_const_iterator@V?$_String_val@U?$_Simple_types@D@std@@@std@@@std@@@234@@Z 0000000180027050 f i GRBLdlg.obj
 0001:00026060       ?link@?$dynamic_xpression@U?$literal_matcher@U?$regex_traits@DU?$cpp_regex_traits@D@xpressive@boost@@@xpressive@boost@@U?$bool_@$0A@@mpl@3@U?$bool_@$00@53@@detail@xpressive@boost@@V?$_String_const_iterator@V?$_String_val@U?$_Simple_types@D@std@@@std@@@std@@@detail@xpressive@boost@@UEBAXAEAU?$xpression_linker@D@234@@Z 0000000180027060 f i GRBLdlg.obj
 0001:00026060       ?link@?$dynamic_xpression@U?$assert_word_matcher@U?$word_boundary@U?$bool_@$00@mpl@boost@@@detail@xpressive@boost@@U?$regex_traits@DU?$cpp_regex_traits@D@xpressive@boost@@@34@@detail@xpressive@boost@@V?$_String_const_iterator@V?$_String_val@U?$_Simple_types@D@std@@@std@@@std@@@detail@xpressive@boost@@UEBAXAEAU?$xpression_linker@D@234@@Z 0000000180027060 f i GRBLdlg.obj
 0001:00026060       ?link@?$dynamic_xpression@U?$assert_word_matcher@Uword_end@detail@xpressive@boost@@U?$regex_traits@DU?$cpp_regex_traits@D@xpressive@boost@@@34@@detail@xpressive@boost@@V?$_String_const_iterator@V?$_String_val@U?$_Simple_types@D@std@@@std@@@std@@@detail@xpressive@boost@@UEBAXAEAU?$xpression_linker@D@234@@Z 0000000180027060 f i GRBLdlg.obj
 0001:00026060       ?link@?$dynamic_xpression@U?$assert_word_matcher@Uword_begin@detail@xpressive@boost@@U?$regex_traits@DU?$cpp_regex_traits@D@xpressive@boost@@@34@@detail@xpressive@boost@@V?$_String_const_iterator@V?$_String_val@U?$_Simple_types@D@std@@@std@@@std@@@detail@xpressive@boost@@UEBAXAEAU?$xpression_linker@D@234@@Z 0000000180027060 f i GRBLdlg.obj
 0001:00026060       ?link@?$dynamic_xpression@Umark_end_matcher@detail@xpressive@boost@@V?$_String_const_iterator@V?$_String_val@U?$_Simple_types@D@std@@@std@@@std@@@detail@xpressive@boost@@UEBAXAEAU?$xpression_linker@D@234@@Z 0000000180027060 f i GRBLdlg.obj
 0001:00026060       ?link@?$dynamic_xpression@U?$literal_matcher@U?$regex_traits@DU?$cpp_regex_traits@D@xpressive@boost@@@xpressive@boost@@U?$bool_@$00@mpl@3@U?$bool_@$0A@@53@@detail@xpressive@boost@@V?$_String_const_iterator@V?$_String_val@U?$_Simple_types@D@std@@@std@@@std@@@detail@xpressive@boost@@UEBAXAEAU?$xpression_linker@D@234@@Z 0000000180027060 f i GRBLdlg.obj
 0001:00026060       ?link@?$dynamic_xpression@U?$literal_matcher@U?$regex_traits@DU?$cpp_regex_traits@D@xpressive@boost@@@xpressive@boost@@U?$bool_@$0A@@mpl@3@U453@@detail@xpressive@boost@@V?$_String_const_iterator@V?$_String_val@U?$_Simple_types@D@std@@@std@@@std@@@detail@xpressive@boost@@UEBAXAEAU?$xpression_linker@D@234@@Z 0000000180027060 f i GRBLdlg.obj
 0001:00026060       ?link@?$dynamic_xpression@U?$assert_bol_matcher@U?$regex_traits@DU?$cpp_regex_traits@D@xpressive@boost@@@xpressive@boost@@@detail@xpressive@boost@@V?$_String_const_iterator@V?$_String_val@U?$_Simple_types@D@std@@@std@@@std@@@detail@xpressive@boost@@UEBAXAEAU?$xpression_linker@D@234@@Z 0000000180027060 f i GRBLdlg.obj
 0001:00026060       ?link@?$dynamic_xpression@U?$assert_eol_matcher@U?$regex_traits@DU?$cpp_regex_traits@D@xpressive@boost@@@xpressive@boost@@@detail@xpressive@boost@@V?$_String_const_iterator@V?$_String_val@U?$_Simple_types@D@std@@@std@@@std@@@detail@xpressive@boost@@UEBAXAEAU?$xpression_linker@D@234@@Z 0000000180027060 f i GRBLdlg.obj
 0001:00026060       ?link@?$dynamic_xpression@U?$assert_word_matcher@U?$word_boundary@U?$bool_@$0A@@mpl@boost@@@detail@xpressive@boost@@U?$regex_traits@DU?$cpp_regex_traits@D@xpressive@boost@@@34@@detail@xpressive@boost@@V?$_String_const_iterator@V?$_String_val@U?$_Simple_types@D@std@@@std@@@std@@@detail@xpressive@boost@@UEBAXAEAU?$xpression_linker@D@234@@Z 0000000180027060 f i GRBLdlg.obj
 0001:00026060       ?link@?$dynamic_xpression@Umark_begin_matcher@detail@xpressive@boost@@V?$_String_const_iterator@V?$_String_val@U?$_Simple_types@D@std@@@std@@@std@@@detail@xpressive@boost@@UEBAXAEAU?$xpression_linker@D@234@@Z 0000000180027060 f i GRBLdlg.obj
 0001:00026060       ?link@?$dynamic_xpression@U?$posix_charset_matcher@U?$regex_traits@DU?$cpp_regex_traits@D@xpressive@boost@@@xpressive@boost@@@detail@xpressive@boost@@V?$_String_const_iterator@V?$_String_val@U?$_Simple_types@D@std@@@std@@@std@@@detail@xpressive@boost@@UEBAXAEAU?$xpression_linker@D@234@@Z 0000000180027060 f i GRBLdlg.obj
 0001:00026060       ?link@?$dynamic_xpression@U?$set_matcher@U?$regex_traits@DU?$cpp_regex_traits@D@xpressive@boost@@@xpressive@boost@@U?$int_@$01@mpl@3@@detail@xpressive@boost@@V?$_String_const_iterator@V?$_String_val@U?$_Simple_types@D@std@@@std@@@std@@@detail@xpressive@boost@@UEBAXAEAU?$xpression_linker@D@234@@Z 0000000180027060 f i GRBLdlg.obj
 0001:00026070       ?match@?$dynamic_xpression@Umark_end_matcher@detail@xpressive@boost@@V?$_String_const_iterator@V?$_String_val@U?$_Simple_types@D@std@@@std@@@std@@@detail@xpressive@boost@@UEBA_NAEAU?$match_state@V?$_String_const_iterator@V?$_String_val@U?$_Simple_types@D@std@@@std@@@std@@@234@@Z 0000000180027070 f i GRBLdlg.obj
 0001:000260f0       ?repeat@?$dynamic_xpression@Umark_begin_matcher@detail@xpressive@boost@@V?$_String_const_iterator@V?$_String_val@U?$_Simple_types@D@std@@@std@@@std@@@detail@xpressive@boost@@UEBAXAEBUquant_spec@234@AEAU?$sequence@V?$_String_const_iterator@V?$_String_val@U?$_Simple_types@D@std@@@std@@@std@@@234@@Z 00000001800270f0 f i GRBLdlg.obj
 0001:00026110       ?peek@?$dynamic_xpression@Umark_begin_matcher@detail@xpressive@boost@@V?$_String_const_iterator@V?$_String_val@U?$_Simple_types@D@std@@@std@@@std@@@detail@xpressive@boost@@UEBAXAEAU?$xpression_peeker@D@234@@Z 0000000180027110 f i GRBLdlg.obj
 0001:00026130       ?match@?$dynamic_xpression@Umark_begin_matcher@detail@xpressive@boost@@V?$_String_const_iterator@V?$_String_val@U?$_Simple_types@D@std@@@std@@@std@@@detail@xpressive@boost@@UEBA_NAEAU?$match_state@V?$_String_const_iterator@V?$_String_val@U?$_Simple_types@D@std@@@std@@@std@@@234@@Z 0000000180027130 f i GRBLdlg.obj
 0001:00026190       ?repeat@?$dynamic_xpression@Utrue_matcher@detail@xpressive@boost@@V?$_String_const_iterator@V?$_String_val@U?$_Simple_types@D@std@@@std@@@std@@@detail@xpressive@boost@@UEBAXAEBUquant_spec@234@AEAU?$sequence@V?$_String_const_iterator@V?$_String_val@U?$_Simple_types@D@std@@@std@@@std@@@234@@Z 0000000180027190 f i GRBLdlg.obj
 0001:000261a0       ??R?$boyer_moore_finder@V?$_String_const_iterator@V?$_String_val@U?$_Simple_types@D@std@@@std@@@std@@U?$regex_traits@DU?$cpp_regex_traits@D@xpressive@boost@@@xpressive@boost@@@detail@xpressive@boost@@UEBA_NAEAU?$match_state@V?$_String_const_iterator@V?$_String_val@U?$_Simple_types@D@std@@@std@@@std@@@123@@Z 00000001800271a0 f i GRBLdlg.obj
 0001:000261a0       ??R?$boyer_moore_finder@V?$_String_const_iterator@V?$_String_val@U?$_Simple_types@D@std@@@std@@@std@@U?$cpp_regex_traits@D@xpressive@boost@@@detail@xpressive@boost@@UEBA_NAEAU?$match_state@V?$_String_const_iterator@V?$_String_val@U?$_Simple_types@D@std@@@std@@@std@@@123@@Z 00000001800271a0 f i GRBLdlg.obj
 0001:000261e0       ?repeat@?$dynamic_xpression@U?$simple_repeat_matcher@U?$matcher_wrapper@U?$charset_matcher@U?$regex_traits@DU?$cpp_regex_traits@D@xpressive@boost@@@xpressive@boost@@U?$bool_@$00@mpl@3@U?$compound_charset@U?$regex_traits@DU?$cpp_regex_traits@D@xpressive@boost@@@xpressive@boost@@@detail@23@@detail@xpressive@boost@@@detail@xpressive@boost@@U?$bool_@$0A@@mpl@4@@detail@xpressive@boost@@V?$_String_const_iterator@V?$_String_val@U?$_Simple_types@D@std@@@std@@@std@@@detail@xpressive@boost@@UEBAXAEBUquant_spec@234@AEAU?$sequence@V?$_String_const_iterator@V?$_String_val@U?$_Simple_types@D@std@@@std@@@std@@@234@@Z 00000001800271e0 f i GRBLdlg.obj
 0001:000261e0       ?repeat@?$dynamic_xpression@Urepeat_begin_matcher@detail@xpressive@boost@@V?$_String_const_iterator@V?$_String_val@U?$_Simple_types@D@std@@@std@@@std@@@detail@xpressive@boost@@UEBAXAEBUquant_spec@234@AEAU?$sequence@V?$_String_const_iterator@V?$_String_val@U?$_Simple_types@D@std@@@std@@@std@@@234@@Z 00000001800271e0 f i GRBLdlg.obj
 0001:000261e0       ?repeat@?$dynamic_xpression@U?$simple_repeat_matcher@U?$matcher_wrapper@U?$literal_matcher@U?$regex_traits@DU?$cpp_regex_traits@D@xpressive@boost@@@xpressive@boost@@U?$bool_@$0A@@mpl@3@U?$bool_@$00@53@@detail@xpressive@boost@@@detail@xpressive@boost@@U?$bool_@$0A@@mpl@4@@detail@xpressive@boost@@V?$_String_const_iterator@V?$_String_val@U?$_Simple_types@D@std@@@std@@@std@@@detail@xpressive@boost@@UEBAXAEBUquant_spec@234@AEAU?$sequence@V?$_String_const_iterator@V?$_String_val@U?$_Simple_types@D@std@@@std@@@std@@@234@@Z 00000001800271e0 f i GRBLdlg.obj
 0001:000261e0       ?repeat@?$dynamic_xpression@U?$simple_repeat_matcher@U?$matcher_wrapper@U?$literal_matcher@U?$regex_traits@DU?$cpp_regex_traits@D@xpressive@boost@@@xpressive@boost@@U?$bool_@$00@mpl@3@U?$bool_@$0A@@53@@detail@xpressive@boost@@@detail@xpressive@boost@@U?$bool_@$0A@@mpl@4@@detail@xpressive@boost@@V?$_String_const_iterator@V?$_String_val@U?$_Simple_types@D@std@@@std@@@std@@@detail@xpressive@boost@@UEBAXAEBUquant_spec@234@AEAU?$sequence@V?$_String_const_iterator@V?$_String_val@U?$_Simple_types@D@std@@@std@@@std@@@234@@Z 00000001800271e0 f i GRBLdlg.obj
 0001:000261e0       ?repeat@?$dynamic_xpression@U?$simple_repeat_matcher@U?$matcher_wrapper@U?$set_matcher@U?$regex_traits@DU?$cpp_regex_traits@D@xpressive@boost@@@xpressive@boost@@U?$int_@$01@mpl@3@@detail@xpressive@boost@@@detail@xpressive@boost@@U?$bool_@$00@mpl@4@@detail@xpressive@boost@@V?$_String_const_iterator@V?$_String_val@U?$_Simple_types@D@std@@@std@@@std@@@detail@xpressive@boost@@UEBAXAEBUquant_spec@234@AEAU?$sequence@V?$_String_const_iterator@V?$_String_val@U?$_Simple_types@D@std@@@std@@@std@@@234@@Z 00000001800271e0 f i GRBLdlg.obj
 0001:000261e0       ?repeat@?$dynamic_xpression@U?$simple_repeat_matcher@U?$matcher_wrapper@U?$string_matcher@U?$regex_traits@DU?$cpp_regex_traits@D@xpressive@boost@@@xpressive@boost@@U?$bool_@$00@mpl@3@@detail@xpressive@boost@@@detail@xpressive@boost@@U?$bool_@$00@mpl@4@@detail@xpressive@boost@@V?$_String_const_iterator@V?$_String_val@U?$_Simple_types@D@std@@@std@@@std@@@detail@xpressive@boost@@UEBAXAEBUquant_spec@234@AEAU?$sequence@V?$_String_const_iterator@V?$_String_val@U?$_Simple_types@D@std@@@std@@@std@@@234@@Z 00000001800271e0 f i GRBLdlg.obj
 0001:000261e0       ?repeat@?$dynamic_xpression@U?$simple_repeat_matcher@U?$matcher_wrapper@U?$literal_matcher@U?$regex_traits@DU?$cpp_regex_traits@D@xpressive@boost@@@xpressive@boost@@U?$bool_@$0A@@mpl@3@U453@@detail@xpressive@boost@@@detail@xpressive@boost@@U?$bool_@$0A@@mpl@4@@detail@xpressive@boost@@V?$_String_const_iterator@V?$_String_val@U?$_Simple_types@D@std@@@std@@@std@@@detail@xpressive@boost@@UEBAXAEBUquant_spec@234@AEAU?$sequence@V?$_String_const_iterator@V?$_String_val@U?$_Simple_types@D@std@@@std@@@std@@@234@@Z 00000001800271e0 f i GRBLdlg.obj
 0001:000261e0       ?repeat@?$dynamic_xpression@U?$simple_repeat_matcher@U?$matcher_wrapper@U?$charset_matcher@U?$regex_traits@DU?$cpp_regex_traits@D@xpressive@boost@@@xpressive@boost@@U?$bool_@$00@mpl@3@U?$basic_chset@D@detail@23@@detail@xpressive@boost@@@detail@xpressive@boost@@U?$bool_@$00@mpl@4@@detail@xpressive@boost@@V?$_String_const_iterator@V?$_String_val@U?$_Simple_types@D@std@@@std@@@std@@@detail@xpressive@boost@@UEBAXAEBUquant_spec@234@AEAU?$sequence@V?$_String_const_iterator@V?$_String_val@U?$_Simple_types@D@std@@@std@@@std@@@234@@Z 00000001800271e0 f i GRBLdlg.obj
 0001:000261e0       ?repeat@?$dynamic_xpression@U?$simple_repeat_matcher@U?$matcher_wrapper@U?$charset_matcher@U?$regex_traits@DU?$cpp_regex_traits@D@xpressive@boost@@@xpressive@boost@@U?$bool_@$0A@@mpl@3@U?$basic_chset@D@detail@23@@detail@xpressive@boost@@@detail@xpressive@boost@@U?$bool_@$00@mpl@4@@detail@xpressive@boost@@V?$_String_const_iterator@V?$_String_val@U?$_Simple_types@D@std@@@std@@@std@@@detail@xpressive@boost@@UEBAXAEBUquant_spec@234@AEAU?$sequence@V?$_String_const_iterator@V?$_String_val@U?$_Simple_types@D@std@@@std@@@std@@@234@@Z 00000001800271e0 f i GRBLdlg.obj
 0001:000261e0       ?repeat@?$dynamic_xpression@U?$simple_repeat_matcher@U?$shared_matchable@V?$_String_const_iterator@V?$_String_val@U?$_Simple_types@D@std@@@std@@@std@@@detail@xpressive@boost@@U?$bool_@$00@mpl@4@@detail@xpressive@boost@@V?$_String_const_iterator@V?$_String_val@U?$_Simple_types@D@std@@@std@@@std@@@detail@xpressive@boost@@UEBAXAEBUquant_spec@234@AEAU?$sequence@V?$_String_const_iterator@V?$_String_val@U?$_Simple_types@D@std@@@std@@@std@@@234@@Z 00000001800271e0 f i GRBLdlg.obj
 0001:000261e0       ?repeat@?$dynamic_xpression@U?$simple_repeat_matcher@U?$matcher_wrapper@U?$charset_matcher@U?$regex_traits@DU?$cpp_regex_traits@D@xpressive@boost@@@xpressive@boost@@U?$bool_@$0A@@mpl@3@U?$basic_chset@D@detail@23@@detail@xpressive@boost@@@detail@xpressive@boost@@U?$bool_@$0A@@mpl@4@@detail@xpressive@boost@@V?$_String_const_iterator@V?$_String_val@U?$_Simple_types@D@std@@@std@@@std@@@detail@xpressive@boost@@UEBAXAEBUquant_spec@234@AEAU?$sequence@V?$_String_const_iterator@V?$_String_val@U?$_Simple_types@D@std@@@std@@@std@@@234@@Z 00000001800271e0 f i GRBLdlg.obj
 0001:000261e0       ?repeat@?$dynamic_xpression@U?$simple_repeat_matcher@U?$matcher_wrapper@U?$literal_matcher@U?$regex_traits@DU?$cpp_regex_traits@D@xpressive@boost@@@xpressive@boost@@U?$bool_@$0A@@mpl@3@U?$bool_@$00@53@@detail@xpressive@boost@@@detail@xpressive@boost@@U?$bool_@$00@mpl@4@@detail@xpressive@boost@@V?$_String_const_iterator@V?$_String_val@U?$_Simple_types@D@std@@@std@@@std@@@detail@xpressive@boost@@UEBAXAEBUquant_spec@234@AEAU?$sequence@V?$_String_const_iterator@V?$_String_val@U?$_Simple_types@D@std@@@std@@@std@@@234@@Z 00000001800271e0 f i GRBLdlg.obj
 0001:000261e0       ?repeat@?$dynamic_xpression@U?$simple_repeat_matcher@U?$matcher_wrapper@U?$charset_matcher@U?$regex_traits@DU?$cpp_regex_traits@D@xpressive@boost@@@xpressive@boost@@U?$bool_@$0A@@mpl@3@U?$compound_charset@U?$regex_traits@DU?$cpp_regex_traits@D@xpressive@boost@@@xpressive@boost@@@detail@23@@detail@xpressive@boost@@@detail@xpressive@boost@@U?$bool_@$00@mpl@4@@detail@xpressive@boost@@V?$_String_const_iterator@V?$_String_val@U?$_Simple_types@D@std@@@std@@@std@@@detail@xpressive@boost@@UEBAXAEBUquant_spec@234@AEAU?$sequence@V?$_String_const_iterator@V?$_String_val@U?$_Simple_types@D@std@@@std@@@std@@@234@@Z 00000001800271e0 f i GRBLdlg.obj
 0001:000261e0       ?repeat@?$dynamic_xpression@U?$regex_byref_matcher@V?$_String_const_iterator@V?$_String_val@U?$_Simple_types@D@std@@@std@@@std@@@detail@xpressive@boost@@V?$_String_const_iterator@V?$_String_val@U?$_Simple_types@D@std@@@std@@@std@@@detail@xpressive@boost@@UEBAXAEBUquant_spec@234@AEAU?$sequence@V?$_String_const_iterator@V?$_String_val@U?$_Simple_types@D@std@@@std@@@std@@@234@@Z 00000001800271e0 f i GRBLdlg.obj
 0001:000261e0       ?repeat@?$dynamic_xpression@U?$optional_mark_matcher@U?$shared_matchable@V?$_String_const_iterator@V?$_String_val@U?$_Simple_types@D@std@@@std@@@std@@@detail@xpressive@boost@@U?$bool_@$00@mpl@4@@detail@xpressive@boost@@V?$_String_const_iterator@V?$_String_val@U?$_Simple_types@D@std@@@std@@@std@@@detail@xpressive@boost@@UEBAXAEBUquant_spec@234@AEAU?$sequence@V?$_String_const_iterator@V?$_String_val@U?$_Simple_types@D@std@@@std@@@std@@@234@@Z 00000001800271e0 f i GRBLdlg.obj
 0001:000261e0       ?repeat@?$dynamic_xpression@U?$simple_repeat_matcher@U?$matcher_wrapper@U?$string_matcher@U?$regex_traits@DU?$cpp_regex_traits@D@xpressive@boost@@@xpressive@boost@@U?$bool_@$0A@@mpl@3@@detail@xpressive@boost@@@detail@xpressive@boost@@U?$bool_@$0A@@mpl@4@@detail@xpressive@boost@@V?$_String_const_iterator@V?$_String_val@U?$_Simple_types@D@std@@@std@@@std@@@detail@xpressive@boost@@UEBAXAEBUquant_spec@234@AEAU?$sequence@V?$_String_const_iterator@V?$_String_val@U?$_Simple_types@D@std@@@std@@@std@@@234@@Z 00000001800271e0 f i GRBLdlg.obj
 0001:000261e0       ?repeat@?$dynamic_xpression@U?$mark_matcher@U?$regex_traits@DU?$cpp_regex_traits@D@xpressive@boost@@@xpressive@boost@@U?$bool_@$00@mpl@3@@detail@xpressive@boost@@V?$_String_const_iterator@V?$_String_val@U?$_Simple_types@D@std@@@std@@@std@@@detail@xpressive@boost@@UEBAXAEBUquant_spec@234@AEAU?$sequence@V?$_String_const_iterator@V?$_String_val@U?$_Simple_types@D@std@@@std@@@std@@@234@@Z 00000001800271e0 f i GRBLdlg.obj
 0001:000261e0       ?repeat@?$dynamic_xpression@U?$simple_repeat_matcher@U?$matcher_wrapper@U?$string_matcher@U?$regex_traits@DU?$cpp_regex_traits@D@xpressive@boost@@@xpressive@boost@@U?$bool_@$0A@@mpl@3@@detail@xpressive@boost@@@detail@xpressive@boost@@U?$bool_@$00@mpl@4@@detail@xpressive@boost@@V?$_String_const_iterator@V?$_String_val@U?$_Simple_types@D@std@@@std@@@std@@@detail@xpressive@boost@@UEBAXAEBUquant_spec@234@AEAU?$sequence@V?$_String_const_iterator@V?$_String_val@U?$_Simple_types@D@std@@@std@@@std@@@234@@Z 00000001800271e0 f i GRBLdlg.obj
 0001:000261e0       ?repeat@?$dynamic_xpression@U?$optional_mark_matcher@U?$shared_matchable@V?$_String_const_iterator@V?$_String_val@U?$_Simple_types@D@std@@@std@@@std@@@detail@xpressive@boost@@U?$bool_@$0A@@mpl@4@@detail@xpressive@boost@@V?$_String_const_iterator@V?$_String_val@U?$_Simple_types@D@std@@@std@@@std@@@detail@xpressive@boost@@UEBAXAEBUquant_spec@234@AEAU?$sequence@V?$_String_const_iterator@V?$_String_val@U?$_Simple_types@D@std@@@std@@@std@@@234@@Z 00000001800271e0 f i GRBLdlg.obj
 0001:000261e0       ?repeat@?$dynamic_xpression@U?$simple_repeat_matcher@U?$matcher_wrapper@U?$literal_matcher@U?$regex_traits@DU?$cpp_regex_traits@D@xpressive@boost@@@xpressive@boost@@U?$bool_@$0A@@mpl@3@U453@@detail@xpressive@boost@@@detail@xpressive@boost@@U?$bool_@$00@mpl@4@@detail@xpressive@boost@@V?$_String_const_iterator@V?$_String_val@U?$_Simple_types@D@std@@@std@@@std@@@detail@xpressive@boost@@UEBAXAEBUquant_spec@234@AEAU?$sequence@V?$_String_const_iterator@V?$_String_val@U?$_Simple_types@D@std@@@std@@@std@@@234@@Z 00000001800271e0 f i GRBLdlg.obj
 0001:000261e0       ?repeat@?$dynamic_xpression@U?$simple_repeat_matcher@U?$matcher_wrapper@Uany_matcher@detail@xpressive@boost@@@detail@xpressive@boost@@U?$bool_@$00@mpl@4@@detail@xpressive@boost@@V?$_String_const_iterator@V?$_String_val@U?$_Simple_types@D@std@@@std@@@std@@@detail@xpressive@boost@@UEBAXAEBUquant_spec@234@AEAU?$sequence@V?$_String_const_iterator@V?$_String_val@U?$_Simple_types@D@std@@@std@@@std@@@234@@Z 00000001800271e0 f i GRBLdlg.obj
 0001:000261e0       ?repeat@?$dynamic_xpression@U?$simple_repeat_matcher@U?$matcher_wrapper@U?$posix_charset_matcher@U?$regex_traits@DU?$cpp_regex_traits@D@xpressive@boost@@@xpressive@boost@@@detail@xpressive@boost@@@detail@xpressive@boost@@U?$bool_@$00@mpl@4@@detail@xpressive@boost@@V?$_String_const_iterator@V?$_String_val@U?$_Simple_types@D@std@@@std@@@std@@@detail@xpressive@boost@@UEBAXAEBUquant_spec@234@AEAU?$sequence@V?$_String_const_iterator@V?$_String_val@U?$_Simple_types@D@std@@@std@@@std@@@234@@Z 00000001800271e0 f i GRBLdlg.obj
 0001:000261e0       ?repeat@?$dynamic_xpression@U?$simple_repeat_matcher@U?$matcher_wrapper@Uany_matcher@detail@xpressive@boost@@@detail@xpressive@boost@@U?$bool_@$0A@@mpl@4@@detail@xpressive@boost@@V?$_String_const_iterator@V?$_String_val@U?$_Simple_types@D@std@@@std@@@std@@@detail@xpressive@boost@@UEBAXAEBUquant_spec@234@AEAU?$sequence@V?$_String_const_iterator@V?$_String_val@U?$_Simple_types@D@std@@@std@@@std@@@234@@Z 00000001800271e0 f i GRBLdlg.obj
 0001:000261e0       ?repeat@?$dynamic_xpression@U?$simple_repeat_matcher@U?$matcher_wrapper@U?$string_matcher@U?$regex_traits@DU?$cpp_regex_traits@D@xpressive@boost@@@xpressive@boost@@U?$bool_@$00@mpl@3@@detail@xpressive@boost@@@detail@xpressive@boost@@U?$bool_@$0A@@mpl@4@@detail@xpressive@boost@@V?$_String_const_iterator@V?$_String_val@U?$_Simple_types@D@std@@@std@@@std@@@detail@xpressive@boost@@UEBAXAEBUquant_spec@234@AEAU?$sequence@V?$_String_const_iterator@V?$_String_val@U?$_Simple_types@D@std@@@std@@@std@@@234@@Z 00000001800271e0 f i GRBLdlg.obj
 0001:000261e0       ?repeat@?$dynamic_xpression@U?$mark_matcher@U?$regex_traits@DU?$cpp_regex_traits@D@xpressive@boost@@@xpressive@boost@@U?$bool_@$0A@@mpl@3@@detail@xpressive@boost@@V?$_String_const_iterator@V?$_String_val@U?$_Simple_types@D@std@@@std@@@std@@@detail@xpressive@boost@@UEBAXAEBUquant_spec@234@AEAU?$sequence@V?$_String_const_iterator@V?$_String_val@U?$_Simple_types@D@std@@@std@@@std@@@234@@Z 00000001800271e0 f i GRBLdlg.obj
 0001:000261e0       ?repeat@?$dynamic_xpression@U?$simple_repeat_matcher@U?$matcher_wrapper@U?$set_matcher@U?$regex_traits@DU?$cpp_regex_traits@D@xpressive@boost@@@xpressive@boost@@U?$int_@$01@mpl@3@@detail@xpressive@boost@@@detail@xpressive@boost@@U?$bool_@$0A@@mpl@4@@detail@xpressive@boost@@V?$_String_const_iterator@V?$_String_val@U?$_Simple_types@D@std@@@std@@@std@@@detail@xpressive@boost@@UEBAXAEBUquant_spec@234@AEAU?$sequence@V?$_String_const_iterator@V?$_String_val@U?$_Simple_types@D@std@@@std@@@std@@@234@@Z 00000001800271e0 f i GRBLdlg.obj
 0001:000261e0       ?repeat@?$dynamic_xpression@U?$alternate_matcher@U?$alternates_vector@V?$_String_const_iterator@V?$_String_val@U?$_Simple_types@D@std@@@std@@@std@@@detail@xpressive@boost@@U?$regex_traits@DU?$cpp_regex_traits@D@xpressive@boost@@@34@@detail@xpressive@boost@@V?$_String_const_iterator@V?$_String_val@U?$_Simple_types@D@std@@@std@@@std@@@detail@xpressive@boost@@UEBAXAEBUquant_spec@234@AEAU?$sequence@V?$_String_const_iterator@V?$_String_val@U?$_Simple_types@D@std@@@std@@@std@@@234@@Z 00000001800271e0 f i GRBLdlg.obj
 0001:000261e0       ?repeat@?$dynamic_xpression@U?$simple_repeat_matcher@U?$matcher_wrapper@U?$literal_matcher@U?$regex_traits@DU?$cpp_regex_traits@D@xpressive@boost@@@xpressive@boost@@U?$bool_@$00@mpl@3@U?$bool_@$0A@@53@@detail@xpressive@boost@@@detail@xpressive@boost@@U?$bool_@$00@mpl@4@@detail@xpressive@boost@@V?$_String_const_iterator@V?$_String_val@U?$_Simple_types@D@std@@@std@@@std@@@detail@xpressive@boost@@UEBAXAEBUquant_spec@234@AEAU?$sequence@V?$_String_const_iterator@V?$_String_val@U?$_Simple_types@D@std@@@std@@@std@@@234@@Z 00000001800271e0 f i GRBLdlg.obj
 0001:000261e0       ?repeat@?$dynamic_xpression@U?$keeper_matcher@U?$shared_matchable@V?$_String_const_iterator@V?$_String_val@U?$_Simple_types@D@std@@@std@@@std@@@detail@xpressive@boost@@@detail@xpressive@boost@@V?$_String_const_iterator@V?$_String_val@U?$_Simple_types@D@std@@@std@@@std@@@detail@xpressive@boost@@UEBAXAEBUquant_spec@234@AEAU?$sequence@V?$_String_const_iterator@V?$_String_val@U?$_Simple_types@D@std@@@std@@@std@@@234@@Z 00000001800271e0 f i GRBLdlg.obj
 0001:000261e0       ?repeat@?$dynamic_xpression@U?$simple_repeat_matcher@U?$matcher_wrapper@U?$charset_matcher@U?$regex_traits@DU?$cpp_regex_traits@D@xpressive@boost@@@xpressive@boost@@U?$bool_@$0A@@mpl@3@U?$compound_charset@U?$regex_traits@DU?$cpp_regex_traits@D@xpressive@boost@@@xpressive@boost@@@detail@23@@detail@xpressive@boost@@@detail@xpressive@boost@@U?$bool_@$0A@@mpl@4@@detail@xpressive@boost@@V?$_String_const_iterator@V?$_String_val@U?$_Simple_types@D@std@@@std@@@std@@@detail@xpressive@boost@@UEBAXAEBUquant_spec@234@AEAU?$sequence@V?$_String_const_iterator@V?$_String_val@U?$_Simple_types@D@std@@@std@@@std@@@234@@Z 00000001800271e0 f i GRBLdlg.obj
 0001:000261e0       ?repeat@?$dynamic_xpression@U?$simple_repeat_matcher@U?$shared_matchable@V?$_String_const_iterator@V?$_String_val@U?$_Simple_types@D@std@@@std@@@std@@@detail@xpressive@boost@@U?$bool_@$0A@@mpl@4@@detail@xpressive@boost@@V?$_String_const_iterator@V?$_String_val@U?$_Simple_types@D@std@@@std@@@std@@@detail@xpressive@boost@@UEBAXAEBUquant_spec@234@AEAU?$sequence@V?$_String_const_iterator@V?$_String_val@U?$_Simple_types@D@std@@@std@@@std@@@234@@Z 00000001800271e0 f i GRBLdlg.obj
 0001:000261e0       ?repeat@?$dynamic_xpression@U?$simple_repeat_matcher@U?$matcher_wrapper@U?$posix_charset_matcher@U?$regex_traits@DU?$cpp_regex_traits@D@xpressive@boost@@@xpressive@boost@@@detail@xpressive@boost@@@detail@xpressive@boost@@U?$bool_@$0A@@mpl@4@@detail@xpressive@boost@@V?$_String_const_iterator@V?$_String_val@U?$_Simple_types@D@std@@@std@@@std@@@detail@xpressive@boost@@UEBAXAEBUquant_spec@234@AEAU?$sequence@V?$_String_const_iterator@V?$_String_val@U?$_Simple_types@D@std@@@std@@@std@@@234@@Z 00000001800271e0 f i GRBLdlg.obj
 0001:000261e0       ?repeat@?$dynamic_xpression@U?$optional_matcher@U?$shared_matchable@V?$_String_const_iterator@V?$_String_val@U?$_Simple_types@D@std@@@std@@@std@@@detail@xpressive@boost@@U?$bool_@$0A@@mpl@4@@detail@xpressive@boost@@V?$_String_const_iterator@V?$_String_val@U?$_Simple_types@D@std@@@std@@@std@@@detail@xpressive@boost@@UEBAXAEBUquant_spec@234@AEAU?$sequence@V?$_String_const_iterator@V?$_String_val@U?$_Simple_types@D@std@@@std@@@std@@@234@@Z 00000001800271e0 f i GRBLdlg.obj
 0001:000261e0       ?repeat@?$dynamic_xpression@U?$simple_repeat_matcher@U?$matcher_wrapper@U?$charset_matcher@U?$regex_traits@DU?$cpp_regex_traits@D@xpressive@boost@@@xpressive@boost@@U?$bool_@$00@mpl@3@U?$compound_charset@U?$regex_traits@DU?$cpp_regex_traits@D@xpressive@boost@@@xpressive@boost@@@detail@23@@detail@xpressive@boost@@@detail@xpressive@boost@@U?$bool_@$00@mpl@4@@detail@xpressive@boost@@V?$_String_const_iterator@V?$_String_val@U?$_Simple_types@D@std@@@std@@@std@@@detail@xpressive@boost@@UEBAXAEBUquant_spec@234@AEAU?$sequence@V?$_String_const_iterator@V?$_String_val@U?$_Simple_types@D@std@@@std@@@std@@@234@@Z 00000001800271e0 f i GRBLdlg.obj
 0001:000261e0       ?repeat@?$dynamic_xpression@U?$optional_matcher@U?$shared_matchable@V?$_String_const_iterator@V?$_String_val@U?$_Simple_types@D@std@@@std@@@std@@@detail@xpressive@boost@@U?$bool_@$00@mpl@4@@detail@xpressive@boost@@V?$_String_const_iterator@V?$_String_val@U?$_Simple_types@D@std@@@std@@@std@@@detail@xpressive@boost@@UEBAXAEBUquant_spec@234@AEAU?$sequence@V?$_String_const_iterator@V?$_String_val@U?$_Simple_types@D@std@@@std@@@std@@@234@@Z 00000001800271e0 f i GRBLdlg.obj
 0001:000261e0       ?repeat@?$dynamic_xpression@U?$simple_repeat_matcher@U?$matcher_wrapper@U?$charset_matcher@U?$regex_traits@DU?$cpp_regex_traits@D@xpressive@boost@@@xpressive@boost@@U?$bool_@$00@mpl@3@U?$basic_chset@D@detail@23@@detail@xpressive@boost@@@detail@xpressive@boost@@U?$bool_@$0A@@mpl@4@@detail@xpressive@boost@@V?$_String_const_iterator@V?$_String_val@U?$_Simple_types@D@std@@@std@@@std@@@detail@xpressive@boost@@UEBAXAEBUquant_spec@234@AEAU?$sequence@V?$_String_const_iterator@V?$_String_val@U?$_Simple_types@D@std@@@std@@@std@@@234@@Z 00000001800271e0 f i GRBLdlg.obj
 0001:00026210       ?peek@?$dynamic_xpression@U?$alternate_matcher@U?$alternates_vector@V?$_String_const_iterator@V?$_String_val@U?$_Simple_types@D@std@@@std@@@std@@@detail@xpressive@boost@@U?$regex_traits@DU?$cpp_regex_traits@D@xpressive@boost@@@34@@detail@xpressive@boost@@V?$_String_const_iterator@V?$_String_val@U?$_Simple_types@D@std@@@std@@@std@@@detail@xpressive@boost@@UEBAXAEAU?$xpression_peeker@D@234@@Z 0000000180027210 f i GRBLdlg.obj
 0001:00026270       ?link@?$dynamic_xpression@U?$alternate_matcher@U?$alternates_vector@V?$_String_const_iterator@V?$_String_val@U?$_Simple_types@D@std@@@std@@@std@@@detail@xpressive@boost@@U?$regex_traits@DU?$cpp_regex_traits@D@xpressive@boost@@@34@@detail@xpressive@boost@@V?$_String_const_iterator@V?$_String_val@U?$_Simple_types@D@std@@@std@@@std@@@detail@xpressive@boost@@UEBAXAEAU?$xpression_linker@D@234@@Z 0000000180027270 f i GRBLdlg.obj
 0001:000262b0       ?match@?$dynamic_xpression@U?$alternate_matcher@U?$alternates_vector@V?$_String_const_iterator@V?$_String_val@U?$_Simple_types@D@std@@@std@@@std@@@detail@xpressive@boost@@U?$regex_traits@DU?$cpp_regex_traits@D@xpressive@boost@@@34@@detail@xpressive@boost@@V?$_String_const_iterator@V?$_String_val@U?$_Simple_types@D@std@@@std@@@std@@@detail@xpressive@boost@@UEBA_NAEAU?$match_state@V?$_String_const_iterator@V?$_String_val@U?$_Simple_types@D@std@@@std@@@std@@@234@@Z 00000001800272b0 f i GRBLdlg.obj
 0001:000262c0       ?peek@?$xpression_adaptor@U?$static_xpression@U?$literal_matcher@U?$cpp_regex_traits@D@xpressive@boost@@U?$bool_@$0A@@mpl@3@U453@@detail@xpressive@boost@@U?$static_xpression@U?$simple_repeat_matcher@U?$static_xpression@U?$literal_matcher@U?$cpp_regex_traits@D@xpressive@boost@@U?$bool_@$0A@@mpl@3@U?$bool_@$00@53@@detail@xpressive@boost@@U?$static_xpression@Utrue_matcher@detail@xpressive@boost@@Uno_next@234@@234@@detail@xpressive@boost@@U?$bool_@$00@mpl@4@@detail@xpressive@boost@@U?$static_xpression@U?$literal_matcher@U?$cpp_regex_traits@D@xpressive@boost@@U?$bool_@$0A@@mpl@3@U453@@detail@xpressive@boost@@U?$static_xpression@Uend_matcher@detail@xpressive@boost@@Uno_next@234@@234@@234@@234@@detail@xpressive@boost@@U?$matchable_ex@V?$_String_const_iterator@V?$_String_val@U?$_Simple_types@D@std@@@std@@@std@@@234@@detail@xpressive@boost@@UEBAXAEAU?$xpression_peeker@D@234@@Z 00000001800272c0 f i GRBLdlg.obj
 0001:000262c0       ?peek@?$xpression_adaptor@U?$static_xpression@U?$literal_matcher@U?$cpp_regex_traits@D@xpressive@boost@@U?$bool_@$0A@@mpl@3@U453@@detail@xpressive@boost@@U?$static_xpression@Umark_begin_matcher@detail@xpressive@boost@@U?$static_xpression@U?$simple_repeat_matcher@U?$static_xpression@U?$posix_charset_matcher@U?$cpp_regex_traits@D@xpressive@boost@@@detail@xpressive@boost@@U?$static_xpression@Utrue_matcher@detail@xpressive@boost@@Uno_next@234@@234@@detail@xpressive@boost@@U?$bool_@$00@mpl@4@@detail@xpressive@boost@@U?$static_xpression@Umark_end_matcher@detail@xpressive@boost@@U?$static_xpression@U?$optional_mark_matcher@U?$static_xpression@Umark_begin_matcher@detail@xpressive@boost@@U?$static_xpression@U?$literal_matcher@U?$cpp_regex_traits@D@xpressive@boost@@U?$bool_@$0A@@mpl@3@U453@@detail@xpressive@boost@@U?$static_xpression@U?$simple_repeat_matcher@U?$static_xpression@U?$posix_charset_matcher@U?$cpp_regex_traits@D@xpressive@boost@@@detail@xpressive@boost@@U?$static_xpression@Utrue_matcher@detail@xpressive@boost@@Uno_next@234@@234@@detail@xpressive@boost@@U?$bool_@$00@mpl@4@@detail@xpressive@boost@@U?$static_xpression@Umark_end_matcher@detail@xpressive@boost@@U?$static_xpression@Ualternate_end_matcher@detail@xpressive@boost@@Uno_next@234@@234@@234@@234@@234@@detail@xpressive@boost@@U?$bool_@$00@mpl@4@@detail@xpressive@boost@@U?$static_xpression@U?$optional_mark_matcher@U?$static_xpression@Urepeat_begin_matcher@detail@xpressive@boost@@U?$static_xpression@Umark_begin_matcher@detail@xpressive@boost@@U?$static_xpression@U?$posix_charset_matcher@U?$cpp_regex_traits@D@xpressive@boost@@@detail@xpressive@boost@@U?$static_xpression@U?$simple_repeat_matcher@U?$static_xpression@U?$posix_charset_matcher@U?$cpp_regex_traits@D@xpressive@boost@@@detail@xpressive@boost@@U?$static_xpression@Utrue_matcher@detail@xpressive@boost@@Uno_next@234@@234@@detail@xpressive@boost@@U?$bool_@$00@mpl@4@@detail@xpressive@boost@@U?$static_xpression@Umark_end_matcher@detail@xpressive@boost@@U?$static_xpression@U?$repeat_end_matcher@U?$bool_@$00@mpl@boost@@@detail@xpressive@boost@@U?$static_xpression@Ualternate_end_matcher@detail@xpressive@boost@@Uno_next@234@@234@@234@@234@@234@@234@@234@@detail@xpressive@boost@@U?$bool_@$00@mpl@4@@detail@xpressive@boost@@U?$static_xpression@Uend_matcher@detail@xpressive@boost@@Uno_next@234@@234@@234@@234@@234@@234@@234@@detail@xpressive@boost@@U?$matchable_ex@V?$_String_const_iterator@V?$_String_val@U?$_Simple_types@D@std@@@std@@@std@@@234@@detail@xpressive@boost@@UEBAXAEAU?$xpression_peeker@D@234@@Z 00000001800272c0 f i GRBLdlg.obj
 0001:00026310       ?match@?$xpression_adaptor@U?$static_xpression@U?$literal_matcher@U?$cpp_regex_traits@D@xpressive@boost@@U?$bool_@$0A@@mpl@3@U453@@detail@xpressive@boost@@U?$static_xpression@U?$simple_repeat_matcher@U?$static_xpression@U?$literal_matcher@U?$cpp_regex_traits@D@xpressive@boost@@U?$bool_@$0A@@mpl@3@U?$bool_@$00@53@@detail@xpressive@boost@@U?$static_xpression@Utrue_matcher@detail@xpressive@boost@@Uno_next@234@@234@@detail@xpressive@boost@@U?$bool_@$00@mpl@4@@detail@xpressive@boost@@U?$static_xpression@U?$literal_matcher@U?$cpp_regex_traits@D@xpressive@boost@@U?$bool_@$0A@@mpl@3@U453@@detail@xpressive@boost@@U?$static_xpression@Uend_matcher@detail@xpressive@boost@@Uno_next@234@@234@@234@@234@@detail@xpressive@boost@@U?$matchable_ex@V?$_String_const_iterator@V?$_String_val@U?$_Simple_types@D@std@@@std@@@std@@@234@@detail@xpressive@boost@@UEBA_NAEAU?$match_state@V?$_String_const_iterator@V?$_String_val@U?$_Simple_types@D@std@@@std@@@std@@@234@@Z 0000000180027310 f i GRBLdlg.obj
 0001:00026370       ?link@?$xpression_adaptor@U?$static_xpression@U?$literal_matcher@U?$cpp_regex_traits@D@xpressive@boost@@U?$bool_@$0A@@mpl@3@U453@@detail@xpressive@boost@@U?$static_xpression@Umark_begin_matcher@detail@xpressive@boost@@U?$static_xpression@U?$simple_repeat_matcher@U?$static_xpression@U?$posix_charset_matcher@U?$cpp_regex_traits@D@xpressive@boost@@@detail@xpressive@boost@@U?$static_xpression@Utrue_matcher@detail@xpressive@boost@@Uno_next@234@@234@@detail@xpressive@boost@@U?$bool_@$00@mpl@4@@detail@xpressive@boost@@U?$static_xpression@Umark_end_matcher@detail@xpressive@boost@@U?$static_xpression@U?$optional_mark_matcher@U?$static_xpression@Umark_begin_matcher@detail@xpressive@boost@@U?$static_xpression@U?$literal_matcher@U?$cpp_regex_traits@D@xpressive@boost@@U?$bool_@$0A@@mpl@3@U453@@detail@xpressive@boost@@U?$static_xpression@U?$simple_repeat_matcher@U?$static_xpression@U?$posix_charset_matcher@U?$cpp_regex_traits@D@xpressive@boost@@@detail@xpressive@boost@@U?$static_xpression@Utrue_matcher@detail@xpressive@boost@@Uno_next@234@@234@@detail@xpressive@boost@@U?$bool_@$00@mpl@4@@detail@xpressive@boost@@U?$static_xpression@Umark_end_matcher@detail@xpressive@boost@@U?$static_xpression@Ualternate_end_matcher@detail@xpressive@boost@@Uno_next@234@@234@@234@@234@@234@@detail@xpressive@boost@@U?$bool_@$00@mpl@4@@detail@xpressive@boost@@U?$static_xpression@U?$optional_mark_matcher@U?$static_xpression@Urepeat_begin_matcher@detail@xpressive@boost@@U?$static_xpression@Umark_begin_matcher@detail@xpressive@boost@@U?$static_xpression@U?$posix_charset_matcher@U?$cpp_regex_traits@D@xpressive@boost@@@detail@xpressive@boost@@U?$static_xpression@U?$simple_repeat_matcher@U?$static_xpression@U?$posix_charset_matcher@U?$cpp_regex_traits@D@xpressive@boost@@@detail@xpressive@boost@@U?$static_xpression@Utrue_matcher@detail@xpressive@boost@@Uno_next@234@@234@@detail@xpressive@boost@@U?$bool_@$00@mpl@4@@detail@xpressive@boost@@U?$static_xpression@Umark_end_matcher@detail@xpressive@boost@@U?$static_xpression@U?$repeat_end_matcher@U?$bool_@$00@mpl@boost@@@detail@xpressive@boost@@U?$static_xpression@Ualternate_end_matcher@detail@xpressive@boost@@Uno_next@234@@234@@234@@234@@234@@234@@234@@detail@xpressive@boost@@U?$bool_@$00@mpl@4@@detail@xpressive@boost@@U?$static_xpression@Uend_matcher@detail@xpressive@boost@@Uno_next@234@@234@@234@@234@@234@@234@@234@@detail@xpressive@boost@@U?$matchable_ex@V?$_String_const_iterator@V?$_String_val@U?$_Simple_types@D@std@@@std@@@std@@@234@@detail@xpressive@boost@@UEBAXAEAU?$xpression_linker@D@234@@Z 0000000180027370 f i GRBLdlg.obj
 0001:000263e0       ?match@?$xpression_adaptor@U?$static_xpression@U?$literal_matcher@U?$cpp_regex_traits@D@xpressive@boost@@U?$bool_@$0A@@mpl@3@U453@@detail@xpressive@boost@@U?$static_xpression@Umark_begin_matcher@detail@xpressive@boost@@U?$static_xpression@U?$simple_repeat_matcher@U?$static_xpression@U?$posix_charset_matcher@U?$cpp_regex_traits@D@xpressive@boost@@@detail@xpressive@boost@@U?$static_xpression@Utrue_matcher@detail@xpressive@boost@@Uno_next@234@@234@@detail@xpressive@boost@@U?$bool_@$00@mpl@4@@detail@xpressive@boost@@U?$static_xpression@Umark_end_matcher@detail@xpressive@boost@@U?$static_xpression@U?$optional_mark_matcher@U?$static_xpression@Umark_begin_matcher@detail@xpressive@boost@@U?$static_xpression@U?$literal_matcher@U?$cpp_regex_traits@D@xpressive@boost@@U?$bool_@$0A@@mpl@3@U453@@detail@xpressive@boost@@U?$static_xpression@U?$simple_repeat_matcher@U?$static_xpression@U?$posix_charset_matcher@U?$cpp_regex_traits@D@xpressive@boost@@@detail@xpressive@boost@@U?$static_xpression@Utrue_matcher@detail@xpressive@boost@@Uno_next@234@@234@@detail@xpressive@boost@@U?$bool_@$00@mpl@4@@detail@xpressive@boost@@U?$static_xpression@Umark_end_matcher@detail@xpressive@boost@@U?$static_xpression@Ualternate_end_matcher@detail@xpressive@boost@@Uno_next@234@@234@@234@@234@@234@@detail@xpressive@boost@@U?$bool_@$00@mpl@4@@detail@xpressive@boost@@U?$static_xpression@U?$optional_mark_matcher@U?$static_xpression@Urepeat_begin_matcher@detail@xpressive@boost@@U?$static_xpression@Umark_begin_matcher@detail@xpressive@boost@@U?$static_xpression@U?$posix_charset_matcher@U?$cpp_regex_traits@D@xpressive@boost@@@detail@xpressive@boost@@U?$static_xpression@U?$simple_repeat_matcher@U?$static_xpression@U?$posix_charset_matcher@U?$cpp_regex_traits@D@xpressive@boost@@@detail@xpressive@boost@@U?$static_xpression@Utrue_matcher@detail@xpressive@boost@@Uno_next@234@@234@@detail@xpressive@boost@@U?$bool_@$00@mpl@4@@detail@xpressive@boost@@U?$static_xpression@Umark_end_matcher@detail@xpressive@boost@@U?$static_xpression@U?$repeat_end_matcher@U?$bool_@$00@mpl@boost@@@detail@xpressive@boost@@U?$static_xpression@Ualternate_end_matcher@detail@xpressive@boost@@Uno_next@234@@234@@234@@234@@234@@234@@234@@detail@xpressive@boost@@U?$bool_@$00@mpl@4@@detail@xpressive@boost@@U?$static_xpression@Uend_matcher@detail@xpressive@boost@@Uno_next@234@@234@@234@@234@@234@@234@@234@@detail@xpressive@boost@@U?$matchable_ex@V?$_String_const_iterator@V?$_String_val@U?$_Simple_types@D@std@@@std@@@std@@@234@@detail@xpressive@boost@@UEBA_NAEAU?$match_state@V?$_String_const_iterator@V?$_String_val@U?$_Simple_types@D@std@@@std@@@std@@@234@@Z 00000001800273e0 f i GRBLdlg.obj
 0001:000263f0       ?peek@?$xpression_adaptor@U?$static_xpression@Umark_begin_matcher@detail@xpressive@boost@@U?$static_xpression@Uassert_bos_matcher@detail@xpressive@boost@@U?$static_xpression@U?$literal_matcher@U?$cpp_regex_traits@D@xpressive@boost@@U?$bool_@$0A@@mpl@3@U453@@detail@xpressive@boost@@U?$static_xpression@U?$simple_repeat_matcher@U?$static_xpression@U?$posix_charset_matcher@U?$cpp_regex_traits@D@xpressive@boost@@@detail@xpressive@boost@@U?$static_xpression@Utrue_matcher@detail@xpressive@boost@@Uno_next@234@@234@@detail@xpressive@boost@@U?$bool_@$00@mpl@4@@detail@xpressive@boost@@U?$static_xpression@Umark_end_matcher@detail@xpressive@boost@@U?$static_xpression@Umark_begin_matcher@detail@xpressive@boost@@U?$static_xpression@U?$simple_repeat_matcher@U?$static_xpression@Uany_matcher@detail@xpressive@boost@@U?$static_xpression@Utrue_matcher@detail@xpressive@boost@@Uno_next@234@@234@@detail@xpressive@boost@@U?$bool_@$00@mpl@4@@detail@xpressive@boost@@U?$static_xpression@Umark_end_matcher@detail@xpressive@boost@@U?$static_xpression@Uend_matcher@detail@xpressive@boost@@Uno_next@234@@234@@234@@234@@234@@234@@234@@234@@234@@detail@xpressive@boost@@U?$matchable_ex@V?$_String_const_iterator@V?$_String_val@U?$_Simple_types@D@std@@@std@@@std@@@234@@detail@xpressive@boost@@UEBAXAEAU?$xpression_peeker@D@234@@Z 00000001800273f0 f i GRBLdlg.obj
 0001:00026430       ?match@?$xpression_adaptor@U?$static_xpression@Umark_begin_matcher@detail@xpressive@boost@@U?$static_xpression@Uassert_bos_matcher@detail@xpressive@boost@@U?$static_xpression@U?$literal_matcher@U?$cpp_regex_traits@D@xpressive@boost@@U?$bool_@$0A@@mpl@3@U453@@detail@xpressive@boost@@U?$static_xpression@U?$simple_repeat_matcher@U?$static_xpression@U?$posix_charset_matcher@U?$cpp_regex_traits@D@xpressive@boost@@@detail@xpressive@boost@@U?$static_xpression@Utrue_matcher@detail@xpressive@boost@@Uno_next@234@@234@@detail@xpressive@boost@@U?$bool_@$00@mpl@4@@detail@xpressive@boost@@U?$static_xpression@Umark_end_matcher@detail@xpressive@boost@@U?$static_xpression@Umark_begin_matcher@detail@xpressive@boost@@U?$static_xpression@U?$simple_repeat_matcher@U?$static_xpression@Uany_matcher@detail@xpressive@boost@@U?$static_xpression@Utrue_matcher@detail@xpressive@boost@@Uno_next@234@@234@@detail@xpressive@boost@@U?$bool_@$00@mpl@4@@detail@xpressive@boost@@U?$static_xpression@Umark_end_matcher@detail@xpressive@boost@@U?$static_xpression@Uend_matcher@detail@xpressive@boost@@Uno_next@234@@234@@234@@234@@234@@234@@234@@234@@234@@detail@xpressive@boost@@U?$matchable_ex@V?$_String_const_iterator@V?$_String_val@U?$_Simple_types@D@std@@@std@@@std@@@234@@detail@xpressive@boost@@UEBA_NAEAU?$match_state@V?$_String_const_iterator@V?$_String_val@U?$_Simple_types@D@std@@@std@@@std@@@234@@Z 0000000180027430 f i GRBLdlg.obj
 0001:00026440       ?peek@?$xpression_adaptor@U?$static_xpression@U?$alternate_matcher@U?$alternates_list@U?$static_xpression@U?$literal_matcher@U?$cpp_regex_traits@D@xpressive@boost@@U?$bool_@$0A@@mpl@3@U453@@detail@xpressive@boost@@U?$static_xpression@U?$simple_repeat_matcher@U?$static_xpression@U?$literal_matcher@U?$cpp_regex_traits@D@xpressive@boost@@U?$bool_@$0A@@mpl@3@U?$bool_@$00@53@@detail@xpressive@boost@@U?$static_xpression@Utrue_matcher@detail@xpressive@boost@@Uno_next@234@@234@@detail@xpressive@boost@@U?$bool_@$00@mpl@4@@detail@xpressive@boost@@U?$static_xpression@U?$literal_matcher@U?$cpp_regex_traits@D@xpressive@boost@@U?$bool_@$0A@@mpl@3@U453@@detail@xpressive@boost@@U?$static_xpression@Ualternate_end_matcher@detail@xpressive@boost@@Uno_next@234@@234@@234@@234@@detail@xpressive@boost@@U?$alternates_list@U?$static_xpression@U?$alternate_matcher@U?$alternates_list@U?$static_xpression@U?$literal_matcher@U?$cpp_regex_traits@D@xpressive@boost@@U?$bool_@$0A@@mpl@3@U453@@detail@xpressive@boost@@U?$static_xpression@Ualternate_end_matcher@detail@xpressive@boost@@Uno_next@234@@234@@detail@xpressive@boost@@U?$alternates_list@U?$static_xpression@U?$literal_matcher@U?$cpp_regex_traits@D@xpressive@boost@@U?$bool_@$0A@@mpl@3@U453@@detail@xpressive@boost@@U?$static_xpression@Ualternate_end_matcher@detail@xpressive@boost@@Uno_next@234@@234@@detail@xpressive@boost@@Unil_@fusion@4@@234@@detail@xpressive@boost@@U?$cpp_regex_traits@D@34@@detail@xpressive@boost@@U?$static_xpression@U?$simple_repeat_matcher@U?$static_xpression@U?$posix_charset_matcher@U?$cpp_regex_traits@D@xpressive@boost@@@detail@xpressive@boost@@U?$static_xpression@Utrue_matcher@detail@xpressive@boost@@Uno_next@234@@234@@detail@xpressive@boost@@U?$bool_@$00@mpl@4@@detail@xpressive@boost@@U?$static_xpression@Ualternate_end_matcher@detail@xpressive@boost@@Uno_next@234@@234@@234@@detail@xpressive@boost@@Unil_@fusion@4@@234@@detail@xpressive@boost@@U?$cpp_regex_traits@D@34@@detail@xpressive@boost@@U?$static_xpression@Uend_matcher@detail@xpressive@boost@@Uno_next@234@@234@@detail@xpressive@boost@@U?$matchable_ex@V?$_String_const_iterator@V?$_String_val@U?$_Simple_types@D@std@@@std@@@std@@@234@@detail@xpressive@boost@@UEBAXAEAU?$xpression_peeker@D@234@@Z 0000000180027440 f i GRBLdlg.obj
 0001:000264a0       ?link@?$xpression_adaptor@U?$static_xpression@U?$alternate_matcher@U?$alternates_list@U?$static_xpression@U?$literal_matcher@U?$cpp_regex_traits@D@xpressive@boost@@U?$bool_@$0A@@mpl@3@U453@@detail@xpressive@boost@@U?$static_xpression@U?$simple_repeat_matcher@U?$static_xpression@U?$literal_matcher@U?$cpp_regex_traits@D@xpressive@boost@@U?$bool_@$0A@@mpl@3@U?$bool_@$00@53@@detail@xpressive@boost@@U?$static_xpression@Utrue_matcher@detail@xpressive@boost@@Uno_next@234@@234@@detail@xpressive@boost@@U?$bool_@$00@mpl@4@@detail@xpressive@boost@@U?$static_xpression@U?$literal_matcher@U?$cpp_regex_traits@D@xpressive@boost@@U?$bool_@$0A@@mpl@3@U453@@detail@xpressive@boost@@U?$static_xpression@Ualternate_end_matcher@detail@xpressive@boost@@Uno_next@234@@234@@234@@234@@detail@xpressive@boost@@U?$alternates_list@U?$static_xpression@U?$alternate_matcher@U?$alternates_list@U?$static_xpression@U?$literal_matcher@U?$cpp_regex_traits@D@xpressive@boost@@U?$bool_@$0A@@mpl@3@U453@@detail@xpressive@boost@@U?$static_xpression@Ualternate_end_matcher@detail@xpressive@boost@@Uno_next@234@@234@@detail@xpressive@boost@@U?$alternates_list@U?$static_xpression@U?$literal_matcher@U?$cpp_regex_traits@D@xpressive@boost@@U?$bool_@$0A@@mpl@3@U453@@detail@xpressive@boost@@U?$static_xpression@Ualternate_end_matcher@detail@xpressive@boost@@Uno_next@234@@234@@detail@xpressive@boost@@Unil_@fusion@4@@234@@detail@xpressive@boost@@U?$cpp_regex_traits@D@34@@detail@xpressive@boost@@U?$static_xpression@U?$simple_repeat_matcher@U?$static_xpression@U?$posix_charset_matcher@U?$cpp_regex_traits@D@xpressive@boost@@@detail@xpressive@boost@@U?$static_xpression@Utrue_matcher@detail@xpressive@boost@@Uno_next@234@@234@@detail@xpressive@boost@@U?$bool_@$00@mpl@4@@detail@xpressive@boost@@U?$static_xpression@Ualternate_end_matcher@detail@xpressive@boost@@Uno_next@234@@234@@234@@detail@xpressive@boost@@Unil_@fusion@4@@234@@detail@xpressive@boost@@U?$cpp_regex_traits@D@34@@detail@xpressive@boost@@U?$static_xpression@Uend_matcher@detail@xpressive@boost@@Uno_next@234@@234@@detail@xpressive@boost@@U?$matchable_ex@V?$_String_const_iterator@V?$_String_val@U?$_Simple_types@D@std@@@std@@@std@@@234@@detail@xpressive@boost@@UEBAXAEAU?$xpression_linker@D@234@@Z 00000001800274a0 f i GRBLdlg.obj
 0001:000264c0       ?match@?$xpression_adaptor@U?$static_xpression@U?$alternate_matcher@U?$alternates_list@U?$static_xpression@U?$literal_matcher@U?$cpp_regex_traits@D@xpressive@boost@@U?$bool_@$0A@@mpl@3@U453@@detail@xpressive@boost@@U?$static_xpression@U?$simple_repeat_matcher@U?$static_xpression@U?$literal_matcher@U?$cpp_regex_traits@D@xpressive@boost@@U?$bool_@$0A@@mpl@3@U?$bool_@$00@53@@detail@xpressive@boost@@U?$static_xpression@Utrue_matcher@detail@xpressive@boost@@Uno_next@234@@234@@detail@xpressive@boost@@U?$bool_@$00@mpl@4@@detail@xpressive@boost@@U?$static_xpression@U?$literal_matcher@U?$cpp_regex_traits@D@xpressive@boost@@U?$bool_@$0A@@mpl@3@U453@@detail@xpressive@boost@@U?$static_xpression@Ualternate_end_matcher@detail@xpressive@boost@@Uno_next@234@@234@@234@@234@@detail@xpressive@boost@@U?$alternates_list@U?$static_xpression@U?$alternate_matcher@U?$alternates_list@U?$static_xpression@U?$literal_matcher@U?$cpp_regex_traits@D@xpressive@boost@@U?$bool_@$0A@@mpl@3@U453@@detail@xpressive@boost@@U?$static_xpression@Ualternate_end_matcher@detail@xpressive@boost@@Uno_next@234@@234@@detail@xpressive@boost@@U?$alternates_list@U?$static_xpression@U?$literal_matcher@U?$cpp_regex_traits@D@xpressive@boost@@U?$bool_@$0A@@mpl@3@U453@@detail@xpressive@boost@@U?$static_xpression@Ualternate_end_matcher@detail@xpressive@boost@@Uno_next@234@@234@@detail@xpressive@boost@@Unil_@fusion@4@@234@@detail@xpressive@boost@@U?$cpp_regex_traits@D@34@@detail@xpressive@boost@@U?$static_xpression@U?$simple_repeat_matcher@U?$static_xpression@U?$posix_charset_matcher@U?$cpp_regex_traits@D@xpressive@boost@@@detail@xpressive@boost@@U?$static_xpression@Utrue_matcher@detail@xpressive@boost@@Uno_next@234@@234@@detail@xpressive@boost@@U?$bool_@$00@mpl@4@@detail@xpressive@boost@@U?$static_xpression@Ualternate_end_matcher@detail@xpressive@boost@@Uno_next@234@@234@@234@@detail@xpressive@boost@@Unil_@fusion@4@@234@@detail@xpressive@boost@@U?$cpp_regex_traits@D@34@@detail@xpressive@boost@@U?$static_xpression@Uend_matcher@detail@xpressive@boost@@Uno_next@234@@234@@detail@xpressive@boost@@U?$matchable_ex@V?$_String_const_iterator@V?$_String_val@U?$_Simple_types@D@std@@@std@@@std@@@234@@detail@xpressive@boost@@UEBA_NAEAU?$match_state@V?$_String_const_iterator@V?$_String_val@U?$_Simple_types@D@std@@@std@@@std@@@234@@Z 00000001800274c0 f i GRBLdlg.obj
 0001:000264d0       ?invoke@?$function_obj_invoker2@U?$token_finderF@U?$is_any_ofF@D@detail@algorithm@boost@@@detail@algorithm@boost@@V?$iterator_range@PEBD@4@PEBDPEBD@function@detail@boost@@SA?AV?$iterator_range@PEBD@4@AEATfunction_buffer@234@PEBD1@Z 00000001800274d0 f i GRBLdlg.obj
 0001:000264f0       ?manage@?$functor_manager@U?$token_finderF@U?$is_any_ofF@D@detail@algorithm@boost@@@detail@algorithm@boost@@@function@detail@boost@@SAXAEBTfunction_buffer@234@AEAT5234@W4functor_manager_operation_type@234@@Z 00000001800274f0 f i GRBLdlg.obj
 0001:00026510       ?invoke@?$function_obj_invoker2@U?$token_finderF@U?$is_any_ofF@D@detail@algorithm@boost@@@detail@algorithm@boost@@V?$iterator_range@V?$_String_iterator@V?$_String_val@U?$_Simple_types@D@std@@@std@@@std@@@4@V?$_String_iterator@V?$_String_val@U?$_Simple_types@D@std@@@std@@@std@@V67@@function@detail@boost@@SA?AV?$iterator_range@V?$_String_iterator@V?$_String_val@U?$_Simple_types@D@std@@@std@@@std@@@4@AEATfunction_buffer@234@V?$_String_iterator@V?$_String_val@U?$_Simple_types@D@std@@@std@@@std@@1@Z 0000000180027510 f i GRBLdlg.obj
 0001:00026530       ?dereference@?$transform_iterator@U?$copy_iterator_rangeF@V?$basic_string@DU?$char_traits@D@std@@V?$allocator@D@2@@std@@PEBD@detail@algorithm@boost@@V?$split_iterator@PEBD@34@Uuse_default@4@U64@@iterators@boost@@AEBA?AV?$basic_string@DU?$char_traits@D@std@@V?$allocator@D@2@@std@@XZ 0000000180027530 f i GRBLdlg.obj
 0001:00026530       ?dereference@?$transform_iterator@U?$copy_iterator_rangeF@V?$basic_string@DU?$char_traits@D@std@@V?$allocator@D@2@@std@@V?$_String_iterator@V?$_String_val@U?$_Simple_types@D@std@@@std@@@2@@detail@algorithm@boost@@V?$split_iterator@V?$_String_iterator@V?$_String_val@U?$_Simple_types@D@std@@@std@@@std@@@34@Uuse_default@4@U64@@iterators@boost@@AEBA?AV?$basic_string@DU?$char_traits@D@std@@V?$allocator@D@2@@std@@XZ 0000000180027530 f i GRBLdlg.obj
 0001:00026560       ??R?$less@V?$basic_string@DU?$char_traits@D@std@@V?$allocator@D@2@@std@@@std@@QEBA_NAEBV?$basic_string@DU?$char_traits@D@std@@V?$allocator@D@2@@1@0@Z 0000000180027560 f i GRBLdlg.obj
 0001:000265e0       ?_Reserve@?$vector@V?$basic_string@DU?$char_traits@D@std@@V?$allocator@D@2@@std@@V?$allocator@V?$basic_string@DU?$char_traits@D@std@@V?$allocator@D@2@@std@@@2@@std@@IEAAX_K@Z 00000001800275e0 f i GRBLdlg.obj
 0001:00026670       ??_E?$invalid_xpression@V?$_String_const_iterator@V?$_String_val@U?$_Simple_types@D@std@@@std@@@std@@@detail@xpressive@boost@@UEAAPEAXI@Z 0000000180027670 f i * CIL library *:* CIL module *
 0001:00026670       ??_G?$invalid_xpression@V?$_String_const_iterator@V?$_String_val@U?$_Simple_types@D@std@@@std@@@std@@@detail@xpressive@boost@@UEAAPEAXI@Z 0000000180027670 f i GRBLdlg.obj
 0001:000266a0       ??_G?$boyer_moore_finder@V?$_String_const_iterator@V?$_String_val@U?$_Simple_types@D@std@@@std@@@std@@U?$cpp_regex_traits@D@xpressive@boost@@@detail@xpressive@boost@@UEAAPEAXI@Z 00000001800276a0 f i GRBLdlg.obj
 0001:000266a0       ??_E?$boyer_moore_finder@V?$_String_const_iterator@V?$_String_val@U?$_Simple_types@D@std@@@std@@@std@@U?$regex_traits@DU?$cpp_regex_traits@D@xpressive@boost@@@xpressive@boost@@@detail@xpressive@boost@@UEAAPEAXI@Z 00000001800276a0 f i * CIL library *:* CIL module *
 0001:000266a0       ??_G?$boyer_moore_finder@V?$_String_const_iterator@V?$_String_val@U?$_Simple_types@D@std@@@std@@@std@@U?$regex_traits@DU?$cpp_regex_traits@D@xpressive@boost@@@xpressive@boost@@@detail@xpressive@boost@@UEAAPEAXI@Z 00000001800276a0 f i GRBLdlg.obj
 0001:000266a0       ??_E?$boyer_moore_finder@V?$_String_const_iterator@V?$_String_val@U?$_Simple_types@D@std@@@std@@@std@@U?$cpp_regex_traits@D@xpressive@boost@@@detail@xpressive@boost@@UEAAPEAXI@Z 00000001800276a0 f i * CIL library *:* CIL module *
 0001:000266e0       ??1?$boyer_moore_finder@V?$_String_const_iterator@V?$_String_val@U?$_Simple_types@D@std@@@std@@@std@@U?$cpp_regex_traits@D@xpressive@boost@@@detail@xpressive@boost@@UEAA@XZ 00000001800276e0 f i GRBLdlg.obj
 0001:000266e0       ??1?$boyer_moore_finder@V?$_String_const_iterator@V?$_String_val@U?$_Simple_types@D@std@@@std@@@std@@U?$regex_traits@DU?$cpp_regex_traits@D@xpressive@boost@@@xpressive@boost@@@detail@xpressive@boost@@UEAA@XZ 00000001800276e0 f i GRBLdlg.obj
 0001:00026770       ??_G?$dynamic_xpression@U?$alternate_matcher@U?$alternates_vector@V?$_String_const_iterator@V?$_String_val@U?$_Simple_types@D@std@@@std@@@std@@@detail@xpressive@boost@@U?$regex_traits@DU?$cpp_regex_traits@D@xpressive@boost@@@34@@detail@xpressive@boost@@V?$_String_const_iterator@V?$_String_val@U?$_Simple_types@D@std@@@std@@@std@@@detail@xpressive@boost@@UEAAPEAXI@Z 0000000180027770 f i GRBLdlg.obj
 0001:00026770       ??_E?$dynamic_xpression@U?$alternate_matcher@U?$alternates_vector@V?$_String_const_iterator@V?$_String_val@U?$_Simple_types@D@std@@@std@@@std@@@detail@xpressive@boost@@U?$regex_traits@DU?$cpp_regex_traits@D@xpressive@boost@@@34@@detail@xpressive@boost@@V?$_String_const_iterator@V?$_String_val@U?$_Simple_types@D@std@@@std@@@std@@@detail@xpressive@boost@@UEAAPEAXI@Z 0000000180027770 f i * CIL library *:* CIL module *
 0001:000267b0       ??1?$dynamic_xpression@U?$alternate_matcher@U?$alternates_vector@V?$_String_const_iterator@V?$_String_val@U?$_Simple_types@D@std@@@std@@@std@@@detail@xpressive@boost@@U?$regex_traits@DU?$cpp_regex_traits@D@xpressive@boost@@@34@@detail@xpressive@boost@@V?$_String_const_iterator@V?$_String_val@U?$_Simple_types@D@std@@@std@@@std@@@detail@xpressive@boost@@UEAA@XZ 00000001800277b0 f i GRBLdlg.obj
 0001:00026840       ??_E?$xpression_adaptor@U?$static_xpression@U?$literal_matcher@U?$cpp_regex_traits@D@xpressive@boost@@U?$bool_@$0A@@mpl@3@U453@@detail@xpressive@boost@@U?$static_xpression@U?$simple_repeat_matcher@U?$static_xpression@U?$literal_matcher@U?$cpp_regex_traits@D@xpressive@boost@@U?$bool_@$0A@@mpl@3@U?$bool_@$00@53@@detail@xpressive@boost@@U?$static_xpression@Utrue_matcher@detail@xpressive@boost@@Uno_next@234@@234@@detail@xpressive@boost@@U?$bool_@$00@mpl@4@@detail@xpressive@boost@@U?$static_xpression@U?$literal_matcher@U?$cpp_regex_traits@D@xpressive@boost@@U?$bool_@$0A@@mpl@3@U453@@detail@xpressive@boost@@U?$static_xpression@Uend_matcher@detail@xpressive@boost@@Uno_next@234@@234@@234@@234@@detail@xpressive@boost@@U?$matchable_ex@V?$_String_const_iterator@V?$_String_val@U?$_Simple_types@D@std@@@std@@@std@@@234@@detail@xpressive@boost@@UEAAPEAXI@Z 0000000180027840 f i * CIL library *:* CIL module *
 0001:00026840       ??_G?$xpression_adaptor@U?$static_xpression@U?$literal_matcher@U?$cpp_regex_traits@D@xpressive@boost@@U?$bool_@$0A@@mpl@3@U453@@detail@xpressive@boost@@U?$static_xpression@U?$simple_repeat_matcher@U?$static_xpression@U?$literal_matcher@U?$cpp_regex_traits@D@xpressive@boost@@U?$bool_@$0A@@mpl@3@U?$bool_@$00@53@@detail@xpressive@boost@@U?$static_xpression@Utrue_matcher@detail@xpressive@boost@@Uno_next@234@@234@@detail@xpressive@boost@@U?$bool_@$00@mpl@4@@detail@xpressive@boost@@U?$static_xpression@U?$literal_matcher@U?$cpp_regex_traits@D@xpressive@boost@@U?$bool_@$0A@@mpl@3@U453@@detail@xpressive@boost@@U?$static_xpression@Uend_matcher@detail@xpressive@boost@@Uno_next@234@@234@@234@@234@@detail@xpressive@boost@@U?$matchable_ex@V?$_String_const_iterator@V?$_String_val@U?$_Simple_types@D@std@@@std@@@std@@@234@@detail@xpressive@boost@@UEAAPEAXI@Z 0000000180027840 f i GRBLdlg.obj
 0001:00026870       ??_G?$xpression_adaptor@U?$static_xpression@U?$literal_matcher@U?$cpp_regex_traits@D@xpressive@boost@@U?$bool_@$0A@@mpl@3@U453@@detail@xpressive@boost@@U?$static_xpression@Umark_begin_matcher@detail@xpressive@boost@@U?$static_xpression@U?$simple_repeat_matcher@U?$static_xpression@U?$posix_charset_matcher@U?$cpp_regex_traits@D@xpressive@boost@@@detail@xpressive@boost@@U?$static_xpression@Utrue_matcher@detail@xpressive@boost@@Uno_next@234@@234@@detail@xpressive@boost@@U?$bool_@$00@mpl@4@@detail@xpressive@boost@@U?$static_xpression@Umark_end_matcher@detail@xpressive@boost@@U?$static_xpression@U?$optional_mark_matcher@U?$static_xpression@Umark_begin_matcher@detail@xpressive@boost@@U?$static_xpression@U?$literal_matcher@U?$cpp_regex_traits@D@xpressive@boost@@U?$bool_@$0A@@mpl@3@U453@@detail@xpressive@boost@@U?$static_xpression@U?$simple_repeat_matcher@U?$static_xpression@U?$posix_charset_matcher@U?$cpp_regex_traits@D@xpressive@boost@@@detail@xpressive@boost@@U?$static_xpression@Utrue_matcher@detail@xpressive@boost@@Uno_next@234@@234@@detail@xpressive@boost@@U?$bool_@$00@mpl@4@@detail@xpressive@boost@@U?$static_xpression@Umark_end_matcher@detail@xpressive@boost@@U?$static_xpression@Ualternate_end_matcher@detail@xpressive@boost@@Uno_next@234@@234@@234@@234@@234@@detail@xpressive@boost@@U?$bool_@$00@mpl@4@@detail@xpressive@boost@@U?$static_xpression@U?$optional_mark_matcher@U?$static_xpression@Urepeat_begin_matcher@detail@xpressive@boost@@U?$static_xpression@Umark_begin_matcher@detail@xpressive@boost@@U?$static_xpression@U?$posix_charset_matcher@U?$cpp_regex_traits@D@xpressive@boost@@@detail@xpressive@boost@@U?$static_xpression@U?$simple_repeat_matcher@U?$static_xpression@U?$posix_charset_matcher@U?$cpp_regex_traits@D@xpressive@boost@@@detail@xpressive@boost@@U?$static_xpression@Utrue_matcher@detail@xpressive@boost@@Uno_next@234@@234@@detail@xpressive@boost@@U?$bool_@$00@mpl@4@@detail@xpressive@boost@@U?$static_xpression@Umark_end_matcher@detail@xpressive@boost@@U?$static_xpression@U?$repeat_end_matcher@U?$bool_@$00@mpl@boost@@@detail@xpressive@boost@@U?$static_xpression@Ualternate_end_matcher@detail@xpressive@boost@@Uno_next@234@@234@@234@@234@@234@@234@@234@@detail@xpressive@boost@@U?$bool_@$00@mpl@4@@detail@xpressive@boost@@U?$static_xpression@Uend_matcher@detail@xpressive@boost@@Uno_next@234@@234@@234@@234@@234@@234@@234@@detail@xpressive@boost@@U?$matchable_ex@V?$_String_const_iterator@V?$_String_val@U?$_Simple_types@D@std@@@std@@@std@@@234@@detail@xpressive@boost@@UEAAPEAXI@Z 0000000180027870 f i GRBLdlg.obj
 0001:00026870       ??_E?$xpression_adaptor@U?$static_xpression@U?$literal_matcher@U?$cpp_regex_traits@D@xpressive@boost@@U?$bool_@$0A@@mpl@3@U453@@detail@xpressive@boost@@U?$static_xpression@Umark_begin_matcher@detail@xpressive@boost@@U?$static_xpression@U?$simple_repeat_matcher@U?$static_xpression@U?$posix_charset_matcher@U?$cpp_regex_traits@D@xpressive@boost@@@detail@xpressive@boost@@U?$static_xpression@Utrue_matcher@detail@xpressive@boost@@Uno_next@234@@234@@detail@xpressive@boost@@U?$bool_@$00@mpl@4@@detail@xpressive@boost@@U?$static_xpression@Umark_end_matcher@detail@xpressive@boost@@U?$static_xpression@U?$optional_mark_matcher@U?$static_xpression@Umark_begin_matcher@detail@xpressive@boost@@U?$static_xpression@U?$literal_matcher@U?$cpp_regex_traits@D@xpressive@boost@@U?$bool_@$0A@@mpl@3@U453@@detail@xpressive@boost@@U?$static_xpression@U?$simple_repeat_matcher@U?$static_xpression@U?$posix_charset_matcher@U?$cpp_regex_traits@D@xpressive@boost@@@detail@xpressive@boost@@U?$static_xpression@Utrue_matcher@detail@xpressive@boost@@Uno_next@234@@234@@detail@xpressive@boost@@U?$bool_@$00@mpl@4@@detail@xpressive@boost@@U?$static_xpression@Umark_end_matcher@detail@xpressive@boost@@U?$static_xpression@Ualternate_end_matcher@detail@xpressive@boost@@Uno_next@234@@234@@234@@234@@234@@detail@xpressive@boost@@U?$bool_@$00@mpl@4@@detail@xpressive@boost@@U?$static_xpression@U?$optional_mark_matcher@U?$static_xpression@Urepeat_begin_matcher@detail@xpressive@boost@@U?$static_xpression@Umark_begin_matcher@detail@xpressive@boost@@U?$static_xpression@U?$posix_charset_matcher@U?$cpp_regex_traits@D@xpressive@boost@@@detail@xpressive@boost@@U?$static_xpression@U?$simple_repeat_matcher@U?$static_xpression@U?$posix_charset_matcher@U?$cpp_regex_traits@D@xpressive@boost@@@detail@xpressive@boost@@U?$static_xpression@Utrue_matcher@detail@xpressive@boost@@Uno_next@234@@234@@detail@xpressive@boost@@U?$bool_@$00@mpl@4@@detail@xpressive@boost@@U?$static_xpression@Umark_end_matcher@detail@xpressive@boost@@U?$static_xpression@U?$repeat_end_matcher@U?$bool_@$00@mpl@boost@@@detail@xpressive@boost@@U?$static_xpression@Ualternate_end_matcher@detail@xpressive@boost@@Uno_next@234@@234@@234@@234@@234@@234@@234@@detail@xpressive@boost@@U?$bool_@$00@mpl@4@@detail@xpressive@boost@@U?$static_xpression@Uend_matcher@detail@xpressive@boost@@Uno_next@234@@234@@234@@234@@234@@234@@234@@detail@xpressive@boost@@U?$matchable_ex@V?$_String_const_iterator@V?$_String_val@U?$_Simple_types@D@std@@@std@@@std@@@234@@detail@xpressive@boost@@UEAAPEAXI@Z 0000000180027870 f i * CIL library *:* CIL module *
 0001:000268a0       ??_G?$xpression_adaptor@U?$static_xpression@Umark_begin_matcher@detail@xpressive@boost@@U?$static_xpression@Uassert_bos_matcher@detail@xpressive@boost@@U?$static_xpression@U?$literal_matcher@U?$cpp_regex_traits@D@xpressive@boost@@U?$bool_@$0A@@mpl@3@U453@@detail@xpressive@boost@@U?$static_xpression@U?$simple_repeat_matcher@U?$static_xpression@U?$posix_charset_matcher@U?$cpp_regex_traits@D@xpressive@boost@@@detail@xpressive@boost@@U?$static_xpression@Utrue_matcher@detail@xpressive@boost@@Uno_next@234@@234@@detail@xpressive@boost@@U?$bool_@$00@mpl@4@@detail@xpressive@boost@@U?$static_xpression@Umark_end_matcher@detail@xpressive@boost@@U?$static_xpression@Umark_begin_matcher@detail@xpressive@boost@@U?$static_xpression@U?$simple_repeat_matcher@U?$static_xpression@Uany_matcher@detail@xpressive@boost@@U?$static_xpression@Utrue_matcher@detail@xpressive@boost@@Uno_next@234@@234@@detail@xpressive@boost@@U?$bool_@$00@mpl@4@@detail@xpressive@boost@@U?$static_xpression@Umark_end_matcher@detail@xpressive@boost@@U?$static_xpression@Uend_matcher@detail@xpressive@boost@@Uno_next@234@@234@@234@@234@@234@@234@@234@@234@@234@@detail@xpressive@boost@@U?$matchable_ex@V?$_String_const_iterator@V?$_String_val@U?$_Simple_types@D@std@@@std@@@std@@@234@@detail@xpressive@boost@@UEAAPEAXI@Z 00000001800278a0 f i GRBLdlg.obj
 0001:000268a0       ??_E?$xpression_adaptor@U?$static_xpression@Umark_begin_matcher@detail@xpressive@boost@@U?$static_xpression@Uassert_bos_matcher@detail@xpressive@boost@@U?$static_xpression@U?$literal_matcher@U?$cpp_regex_traits@D@xpressive@boost@@U?$bool_@$0A@@mpl@3@U453@@detail@xpressive@boost@@U?$static_xpression@U?$simple_repeat_matcher@U?$static_xpression@U?$posix_charset_matcher@U?$cpp_regex_traits@D@xpressive@boost@@@detail@xpressive@boost@@U?$static_xpression@Utrue_matcher@detail@xpressive@boost@@Uno_next@234@@234@@detail@xpressive@boost@@U?$bool_@$00@mpl@4@@detail@xpressive@boost@@U?$static_xpression@Umark_end_matcher@detail@xpressive@boost@@U?$static_xpression@Umark_begin_matcher@detail@xpressive@boost@@U?$static_xpression@U?$simple_repeat_matcher@U?$static_xpression@Uany_matcher@detail@xpressive@boost@@U?$static_xpression@Utrue_matcher@detail@xpressive@boost@@Uno_next@234@@234@@detail@xpressive@boost@@U?$bool_@$00@mpl@4@@detail@xpressive@boost@@U?$static_xpression@Umark_end_matcher@detail@xpressive@boost@@U?$static_xpression@Uend_matcher@detail@xpressive@boost@@Uno_next@234@@234@@234@@234@@234@@234@@234@@234@@234@@detail@xpressive@boost@@U?$matchable_ex@V?$_String_const_iterator@V?$_String_val@U?$_Simple_types@D@std@@@std@@@std@@@234@@detail@xpressive@boost@@UEAAPEAXI@Z 00000001800278a0 f i * CIL library *:* CIL module *
 0001:000268d0       ??_G?$xpression_adaptor@U?$static_xpression@U?$alternate_matcher@U?$alternates_list@U?$static_xpression@U?$literal_matcher@U?$cpp_regex_traits@D@xpressive@boost@@U?$bool_@$0A@@mpl@3@U453@@detail@xpressive@boost@@U?$static_xpression@U?$simple_repeat_matcher@U?$static_xpression@U?$literal_matcher@U?$cpp_regex_traits@D@xpressive@boost@@U?$bool_@$0A@@mpl@3@U?$bool_@$00@53@@detail@xpressive@boost@@U?$static_xpression@Utrue_matcher@detail@xpressive@boost@@Uno_next@234@@234@@detail@xpressive@boost@@U?$bool_@$00@mpl@4@@detail@xpressive@boost@@U?$static_xpression@U?$literal_matcher@U?$cpp_regex_traits@D@xpressive@boost@@U?$bool_@$0A@@mpl@3@U453@@detail@xpressive@boost@@U?$static_xpression@Ualternate_end_matcher@detail@xpressive@boost@@Uno_next@234@@234@@234@@234@@detail@xpressive@boost@@U?$alternates_list@U?$static_xpression@U?$alternate_matcher@U?$alternates_list@U?$static_xpression@U?$literal_matcher@U?$cpp_regex_traits@D@xpressive@boost@@U?$bool_@$0A@@mpl@3@U453@@detail@xpressive@boost@@U?$static_xpression@Ualternate_end_matcher@detail@xpressive@boost@@Uno_next@234@@234@@detail@xpressive@boost@@U?$alternates_list@U?$static_xpression@U?$literal_matcher@U?$cpp_regex_traits@D@xpressive@boost@@U?$bool_@$0A@@mpl@3@U453@@detail@xpressive@boost@@U?$static_xpression@Ualternate_end_matcher@detail@xpressive@boost@@Uno_next@234@@234@@detail@xpressive@boost@@Unil_@fusion@4@@234@@detail@xpressive@boost@@U?$cpp_regex_traits@D@34@@detail@xpressive@boost@@U?$static_xpression@U?$simple_repeat_matcher@U?$static_xpression@U?$posix_charset_matcher@U?$cpp_regex_traits@D@xpressive@boost@@@detail@xpressive@boost@@U?$static_xpression@Utrue_matcher@detail@xpressive@boost@@Uno_next@234@@234@@detail@xpressive@boost@@U?$bool_@$00@mpl@4@@detail@xpressive@boost@@U?$static_xpression@Ualternate_end_matcher@detail@xpressive@boost@@Uno_next@234@@234@@234@@detail@xpressive@boost@@Unil_@fusion@4@@234@@detail@xpressive@boost@@U?$cpp_regex_traits@D@34@@detail@xpressive@boost@@U?$static_xpression@Uend_matcher@detail@xpressive@boost@@Uno_next@234@@234@@detail@xpressive@boost@@U?$matchable_ex@V?$_String_const_iterator@V?$_String_val@U?$_Simple_types@D@std@@@std@@@std@@@234@@detail@xpressive@boost@@UEAAPEAXI@Z 00000001800278d0 f i GRBLdlg.obj
 0001:000268d0       ??_E?$xpression_adaptor@U?$static_xpression@U?$alternate_matcher@U?$alternates_list@U?$static_xpression@U?$literal_matcher@U?$cpp_regex_traits@D@xpressive@boost@@U?$bool_@$0A@@mpl@3@U453@@detail@xpressive@boost@@U?$static_xpression@U?$simple_repeat_matcher@U?$static_xpression@U?$literal_matcher@U?$cpp_regex_traits@D@xpressive@boost@@U?$bool_@$0A@@mpl@3@U?$bool_@$00@53@@detail@xpressive@boost@@U?$static_xpression@Utrue_matcher@detail@xpressive@boost@@Uno_next@234@@234@@detail@xpressive@boost@@U?$bool_@$00@mpl@4@@detail@xpressive@boost@@U?$static_xpression@U?$literal_matcher@U?$cpp_regex_traits@D@xpressive@boost@@U?$bool_@$0A@@mpl@3@U453@@detail@xpressive@boost@@U?$static_xpression@Ualternate_end_matcher@detail@xpressive@boost@@Uno_next@234@@234@@234@@234@@detail@xpressive@boost@@U?$alternates_list@U?$static_xpression@U?$alternate_matcher@U?$alternates_list@U?$static_xpression@U?$literal_matcher@U?$cpp_regex_traits@D@xpressive@boost@@U?$bool_@$0A@@mpl@3@U453@@detail@xpressive@boost@@U?$static_xpression@Ualternate_end_matcher@detail@xpressive@boost@@Uno_next@234@@234@@detail@xpressive@boost@@U?$alternates_list@U?$static_xpression@U?$literal_matcher@U?$cpp_regex_traits@D@xpressive@boost@@U?$bool_@$0A@@mpl@3@U453@@detail@xpressive@boost@@U?$static_xpression@Ualternate_end_matcher@detail@xpressive@boost@@Uno_next@234@@234@@detail@xpressive@boost@@Unil_@fusion@4@@234@@detail@xpressive@boost@@U?$cpp_regex_traits@D@34@@detail@xpressive@boost@@U?$static_xpression@U?$simple_repeat_matcher@U?$static_xpression@U?$posix_charset_matcher@U?$cpp_regex_traits@D@xpressive@boost@@@detail@xpressive@boost@@U?$static_xpression@Utrue_matcher@detail@xpressive@boost@@Uno_next@234@@234@@detail@xpressive@boost@@U?$bool_@$00@mpl@4@@detail@xpressive@boost@@U?$static_xpression@Ualternate_end_matcher@detail@xpressive@boost@@Uno_next@234@@234@@234@@detail@xpressive@boost@@Unil_@fusion@4@@234@@detail@xpressive@boost@@U?$cpp_regex_traits@D@34@@detail@xpressive@boost@@U?$static_xpression@Uend_matcher@detail@xpressive@boost@@Uno_next@234@@234@@detail@xpressive@boost@@U?$matchable_ex@V?$_String_const_iterator@V?$_String_val@U?$_Simple_types@D@std@@@std@@@std@@@234@@detail@xpressive@boost@@UEAAPEAXI@Z 00000001800278d0 f i * CIL library *:* CIL module *
 0001:00026900       ?repeat_@?$dynamic_xpression@Umark_end_matcher@detail@xpressive@boost@@V?$_String_const_iterator@V?$_String_val@U?$_Simple_types@D@std@@@std@@@std@@@detail@xpressive@boost@@AEBAXAEBUquant_spec@234@AEAU?$sequence@V?$_String_const_iterator@V?$_String_val@U?$_Simple_types@D@std@@@std@@@std@@@234@U?$int_@$0A@@mpl@4@U?$bool_@$0A@@84@@Z 0000000180027900 f i GRBLdlg.obj
 0001:00026a40       ?repeat_@?$dynamic_xpression@Utrue_matcher@detail@xpressive@boost@@V?$_String_const_iterator@V?$_String_val@U?$_Simple_types@D@std@@@std@@@std@@@detail@xpressive@boost@@AEBAXAEBUquant_spec@234@AEAU?$sequence@V?$_String_const_iterator@V?$_String_val@U?$_Simple_types@D@std@@@std@@@std@@@234@U?$int_@$0A@@mpl@4@U?$bool_@$0A@@84@@Z 0000000180027a40 f i GRBLdlg.obj
 0001:00026b80       ??0?$boyer_moore@V?$_String_const_iterator@V?$_String_val@U?$_Simple_types@D@std@@@std@@@std@@U?$regex_traits@DU?$cpp_regex_traits@D@xpressive@boost@@@xpressive@boost@@@detail@xpressive@boost@@QEAA@PEBD0AEBU?$regex_traits@DU?$cpp_regex_traits@D@xpressive@boost@@@23@_N@Z 0000000180027b80 f i GRBLdlg.obj
 0001:00026c50       ??R?$copy_iterator_rangeF@V?$basic_string@DU?$char_traits@D@std@@V?$allocator@D@2@@std@@PEBD@detail@algorithm@boost@@QEBA?AV?$basic_string@DU?$char_traits@D@std@@V?$allocator@D@2@@std@@AEBV?$iterator_range@PEBD@3@@Z 0000000180027c50 f i GRBLdlg.obj
 0001:00026c50       ??R?$copy_iterator_rangeF@V?$basic_string@DU?$char_traits@D@std@@V?$allocator@D@2@@std@@V?$_String_iterator@V?$_String_val@U?$_Simple_types@D@std@@@std@@@2@@detail@algorithm@boost@@QEBA?AV?$basic_string@DU?$char_traits@D@std@@V?$allocator@D@2@@std@@AEBV?$iterator_range@V?$_String_iterator@V?$_String_val@U?$_Simple_types@D@std@@@std@@@std@@@3@@Z 0000000180027c50 f i GRBLdlg.obj
 0001:00026c80       ?_Reallocate@?$vector@V?$basic_string@DU?$char_traits@D@std@@V?$allocator@D@2@@std@@V?$allocator@V?$basic_string@DU?$char_traits@D@std@@V?$allocator@D@2@@std@@@2@@std@@IEAAX_K@Z 0000000180027c80 f i GRBLdlg.obj
 0001:00026d20       ?find_nocase_@?$boyer_moore@V?$_String_const_iterator@V?$_String_val@U?$_Simple_types@D@std@@@std@@@std@@U?$regex_traits@DU?$cpp_regex_traits@D@xpressive@boost@@@xpressive@boost@@@detail@xpressive@boost@@AEBA?AV?$_String_const_iterator@V?$_String_val@U?$_Simple_types@D@std@@@std@@@std@@V56@0AEBU?$regex_traits@DU?$cpp_regex_traits@D@xpressive@boost@@@34@@Z 0000000180027d20 f i GRBLdlg.obj
 0001:00026e20       ?find_@?$boyer_moore@V?$_String_const_iterator@V?$_String_val@U?$_Simple_types@D@std@@@std@@@std@@U?$regex_traits@DU?$cpp_regex_traits@D@xpressive@boost@@@xpressive@boost@@@detail@xpressive@boost@@AEBA?AV?$_String_const_iterator@V?$_String_val@U?$_Simple_types@D@std@@@std@@@std@@V56@0AEBU?$regex_traits@DU?$cpp_regex_traits@D@xpressive@boost@@@34@@Z 0000000180027e20 f i GRBLdlg.obj
 0001:00026e20       ?find_@?$boyer_moore@V?$_String_const_iterator@V?$_String_val@U?$_Simple_types@D@std@@@std@@@std@@U?$cpp_regex_traits@D@xpressive@boost@@@detail@xpressive@boost@@AEBA?AV?$_String_const_iterator@V?$_String_val@U?$_Simple_types@D@std@@@std@@@std@@V56@0AEBU?$cpp_regex_traits@D@34@@Z 0000000180027e20 f i GRBLdlg.obj
 0001:00026ed0       ?manage_small@?$functor_manager_common@U?$token_finderF@U?$is_any_ofF@D@detail@algorithm@boost@@@detail@algorithm@boost@@@function@detail@boost@@SAXAEBTfunction_buffer@234@AEAT5234@W4functor_manager_operation_type@234@@Z 0000000180027ed0 f i GRBLdlg.obj
 0001:00026fc0       ?allocate@?$allocator@V?$basic_string@DU?$char_traits@D@std@@V?$allocator@D@2@@std@@@std@@QEAAPEAV?$basic_string@DU?$char_traits@D@std@@V?$allocator@D@2@@2@_K@Z 0000000180027fc0 f i GRBLdlg.obj
 0001:00027040       ??$optimize_regex@V?$_String_const_iterator@V?$_String_val@U?$_Simple_types@D@std@@@std@@@std@@U?$regex_traits@DU?$cpp_regex_traits@D@xpressive@boost@@@xpressive@boost@@@detail@xpressive@boost@@YA?AV?$intrusive_ptr@U?$finder@V?$_String_const_iterator@V?$_String_val@U?$_Simple_types@D@std@@@std@@@std@@@detail@xpressive@boost@@@2@AEBU?$xpression_peeker@D@012@AEBU?$regex_traits@DU?$cpp_regex_traits@D@xpressive@boost@@@12@U?$bool_@$0A@@mpl@2@@Z 0000000180028040 f i GRBLdlg.obj
 0001:000271c0       ??$_Partition_by_median_guess_unchecked@PEADU?$less@X@std@@@std@@YA?AU?$pair@PEADPEAD@0@PEAD0AEAU?$less@X@0@@Z 00000001800281c0 f i GRBLdlg.obj
 0001:00027360       ??$_Make_heap_unchecked@PEADU?$less@X@std@@@std@@YAXPEAD0AEAU?$less@X@0@@Z 0000000180028360 f i GRBLdlg.obj
 0001:00027460       ??$_Insertion_sort_unchecked@PEADU?$less@X@std@@@std@@YAXPEAD0AEAU?$less@X@0@@Z 0000000180028460 f i GRBLdlg.obj
 0001:00027510       ??$assign_to@U?$token_finderF@U?$is_any_ofF@D@detail@algorithm@boost@@@detail@algorithm@boost@@@?$basic_vtable2@V?$iterator_range@PEBD@boost@@PEBDPEBD@function@detail@boost@@QEBA_NU?$token_finderF@U?$is_any_ofF@D@detail@algorithm@boost@@@2algorithm@3@AEATfunction_buffer@123@@Z 0000000180028510 f i GRBLdlg.obj
 0001:00027510       ??$assign_to@U?$token_finderF@U?$is_any_ofF@D@detail@algorithm@boost@@@detail@algorithm@boost@@@?$basic_vtable2@V?$iterator_range@V?$_String_iterator@V?$_String_val@U?$_Simple_types@D@std@@@std@@@std@@@boost@@V?$_String_iterator@V?$_String_val@U?$_Simple_types@D@std@@@std@@@std@@V34@@function@detail@boost@@QEBA_NU?$token_finderF@U?$is_any_ofF@D@detail@algorithm@boost@@@2algorithm@3@AEATfunction_buffer@123@@Z 0000000180028510 f i GRBLdlg.obj
 0001:000275d0       ??$optimize_regex@V?$_String_const_iterator@V?$_String_val@U?$_Simple_types@D@std@@@std@@@std@@U?$cpp_regex_traits@D@xpressive@boost@@@detail@xpressive@boost@@YA?AV?$intrusive_ptr@U?$finder@V?$_String_const_iterator@V?$_String_val@U?$_Simple_types@D@std@@@std@@@std@@@detail@xpressive@boost@@@2@AEBU?$xpression_peeker@D@012@AEBU?$cpp_regex_traits@D@12@U?$bool_@$00@mpl@2@@Z 00000001800285d0 f i GRBLdlg.obj
 0001:00027690       ??$toi@PEBDU?$traits@D@detail@xpressive@boost@@@detail@xpressive@boost@@YAHAEAPEBDPEBDAEBU?$traits@D@012@HH@Z 0000000180028690 f i GRBLdlg.obj
 0001:00027710       ??$parse_quant@V?$_String_const_iterator@V?$_String_val@U?$_Simple_types@D@std@@@std@@@std@@@?$regex_compiler@V?$_String_const_iterator@V?$_String_val@U?$_Simple_types@D@std@@@std@@@std@@U?$regex_traits@DU?$cpp_regex_traits@D@xpressive@boost@@@xpressive@boost@@U?$compiler_traits@U?$regex_traits@DU?$cpp_regex_traits@D@xpressive@boost@@@xpressive@boost@@@45@@xpressive@boost@@AEAA?AU?$sequence@V?$_String_const_iterator@V?$_String_val@U?$_Simple_types@D@std@@@std@@@std@@@detail@12@AEAV?$_String_const_iterator@V?$_String_val@U?$_Simple_types@D@std@@@std@@@std@@V56@@Z 0000000180028710 f i GRBLdlg.obj
 0001:00027810       ??$make_dynamic@V?$_String_const_iterator@V?$_String_val@U?$_Simple_types@D@std@@@std@@@std@@U?$simple_repeat_matcher@U?$shared_matchable@V?$_String_const_iterator@V?$_String_val@U?$_Simple_types@D@std@@@std@@@std@@@detail@xpressive@boost@@U?$bool_@$00@mpl@4@@detail@xpressive@boost@@@detail@xpressive@boost@@YA?AU?$sequence@V?$_String_const_iterator@V?$_String_val@U?$_Simple_types@D@std@@@std@@@std@@@012@AEBU?$simple_repeat_matcher@U?$shared_matchable@V?$_String_const_iterator@V?$_String_val@U?$_Simple_types@D@std@@@std@@@std@@@detail@xpressive@boost@@U?$bool_@$00@mpl@4@@012@@Z 0000000180028810 f i GRBLdlg.obj
 0001:00027990       ??$make_dynamic@V?$_String_const_iterator@V?$_String_val@U?$_Simple_types@D@std@@@std@@@std@@U?$simple_repeat_matcher@U?$shared_matchable@V?$_String_const_iterator@V?$_String_val@U?$_Simple_types@D@std@@@std@@@std@@@detail@xpressive@boost@@U?$bool_@$0A@@mpl@4@@detail@xpressive@boost@@@detail@xpressive@boost@@YA?AU?$sequence@V?$_String_const_iterator@V?$_String_val@U?$_Simple_types@D@std@@@std@@@std@@@012@AEBU?$simple_repeat_matcher@U?$shared_matchable@V?$_String_const_iterator@V?$_String_val@U?$_Simple_types@D@std@@@std@@@std@@@detail@xpressive@boost@@U?$bool_@$0A@@mpl@4@@012@@Z 0000000180028990 f i GRBLdlg.obj
 0001:00027b10       ??$make_dynamic@V?$_String_const_iterator@V?$_String_val@U?$_Simple_types@D@std@@@std@@@std@@Urepeat_begin_matcher@detail@xpressive@boost@@@detail@xpressive@boost@@YA?AU?$sequence@V?$_String_const_iterator@V?$_String_val@U?$_Simple_types@D@std@@@std@@@std@@@012@AEBUrepeat_begin_matcher@012@@Z 0000000180028b10 f i GRBLdlg.obj
 0001:00027c50       ??$make_dynamic@V?$_String_const_iterator@V?$_String_val@U?$_Simple_types@D@std@@@std@@@std@@U?$repeat_end_matcher@U?$bool_@$00@mpl@boost@@@detail@xpressive@boost@@@detail@xpressive@boost@@YA?AU?$sequence@V?$_String_const_iterator@V?$_String_val@U?$_Simple_types@D@std@@@std@@@std@@@012@AEBU?$repeat_end_matcher@U?$bool_@$00@mpl@boost@@@012@@Z 0000000180028c50 f i GRBLdlg.obj
 0001:00027d90       ??$make_dynamic@V?$_String_const_iterator@V?$_String_val@U?$_Simple_types@D@std@@@std@@@std@@U?$repeat_end_matcher@U?$bool_@$0A@@mpl@boost@@@detail@xpressive@boost@@@detail@xpressive@boost@@YA?AU?$sequence@V?$_String_const_iterator@V?$_String_val@U?$_Simple_types@D@std@@@std@@@std@@@012@AEBU?$repeat_end_matcher@U?$bool_@$0A@@mpl@boost@@@012@@Z 0000000180028d90 f i GRBLdlg.obj
 0001:00027ed0       ??$make_optional@V?$_String_const_iterator@V?$_String_val@U?$_Simple_types@D@std@@@std@@@std@@@detail@xpressive@boost@@YAXAEBUquant_spec@012@AEAU?$sequence@V?$_String_const_iterator@V?$_String_val@U?$_Simple_types@D@std@@@std@@@std@@@012@H@Z 0000000180028ed0 f i GRBLdlg.obj
 0001:00028150       ??$make_dynamic@V?$_String_const_iterator@V?$_String_val@U?$_Simple_types@D@std@@@std@@@std@@Ualternate_end_matcher@detail@xpressive@boost@@@detail@xpressive@boost@@YA?AU?$sequence@V?$_String_const_iterator@V?$_String_val@U?$_Simple_types@D@std@@@std@@@std@@@012@AEBUalternate_end_matcher@012@@Z 0000000180029150 f i GRBLdlg.obj
 0001:00028280       ??$make_dynamic@V?$_String_const_iterator@V?$_String_val@U?$_Simple_types@D@std@@@std@@@std@@U?$optional_matcher@U?$shared_matchable@V?$_String_const_iterator@V?$_String_val@U?$_Simple_types@D@std@@@std@@@std@@@detail@xpressive@boost@@U?$bool_@$00@mpl@4@@detail@xpressive@boost@@@detail@xpressive@boost@@YA?AU?$sequence@V?$_String_const_iterator@V?$_String_val@U?$_Simple_types@D@std@@@std@@@std@@@012@AEBU?$optional_matcher@U?$shared_matchable@V?$_String_const_iterator@V?$_String_val@U?$_Simple_types@D@std@@@std@@@std@@@detail@xpressive@boost@@U?$bool_@$00@mpl@4@@012@@Z 0000000180029280 f i GRBLdlg.obj
 0001:000283d0       ??$make_dynamic@V?$_String_const_iterator@V?$_String_val@U?$_Simple_types@D@std@@@std@@@std@@U?$optional_matcher@U?$shared_matchable@V?$_String_const_iterator@V?$_String_val@U?$_Simple_types@D@std@@@std@@@std@@@detail@xpressive@boost@@U?$bool_@$0A@@mpl@4@@detail@xpressive@boost@@@detail@xpressive@boost@@YA?AU?$sequence@V?$_String_const_iterator@V?$_String_val@U?$_Simple_types@D@std@@@std@@@std@@@012@AEBU?$optional_matcher@U?$shared_matchable@V?$_String_const_iterator@V?$_String_val@U?$_Simple_types@D@std@@@std@@@std@@@detail@xpressive@boost@@U?$bool_@$0A@@mpl@4@@012@@Z 00000001800293d0 f i GRBLdlg.obj
 0001:00028520       ??$pop_context_match@V?$_String_const_iterator@V?$_String_val@U?$_Simple_types@D@std@@@std@@@std@@@detail@xpressive@boost@@YA_NAEAU?$match_state@V?$_String_const_iterator@V?$_String_val@U?$_Simple_types@D@std@@@std@@@std@@@012@@Z 0000000180029520 f i GRBLdlg.obj
 0001:000285c0       ??$accept@U?$alternates_vector@V?$_String_const_iterator@V?$_String_val@U?$_Simple_types@D@std@@@std@@@std@@@detail@xpressive@boost@@U?$regex_traits@DU?$cpp_regex_traits@D@xpressive@boost@@@34@@?$xpression_linker@D@detail@xpressive@boost@@QEAAXAEBU?$alternate_matcher@U?$alternates_vector@V?$_String_const_iterator@V?$_String_val@U?$_Simple_types@D@std@@@std@@@std@@@detail@xpressive@boost@@U?$regex_traits@DU?$cpp_regex_traits@D@xpressive@boost@@@34@@123@PEBX@Z 00000001800295c0 f i GRBLdlg.obj
 0001:00028690       ??$match@V?$_String_const_iterator@V?$_String_val@U?$_Simple_types@D@std@@@std@@@std@@U?$matchable_ex@V?$_String_const_iterator@V?$_String_val@U?$_Simple_types@D@std@@@std@@@std@@@detail@xpressive@boost@@@?$alternate_matcher@U?$alternates_vector@V?$_String_const_iterator@V?$_String_val@U?$_Simple_types@D@std@@@std@@@std@@@detail@xpressive@boost@@U?$regex_traits@DU?$cpp_regex_traits@D@xpressive@boost@@@34@@detail@xpressive@boost@@QEBA_NAEAU?$match_state@V?$_String_const_iterator@V?$_String_val@U?$_Simple_types@D@std@@@std@@@std@@@123@AEBU?$matchable_ex@V?$_String_const_iterator@V?$_String_val@U?$_Simple_types@D@std@@@std@@@std@@@123@@Z 0000000180029690 f i GRBLdlg.obj
 0001:00028740       ??$copy_range@V?$basic_string@DU?$char_traits@D@std@@V?$allocator@D@2@@std@@V?$iterator_range@V?$_String_iterator@V?$_String_val@U?$_Simple_types@D@std@@@std@@@std@@@boost@@@boost@@YA?AV?$basic_string@DU?$char_traits@D@std@@V?$allocator@D@2@@std@@AEBV?$iterator_range@V?$_String_iterator@V?$_String_val@U?$_Simple_types@D@std@@@std@@@std@@@0@@Z 0000000180029740 f i GRBLdlg.obj
 0001:00028740       ??$copy_range@V?$basic_string@DU?$char_traits@D@std@@V?$allocator@D@2@@std@@V?$iterator_range@PEBD@boost@@@boost@@YA?AV?$basic_string@DU?$char_traits@D@std@@V?$allocator@D@2@@std@@AEBV?$iterator_range@PEBD@0@@Z 0000000180029740 f i GRBLdlg.obj
 0001:00028780       ?link@?$dynamic_xpression@U?$optional_matcher@U?$shared_matchable@V?$_String_const_iterator@V?$_String_val@U?$_Simple_types@D@std@@@std@@@std@@@detail@xpressive@boost@@U?$bool_@$0A@@mpl@4@@detail@xpressive@boost@@V?$_String_const_iterator@V?$_String_val@U?$_Simple_types@D@std@@@std@@@std@@@detail@xpressive@boost@@UEBAXAEAU?$xpression_linker@D@234@@Z 0000000180029780 f i GRBLdlg.obj
 0001:00028780       ?link@?$dynamic_xpression@U?$optional_matcher@U?$shared_matchable@V?$_String_const_iterator@V?$_String_val@U?$_Simple_types@D@std@@@std@@@std@@@detail@xpressive@boost@@U?$bool_@$00@mpl@4@@detail@xpressive@boost@@V?$_String_const_iterator@V?$_String_val@U?$_Simple_types@D@std@@@std@@@std@@@detail@xpressive@boost@@UEBAXAEAU?$xpression_linker@D@234@@Z 0000000180029780 f i GRBLdlg.obj
 0001:000287e0       ?match@?$dynamic_xpression@U?$optional_matcher@U?$shared_matchable@V?$_String_const_iterator@V?$_String_val@U?$_Simple_types@D@std@@@std@@@std@@@detail@xpressive@boost@@U?$bool_@$0A@@mpl@4@@detail@xpressive@boost@@V?$_String_const_iterator@V?$_String_val@U?$_Simple_types@D@std@@@std@@@std@@@detail@xpressive@boost@@UEBA_NAEAU?$match_state@V?$_String_const_iterator@V?$_String_val@U?$_Simple_types@D@std@@@std@@@std@@@234@@Z 00000001800297e0 f i GRBLdlg.obj
 0001:00028830       ?match@?$dynamic_xpression@U?$optional_matcher@U?$shared_matchable@V?$_String_const_iterator@V?$_String_val@U?$_Simple_types@D@std@@@std@@@std@@@detail@xpressive@boost@@U?$bool_@$00@mpl@4@@detail@xpressive@boost@@V?$_String_const_iterator@V?$_String_val@U?$_Simple_types@D@std@@@std@@@std@@@detail@xpressive@boost@@UEBA_NAEAU?$match_state@V?$_String_const_iterator@V?$_String_val@U?$_Simple_types@D@std@@@std@@@std@@@234@@Z 0000000180029830 f i GRBLdlg.obj
 0001:00028880       ?repeat@?$dynamic_xpression@U?$repeat_end_matcher@U?$bool_@$0A@@mpl@boost@@@detail@xpressive@boost@@V?$_String_const_iterator@V?$_String_val@U?$_Simple_types@D@std@@@std@@@std@@@detail@xpressive@boost@@UEBAXAEBUquant_spec@234@AEAU?$sequence@V?$_String_const_iterator@V?$_String_val@U?$_Simple_types@D@std@@@std@@@std@@@234@@Z 0000000180029880 f i GRBLdlg.obj
 0001:00028890       ?link@?$dynamic_xpression@U?$repeat_end_matcher@U?$bool_@$0A@@mpl@boost@@@detail@xpressive@boost@@V?$_String_const_iterator@V?$_String_val@U?$_Simple_types@D@std@@@std@@@std@@@detail@xpressive@boost@@UEBAXAEAU?$xpression_linker@D@234@@Z 0000000180029890 f i GRBLdlg.obj
 0001:00028890       ?link@?$dynamic_xpression@U?$repeat_end_matcher@U?$bool_@$00@mpl@boost@@@detail@xpressive@boost@@V?$_String_const_iterator@V?$_String_val@U?$_Simple_types@D@std@@@std@@@std@@@detail@xpressive@boost@@UEBAXAEAU?$xpression_linker@D@234@@Z 0000000180029890 f i GRBLdlg.obj
 0001:00028920       ?match@?$dynamic_xpression@U?$repeat_end_matcher@U?$bool_@$0A@@mpl@boost@@@detail@xpressive@boost@@V?$_String_const_iterator@V?$_String_val@U?$_Simple_types@D@std@@@std@@@std@@@detail@xpressive@boost@@UEBA_NAEAU?$match_state@V?$_String_const_iterator@V?$_String_val@U?$_Simple_types@D@std@@@std@@@std@@@234@@Z 0000000180029920 f i GRBLdlg.obj
 0001:00028930       ?repeat@?$dynamic_xpression@U?$repeat_end_matcher@U?$bool_@$00@mpl@boost@@@detail@xpressive@boost@@V?$_String_const_iterator@V?$_String_val@U?$_Simple_types@D@std@@@std@@@std@@@detail@xpressive@boost@@UEBAXAEBUquant_spec@234@AEAU?$sequence@V?$_String_const_iterator@V?$_String_val@U?$_Simple_types@D@std@@@std@@@std@@@234@@Z 0000000180029930 f i GRBLdlg.obj
 0001:00028940       ?match@?$dynamic_xpression@U?$repeat_end_matcher@U?$bool_@$00@mpl@boost@@@detail@xpressive@boost@@V?$_String_const_iterator@V?$_String_val@U?$_Simple_types@D@std@@@std@@@std@@@detail@xpressive@boost@@UEBA_NAEAU?$match_state@V?$_String_const_iterator@V?$_String_val@U?$_Simple_types@D@std@@@std@@@std@@@234@@Z 0000000180029940 f i GRBLdlg.obj
 0001:00028950       ?peek@?$dynamic_xpression@Urepeat_begin_matcher@detail@xpressive@boost@@V?$_String_const_iterator@V?$_String_val@U?$_Simple_types@D@std@@@std@@@std@@@detail@xpressive@boost@@UEBAXAEAU?$xpression_peeker@D@234@@Z 0000000180029950 f i GRBLdlg.obj
 0001:00028960       ?link@?$dynamic_xpression@Urepeat_begin_matcher@detail@xpressive@boost@@V?$_String_const_iterator@V?$_String_val@U?$_Simple_types@D@std@@@std@@@std@@@detail@xpressive@boost@@UEBAXAEAU?$xpression_linker@D@234@@Z 0000000180029960 f i GRBLdlg.obj
 0001:000289a0       ?match@?$dynamic_xpression@Urepeat_begin_matcher@detail@xpressive@boost@@V?$_String_const_iterator@V?$_String_val@U?$_Simple_types@D@std@@@std@@@std@@@detail@xpressive@boost@@UEBA_NAEAU?$match_state@V?$_String_const_iterator@V?$_String_val@U?$_Simple_types@D@std@@@std@@@std@@@234@@Z 00000001800299a0 f i GRBLdlg.obj
 0001:00028a10       ?peek@?$dynamic_xpression@U?$simple_repeat_matcher@U?$shared_matchable@V?$_String_const_iterator@V?$_String_val@U?$_Simple_types@D@std@@@std@@@std@@@detail@xpressive@boost@@U?$bool_@$0A@@mpl@4@@detail@xpressive@boost@@V?$_String_const_iterator@V?$_String_val@U?$_Simple_types@D@std@@@std@@@std@@@detail@xpressive@boost@@UEBAXAEAU?$xpression_peeker@D@234@@Z 0000000180029a10 f i GRBLdlg.obj
 0001:00028a60       ?link@?$dynamic_xpression@U?$simple_repeat_matcher@U?$shared_matchable@V?$_String_const_iterator@V?$_String_val@U?$_Simple_types@D@std@@@std@@@std@@@detail@xpressive@boost@@U?$bool_@$00@mpl@4@@detail@xpressive@boost@@V?$_String_const_iterator@V?$_String_val@U?$_Simple_types@D@std@@@std@@@std@@@detail@xpressive@boost@@UEBAXAEAU?$xpression_linker@D@234@@Z 0000000180029a60 f i GRBLdlg.obj
 0001:00028a60       ?link@?$dynamic_xpression@U?$simple_repeat_matcher@U?$shared_matchable@V?$_String_const_iterator@V?$_String_val@U?$_Simple_types@D@std@@@std@@@std@@@detail@xpressive@boost@@U?$bool_@$0A@@mpl@4@@detail@xpressive@boost@@V?$_String_const_iterator@V?$_String_val@U?$_Simple_types@D@std@@@std@@@std@@@detail@xpressive@boost@@UEBAXAEAU?$xpression_linker@D@234@@Z 0000000180029a60 f i GRBLdlg.obj
 0001:00028aa0       ?match@?$dynamic_xpression@U?$simple_repeat_matcher@U?$shared_matchable@V?$_String_const_iterator@V?$_String_val@U?$_Simple_types@D@std@@@std@@@std@@@detail@xpressive@boost@@U?$bool_@$0A@@mpl@4@@detail@xpressive@boost@@V?$_String_const_iterator@V?$_String_val@U?$_Simple_types@D@std@@@std@@@std@@@detail@xpressive@boost@@UEBA_NAEAU?$match_state@V?$_String_const_iterator@V?$_String_val@U?$_Simple_types@D@std@@@std@@@std@@@234@@Z 0000000180029aa0 f i GRBLdlg.obj
 0001:00028ab0       ?peek@?$dynamic_xpression@U?$simple_repeat_matcher@U?$shared_matchable@V?$_String_const_iterator@V?$_String_val@U?$_Simple_types@D@std@@@std@@@std@@@detail@xpressive@boost@@U?$bool_@$00@mpl@4@@detail@xpressive@boost@@V?$_String_const_iterator@V?$_String_val@U?$_Simple_types@D@std@@@std@@@std@@@detail@xpressive@boost@@UEBAXAEAU?$xpression_peeker@D@234@@Z 0000000180029ab0 f i GRBLdlg.obj
 0001:00028b10       ?match@?$dynamic_xpression@U?$simple_repeat_matcher@U?$shared_matchable@V?$_String_const_iterator@V?$_String_val@U?$_Simple_types@D@std@@@std@@@std@@@detail@xpressive@boost@@U?$bool_@$00@mpl@4@@detail@xpressive@boost@@V?$_String_const_iterator@V?$_String_val@U?$_Simple_types@D@std@@@std@@@std@@@detail@xpressive@boost@@UEBA_NAEAU?$match_state@V?$_String_const_iterator@V?$_String_val@U?$_Simple_types@D@std@@@std@@@std@@@234@@Z 0000000180029b10 f i GRBLdlg.obj
 0001:00028b20       ??R?$hash_peek_finder@V?$_String_const_iterator@V?$_String_val@U?$_Simple_types@D@std@@@std@@@std@@U?$cpp_regex_traits@D@xpressive@boost@@@detail@xpressive@boost@@UEBA_NAEAU?$match_state@V?$_String_const_iterator@V?$_String_val@U?$_Simple_types@D@std@@@std@@@std@@@123@@Z 0000000180029b20 f i GRBLdlg.obj
 0001:00028b20       ??R?$hash_peek_finder@V?$_String_const_iterator@V?$_String_val@U?$_Simple_types@D@std@@@std@@@std@@U?$regex_traits@DU?$cpp_regex_traits@D@xpressive@boost@@@xpressive@boost@@@detail@xpressive@boost@@UEBA_NAEAU?$match_state@V?$_String_const_iterator@V?$_String_val@U?$_Simple_types@D@std@@@std@@@std@@@123@@Z 0000000180029b20 f i GRBLdlg.obj
 0001:00028bf0       ??R?$leading_simple_repeat_finder@V?$_String_const_iterator@V?$_String_val@U?$_Simple_types@D@std@@@std@@@std@@@detail@xpressive@boost@@UEBA_NAEAU?$match_state@V?$_String_const_iterator@V?$_String_val@U?$_Simple_types@D@std@@@std@@@std@@@123@@Z 0000000180029bf0 f i GRBLdlg.obj
 0001:00028c00       ??R?$line_start_finder@V?$_String_const_iterator@V?$_String_val@U?$_Simple_types@D@std@@@std@@@std@@U?$cpp_regex_traits@D@xpressive@boost@@$00@detail@xpressive@boost@@UEBA_NAEAU?$match_state@V?$_String_const_iterator@V?$_String_val@U?$_Simple_types@D@std@@@std@@@std@@@123@@Z 0000000180029c00 f i GRBLdlg.obj
 0001:00028c00       ??R?$line_start_finder@V?$_String_const_iterator@V?$_String_val@U?$_Simple_types@D@std@@@std@@@std@@U?$regex_traits@DU?$cpp_regex_traits@D@xpressive@boost@@@xpressive@boost@@$00@detail@xpressive@boost@@UEBA_NAEAU?$match_state@V?$_String_const_iterator@V?$_String_val@U?$_Simple_types@D@std@@@std@@@std@@@123@@Z 0000000180029c00 f i GRBLdlg.obj
 0001:00028c50       ??0?$line_start_finder@V?$_String_const_iterator@V?$_String_val@U?$_Simple_types@D@std@@@std@@@std@@U?$regex_traits@DU?$cpp_regex_traits@D@xpressive@boost@@@xpressive@boost@@$00@detail@xpressive@boost@@QEAA@AEBU?$regex_traits@DU?$cpp_regex_traits@D@xpressive@boost@@@23@@Z 0000000180029c50 f i GRBLdlg.obj
 0001:00028cd0       ??_G?$dynamic_xpression@U?$optional_matcher@U?$shared_matchable@V?$_String_const_iterator@V?$_String_val@U?$_Simple_types@D@std@@@std@@@std@@@detail@xpressive@boost@@U?$bool_@$0A@@mpl@4@@detail@xpressive@boost@@V?$_String_const_iterator@V?$_String_val@U?$_Simple_types@D@std@@@std@@@std@@@detail@xpressive@boost@@UEAAPEAXI@Z 0000000180029cd0 f i GRBLdlg.obj
 0001:00028cd0       ??_E?$dynamic_xpression@U?$optional_matcher@U?$shared_matchable@V?$_String_const_iterator@V?$_String_val@U?$_Simple_types@D@std@@@std@@@std@@@detail@xpressive@boost@@U?$bool_@$00@mpl@4@@detail@xpressive@boost@@V?$_String_const_iterator@V?$_String_val@U?$_Simple_types@D@std@@@std@@@std@@@detail@xpressive@boost@@UEAAPEAXI@Z 0000000180029cd0 f i * CIL library *:* CIL module *
 0001:00028cd0       ??_G?$dynamic_xpression@U?$optional_matcher@U?$shared_matchable@V?$_String_const_iterator@V?$_String_val@U?$_Simple_types@D@std@@@std@@@std@@@detail@xpressive@boost@@U?$bool_@$00@mpl@4@@detail@xpressive@boost@@V?$_String_const_iterator@V?$_String_val@U?$_Simple_types@D@std@@@std@@@std@@@detail@xpressive@boost@@UEAAPEAXI@Z 0000000180029cd0 f i GRBLdlg.obj
 0001:00028cd0       ??_E?$dynamic_xpression@U?$optional_matcher@U?$shared_matchable@V?$_String_const_iterator@V?$_String_val@U?$_Simple_types@D@std@@@std@@@std@@@detail@xpressive@boost@@U?$bool_@$0A@@mpl@4@@detail@xpressive@boost@@V?$_String_const_iterator@V?$_String_val@U?$_Simple_types@D@std@@@std@@@std@@@detail@xpressive@boost@@UEAAPEAXI@Z 0000000180029cd0 f i * CIL library *:* CIL module *
 0001:00028d10       ??1?$dynamic_xpression@U?$optional_matcher@U?$shared_matchable@V?$_String_const_iterator@V?$_String_val@U?$_Simple_types@D@std@@@std@@@std@@@detail@xpressive@boost@@U?$bool_@$0A@@mpl@4@@detail@xpressive@boost@@V?$_String_const_iterator@V?$_String_val@U?$_Simple_types@D@std@@@std@@@std@@@detail@xpressive@boost@@UEAA@XZ 0000000180029d10 f i GRBLdlg.obj
 0001:00028d10       ??1?$dynamic_xpression@U?$optional_matcher@U?$shared_matchable@V?$_String_const_iterator@V?$_String_val@U?$_Simple_types@D@std@@@std@@@std@@@detail@xpressive@boost@@U?$bool_@$00@mpl@4@@detail@xpressive@boost@@V?$_String_const_iterator@V?$_String_val@U?$_Simple_types@D@std@@@std@@@std@@@detail@xpressive@boost@@UEAA@XZ 0000000180029d10 f i GRBLdlg.obj
 0001:00028db0       ??_E?$dynamic_xpression@U?$repeat_end_matcher@U?$bool_@$0A@@mpl@boost@@@detail@xpressive@boost@@V?$_String_const_iterator@V?$_String_val@U?$_Simple_types@D@std@@@std@@@std@@@detail@xpressive@boost@@UEAAPEAXI@Z 0000000180029db0 f i * CIL library *:* CIL module *
 0001:00028db0       ??_G?$dynamic_xpression@U?$repeat_end_matcher@U?$bool_@$0A@@mpl@boost@@@detail@xpressive@boost@@V?$_String_const_iterator@V?$_String_val@U?$_Simple_types@D@std@@@std@@@std@@@detail@xpressive@boost@@UEAAPEAXI@Z 0000000180029db0 f i GRBLdlg.obj
 0001:00028db0       ??_E?$dynamic_xpression@U?$repeat_end_matcher@U?$bool_@$00@mpl@boost@@@detail@xpressive@boost@@V?$_String_const_iterator@V?$_String_val@U?$_Simple_types@D@std@@@std@@@std@@@detail@xpressive@boost@@UEAAPEAXI@Z 0000000180029db0 f i * CIL library *:* CIL module *
 0001:00028db0       ??_G?$dynamic_xpression@U?$repeat_end_matcher@U?$bool_@$00@mpl@boost@@@detail@xpressive@boost@@V?$_String_const_iterator@V?$_String_val@U?$_Simple_types@D@std@@@std@@@std@@@detail@xpressive@boost@@UEAAPEAXI@Z 0000000180029db0 f i GRBLdlg.obj
 0001:00028e30       ??_G?$dynamic_xpression@U?$simple_repeat_matcher@U?$shared_matchable@V?$_String_const_iterator@V?$_String_val@U?$_Simple_types@D@std@@@std@@@std@@@detail@xpressive@boost@@U?$bool_@$0A@@mpl@4@@detail@xpressive@boost@@V?$_String_const_iterator@V?$_String_val@U?$_Simple_types@D@std@@@std@@@std@@@detail@xpressive@boost@@UEAAPEAXI@Z 0000000180029e30 f i GRBLdlg.obj
 0001:00028e30       ??_G?$dynamic_xpression@U?$simple_repeat_matcher@U?$shared_matchable@V?$_String_const_iterator@V?$_String_val@U?$_Simple_types@D@std@@@std@@@std@@@detail@xpressive@boost@@U?$bool_@$00@mpl@4@@detail@xpressive@boost@@V?$_String_const_iterator@V?$_String_val@U?$_Simple_types@D@std@@@std@@@std@@@detail@xpressive@boost@@UEAAPEAXI@Z 0000000180029e30 f i GRBLdlg.obj
 0001:00028e30       ??_E?$dynamic_xpression@U?$simple_repeat_matcher@U?$shared_matchable@V?$_String_const_iterator@V?$_String_val@U?$_Simple_types@D@std@@@std@@@std@@@detail@xpressive@boost@@U?$bool_@$00@mpl@4@@detail@xpressive@boost@@V?$_String_const_iterator@V?$_String_val@U?$_Simple_types@D@std@@@std@@@std@@@detail@xpressive@boost@@UEAAPEAXI@Z 0000000180029e30 f i * CIL library *:* CIL module *
 0001:00028e30       ??_E?$dynamic_xpression@U?$simple_repeat_matcher@U?$shared_matchable@V?$_String_const_iterator@V?$_String_val@U?$_Simple_types@D@std@@@std@@@std@@@detail@xpressive@boost@@U?$bool_@$0A@@mpl@4@@detail@xpressive@boost@@V?$_String_const_iterator@V?$_String_val@U?$_Simple_types@D@std@@@std@@@std@@@detail@xpressive@boost@@UEAAPEAXI@Z 0000000180029e30 f i * CIL library *:* CIL module *
 0001:00028e70       ??1?$dynamic_xpression@U?$simple_repeat_matcher@U?$shared_matchable@V?$_String_const_iterator@V?$_String_val@U?$_Simple_types@D@std@@@std@@@std@@@detail@xpressive@boost@@U?$bool_@$00@mpl@4@@detail@xpressive@boost@@V?$_String_const_iterator@V?$_String_val@U?$_Simple_types@D@std@@@std@@@std@@@detail@xpressive@boost@@UEAA@XZ 0000000180029e70 f i GRBLdlg.obj
 0001:00028e70       ??1?$dynamic_xpression@U?$simple_repeat_matcher@U?$shared_matchable@V?$_String_const_iterator@V?$_String_val@U?$_Simple_types@D@std@@@std@@@std@@@detail@xpressive@boost@@U?$bool_@$0A@@mpl@4@@detail@xpressive@boost@@V?$_String_const_iterator@V?$_String_val@U?$_Simple_types@D@std@@@std@@@std@@@detail@xpressive@boost@@UEAA@XZ 0000000180029e70 f i GRBLdlg.obj
 0001:00028f10       ??_E?$hash_peek_finder@V?$_String_const_iterator@V?$_String_val@U?$_Simple_types@D@std@@@std@@@std@@U?$regex_traits@DU?$cpp_regex_traits@D@xpressive@boost@@@xpressive@boost@@@detail@xpressive@boost@@UEAAPEAXI@Z 0000000180029f10 f i * CIL library *:* CIL module *
 0001:00028f10       ??_G?$hash_peek_finder@V?$_String_const_iterator@V?$_String_val@U?$_Simple_types@D@std@@@std@@@std@@U?$cpp_regex_traits@D@xpressive@boost@@@detail@xpressive@boost@@UEAAPEAXI@Z 0000000180029f10 f i GRBLdlg.obj
 0001:00028f10       ??_E?$hash_peek_finder@V?$_String_const_iterator@V?$_String_val@U?$_Simple_types@D@std@@@std@@@std@@U?$cpp_regex_traits@D@xpressive@boost@@@detail@xpressive@boost@@UEAAPEAXI@Z 0000000180029f10 f i * CIL library *:* CIL module *
 0001:00028f10       ??_G?$hash_peek_finder@V?$_String_const_iterator@V?$_String_val@U?$_Simple_types@D@std@@@std@@@std@@U?$regex_traits@DU?$cpp_regex_traits@D@xpressive@boost@@@xpressive@boost@@@detail@xpressive@boost@@UEAAPEAXI@Z 0000000180029f10 f i GRBLdlg.obj
 0001:00028f40       ??_E?$line_start_finder@V?$_String_const_iterator@V?$_String_val@U?$_Simple_types@D@std@@@std@@@std@@U?$regex_traits@DU?$cpp_regex_traits@D@xpressive@boost@@@xpressive@boost@@$00@detail@xpressive@boost@@UEAAPEAXI@Z 0000000180029f40 f i * CIL library *:* CIL module *
 0001:00028f40       ??_G?$line_start_finder@V?$_String_const_iterator@V?$_String_val@U?$_Simple_types@D@std@@@std@@@std@@U?$cpp_regex_traits@D@xpressive@boost@@$00@detail@xpressive@boost@@UEAAPEAXI@Z 0000000180029f40 f i GRBLdlg.obj
 0001:00028f40       ??_G?$line_start_finder@V?$_String_const_iterator@V?$_String_val@U?$_Simple_types@D@std@@@std@@@std@@U?$regex_traits@DU?$cpp_regex_traits@D@xpressive@boost@@@xpressive@boost@@$00@detail@xpressive@boost@@UEAAPEAXI@Z 0000000180029f40 f i GRBLdlg.obj
 0001:00028f40       ??_E?$line_start_finder@V?$_String_const_iterator@V?$_String_val@U?$_Simple_types@D@std@@@std@@@std@@U?$cpp_regex_traits@D@xpressive@boost@@$00@detail@xpressive@boost@@UEAAPEAXI@Z 0000000180029f40 f i * CIL library *:* CIL module *
 0001:00028f70       ?repeat_@?$dynamic_xpression@U?$repeat_end_matcher@U?$bool_@$0A@@mpl@boost@@@detail@xpressive@boost@@V?$_String_const_iterator@V?$_String_val@U?$_Simple_types@D@std@@@std@@@std@@@detail@xpressive@boost@@AEBAXAEBUquant_spec@234@AEAU?$sequence@V?$_String_const_iterator@V?$_String_val@U?$_Simple_types@D@std@@@std@@@std@@@234@U?$int_@$0A@@mpl@4@U?$bool_@$0A@@84@@Z 0000000180029f70 f i GRBLdlg.obj
 0001:000290b0       ?repeat_@?$dynamic_xpression@U?$repeat_end_matcher@U?$bool_@$00@mpl@boost@@@detail@xpressive@boost@@V?$_String_const_iterator@V?$_String_val@U?$_Simple_types@D@std@@@std@@@std@@@detail@xpressive@boost@@AEBAXAEBUquant_spec@234@AEAU?$sequence@V?$_String_const_iterator@V?$_String_val@U?$_Simple_types@D@std@@@std@@@std@@@234@U?$int_@$0A@@mpl@4@U?$bool_@$0A@@84@@Z 000000018002a0b0 f i GRBLdlg.obj
 0001:000291f0       ??0?$boyer_moore@V?$_String_const_iterator@V?$_String_val@U?$_Simple_types@D@std@@@std@@@std@@U?$cpp_regex_traits@D@xpressive@boost@@@detail@xpressive@boost@@QEAA@PEBD0AEBU?$cpp_regex_traits@D@23@_N@Z 000000018002a1f0 f i GRBLdlg.obj
 0001:000292e0       ?test_icase_@?$hash_peek_bitset@D@detail@xpressive@boost@@AEAA_N_N@Z 000000018002a2e0 f i GRBLdlg.obj
 0001:00029390       ?find_nocase_fold_@?$boyer_moore@V?$_String_const_iterator@V?$_String_val@U?$_Simple_types@D@std@@@std@@@std@@U?$cpp_regex_traits@D@xpressive@boost@@@detail@xpressive@boost@@AEBA?AV?$_String_const_iterator@V?$_String_val@U?$_Simple_types@D@std@@@std@@@std@@V56@0AEBU?$cpp_regex_traits@D@34@@Z 000000018002a390 f i GRBLdlg.obj
 0001:000294a0       ?init_@?$boyer_moore@V?$_String_const_iterator@V?$_String_val@U?$_Simple_types@D@std@@@std@@@std@@U?$cpp_regex_traits@D@xpressive@boost@@@detail@xpressive@boost@@AEAAXAEBU?$cpp_regex_traits@D@34@U?$bool_@$00@mpl@4@@Z 000000018002a4a0 f i GRBLdlg.obj
 0001:00029740       ?push_back@?$deque@PEBXV?$allocator@PEBX@std@@@std@@QEAAXAEBQEBX@Z 000000018002a740 f i GRBLdlg.obj
 0001:00029810       ?fold_case@?$cpp_regex_traits@D@xpressive@boost@@QEBA?AV?$basic_string@DU?$char_traits@D@std@@V?$allocator@D@2@@std@@D@Z 000000018002a810 f i GRBLdlg.obj
 0001:000298d0       ?_Growmap@?$deque@PEBXV?$allocator@PEBX@std@@@std@@IEAAX_K@Z 000000018002a8d0 f i GRBLdlg.obj
 0001:00029b30       ??$optimize_regex@V?$_String_const_iterator@V?$_String_val@U?$_Simple_types@D@std@@@std@@@std@@U?$cpp_regex_traits@D@xpressive@boost@@@detail@xpressive@boost@@YA?AV?$intrusive_ptr@U?$finder@V?$_String_const_iterator@V?$_String_val@U?$_Simple_types@D@std@@@std@@@std@@@detail@xpressive@boost@@@2@AEBU?$xpression_peeker@D@012@AEBU?$cpp_regex_traits@D@12@U?$bool_@$0A@@mpl@2@@Z 000000018002ab30 f i GRBLdlg.obj
 0001:00029cb0       ??$_Guess_median_unchecked@PEADU?$less@X@std@@@std@@YAXPEAD00AEAU?$less@X@0@@Z 000000018002acb0 f i GRBLdlg.obj
 0001:00029e00       ??$_Pop_heap_unchecked@PEADU?$less@X@std@@@std@@YAXPEAD0AEAU?$less@X@0@@Z 000000018002ae00 f i GRBLdlg.obj
 0001:00029ee0       ??$assign_to@U?$token_finderF@U?$is_any_ofF@D@detail@algorithm@boost@@@detail@algorithm@boost@@@?$basic_vtable2@V?$iterator_range@PEBD@boost@@PEBDPEBD@function@detail@boost@@AEBA_NU?$token_finderF@U?$is_any_ofF@D@detail@algorithm@boost@@@2algorithm@3@AEATfunction_buffer@123@Ufunction_obj_tag@123@@Z 000000018002aee0 f i GRBLdlg.obj
 0001:00029ee0       ??$assign_to@U?$token_finderF@U?$is_any_ofF@D@detail@algorithm@boost@@@detail@algorithm@boost@@@?$basic_vtable2@V?$iterator_range@V?$_String_iterator@V?$_String_val@U?$_Simple_types@D@std@@@std@@@std@@@boost@@V?$_String_iterator@V?$_String_val@U?$_Simple_types@D@std@@@std@@@std@@V34@@function@detail@boost@@AEBA_NU?$token_finderF@U?$is_any_ofF@D@detail@algorithm@boost@@@2algorithm@3@AEATfunction_buffer@123@Ufunction_obj_tag@123@@Z 000000018002aee0 f i GRBLdlg.obj
 0001:00029fc0       ??$parse_atom@V?$_String_const_iterator@V?$_String_val@U?$_Simple_types@D@std@@@std@@@std@@@?$regex_compiler@V?$_String_const_iterator@V?$_String_val@U?$_Simple_types@D@std@@@std@@@std@@U?$regex_traits@DU?$cpp_regex_traits@D@xpressive@boost@@@xpressive@boost@@U?$compiler_traits@U?$regex_traits@DU?$cpp_regex_traits@D@xpressive@boost@@@xpressive@boost@@@45@@xpressive@boost@@AEAA?AU?$sequence@V?$_String_const_iterator@V?$_String_val@U?$_Simple_types@D@std@@@std@@@std@@@detail@12@AEAV?$_String_const_iterator@V?$_String_val@U?$_Simple_types@D@std@@@std@@@std@@V56@@Z 000000018002afc0 f i GRBLdlg.obj
 0001:0002a460       ??$get_quant_spec@V?$_String_const_iterator@V?$_String_val@U?$_Simple_types@D@std@@@std@@@std@@@?$compiler_traits@U?$regex_traits@DU?$cpp_regex_traits@D@xpressive@boost@@@xpressive@boost@@@xpressive@boost@@QEAA_NAEAV?$_String_const_iterator@V?$_String_val@U?$_Simple_types@D@std@@@std@@@std@@V34@AEAUquant_spec@detail@12@@Z 000000018002b460 f i GRBLdlg.obj
 0001:0002a6a0       ??$_Buynode@AEBUpiecewise_construct_t@std@@V?$tuple@AEBV?$basic_string@DU?$char_traits@D@std@@V?$allocator@D@2@@std@@@2@V?$tuple@$$V@2@@?$_Tree_comp_alloc@V?$_Tmap_traits@V?$basic_string@DU?$char_traits@D@std@@V?$allocator@D@2@@std@@U?$basic_regex@V?$_String_const_iterator@V?$_String_val@U?$_Simple_types@D@std@@@std@@@std@@@xpressive@boost@@U?$less@V?$basic_string@DU?$char_traits@D@std@@V?$allocator@D@2@@std@@@2@V?$allocator@U?$pair@$$CBV?$basic_string@DU?$char_traits@D@std@@V?$allocator@D@2@@std@@U?$basic_regex@V?$_String_const_iterator@V?$_String_val@U?$_Simple_types@D@std@@@std@@@std@@@xpressive@boost@@@std@@@2@$0A@@std@@@std@@QEAAPEAU?$_Tree_node@U?$pair@$$CBV?$basic_string@DU?$char_traits@D@std@@V?$allocator@D@2@@std@@U?$basic_regex@V?$_String_const_iterator@V?$_String_val@U?$_Simple_types@D@std@@@std@@@std@@@xpressive@boost@@@std@@PEAX@1@AEBUpiecewise_construct_t@1@$$QEAV?$tuple@AEBV?$basic_string@DU?$char_traits@D@std@@V?$allocator@D@2@@std@@@1@$$QEAV?$tuple@$$V@1@@Z 000000018002b6a0 f i GRBLdlg.obj
 0001:0002a730       ??$_Insert_hint@AEAU?$pair@$$CBV?$basic_string@DU?$char_traits@D@std@@V?$allocator@D@2@@std@@U?$basic_regex@V?$_String_const_iterator@V?$_String_val@U?$_Simple_types@D@std@@@std@@@std@@@xpressive@boost@@@std@@PEAU?$_Tree_node@U?$pair@$$CBV?$basic_string@DU?$char_traits@D@std@@V?$allocator@D@2@@std@@U?$basic_regex@V?$_String_const_iterator@V?$_String_val@U?$_Simple_types@D@std@@@std@@@std@@@xpressive@boost@@@std@@PEAX@2@@?$_Tree@V?$_Tmap_traits@V?$basic_string@DU?$char_traits@D@std@@V?$allocator@D@2@@std@@U?$basic_regex@V?$_String_const_iterator@V?$_String_val@U?$_Simple_types@D@std@@@std@@@std@@@xpressive@boost@@U?$less@V?$basic_string@DU?$char_traits@D@std@@V?$allocator@D@2@@std@@@2@V?$allocator@U?$pair@$$CBV?$basic_string@DU?$char_traits@D@std@@V?$allocator@D@2@@std@@U?$basic_regex@V?$_String_const_iterator@V?$_String_val@U?$_Simple_types@D@std@@@std@@@std@@@xpressive@boost@@@std@@@2@$0A@@std@@@std@@IEAA?AV?$_Tree_iterator@V?$_Tree_val@U?$_Tree_simple_types@U?$pair@$$CBV?$basic_string@DU?$char_traits@D@std@@V?$allocator@D@2@@std@@U?$basic_regex@V?$_String_const_iterator@V?$_String_val@U?$_Simple_types@D@std@@@std@@@std@@@xpressive@boost@@@std@@@std@@@std@@@1@V?$_Tree_const_iterator@V?$_Tree_val@U?$_Tree_simple_types@U?$pair@$$CBV?$basic_string@DU?$char_traits@D@std@@V?$allocator@D@2@@std@@U?$basic_regex@V?$_String_const_iterator@V?$_String_val@U?$_Simple_types@D@std@@@std@@@std@@@xpressive@boost@@@std@@@std@@@std@@@1@AEAU?$pair@$$CBV?$basic_string@DU?$char_traits@D@std@@V?$allocator@D@2@@std@@U?$basic_regex@V?$_String_const_iterator@V?$_String_val@U?$_Simple_types@D@std@@@std@@@std@@@xpressive@boost@@@1@PEAU?$_Tree_node@U?$pair@$$CBV?$basic_string@DU?$char_traits@D@std@@V?$allocator@D@2@@std@@U?$basic_regex@V?$_String_const_iterator@V?$_String_val@U?$_Simple_types@D@std@@@std@@@std@@@xpressive@boost@@@std@@PEAX@1@@Z 000000018002b730 f i GRBLdlg.obj
 0001:0002a990       ??$make_dynamic@V?$_String_const_iterator@V?$_String_val@U?$_Simple_types@D@std@@@std@@@std@@U?$optional_mark_matcher@U?$shared_matchable@V?$_String_const_iterator@V?$_String_val@U?$_Simple_types@D@std@@@std@@@std@@@detail@xpressive@boost@@U?$bool_@$00@mpl@4@@detail@xpressive@boost@@@detail@xpressive@boost@@YA?AU?$sequence@V?$_String_const_iterator@V?$_String_val@U?$_Simple_types@D@std@@@std@@@std@@@012@AEBU?$optional_mark_matcher@U?$shared_matchable@V?$_String_const_iterator@V?$_String_val@U?$_Simple_types@D@std@@@std@@@std@@@detail@xpressive@boost@@U?$bool_@$00@mpl@4@@012@@Z 000000018002b990 f i GRBLdlg.obj
 0001:0002aaf0       ??$make_dynamic@V?$_String_const_iterator@V?$_String_val@U?$_Simple_types@D@std@@@std@@@std@@U?$optional_mark_matcher@U?$shared_matchable@V?$_String_const_iterator@V?$_String_val@U?$_Simple_types@D@std@@@std@@@std@@@detail@xpressive@boost@@U?$bool_@$0A@@mpl@4@@detail@xpressive@boost@@@detail@xpressive@boost@@YA?AU?$sequence@V?$_String_const_iterator@V?$_String_val@U?$_Simple_types@D@std@@@std@@@std@@@012@AEBU?$optional_mark_matcher@U?$shared_matchable@V?$_String_const_iterator@V?$_String_val@U?$_Simple_types@D@std@@@std@@@std@@@detail@xpressive@boost@@U?$bool_@$0A@@mpl@4@@012@@Z 000000018002baf0 f i GRBLdlg.obj
 0001:0002ac50       ??@e901bafa7075f9adf06b3bc1bbf9128e@ 000000018002bc50 f i GRBLdlg.obj
 0001:0002ad00       ??$match@V?$_String_const_iterator@V?$_String_val@U?$_Simple_types@D@std@@@std@@@std@@U?$static_xpression@Uassert_bos_matcher@detail@xpressive@boost@@U?$static_xpression@U?$literal_matcher@U?$cpp_regex_traits@D@xpressive@boost@@U?$bool_@$0A@@mpl@3@U453@@detail@xpressive@boost@@U?$static_xpression@U?$simple_repeat_matcher@U?$static_xpression@U?$posix_charset_matcher@U?$cpp_regex_traits@D@xpressive@boost@@@detail@xpressive@boost@@U?$static_xpression@Utrue_matcher@detail@xpressive@boost@@Uno_next@234@@234@@detail@xpressive@boost@@U?$bool_@$00@mpl@4@@detail@xpressive@boost@@U?$static_xpression@Umark_end_matcher@detail@xpressive@boost@@U?$static_xpression@Umark_begin_matcher@detail@xpressive@boost@@U?$static_xpression@U?$simple_repeat_matcher@U?$static_xpression@Uany_matcher@detail@xpressive@boost@@U?$static_xpression@Utrue_matcher@detail@xpressive@boost@@Uno_next@234@@234@@detail@xpressive@boost@@U?$bool_@$00@mpl@4@@detail@xpressive@boost@@U?$static_xpression@Umark_end_matcher@detail@xpressive@boost@@U?$static_xpression@Uend_matcher@detail@xpressive@boost@@Uno_next@234@@234@@234@@234@@234@@234@@234@@234@@detail@xpressive@boost@@@mark_begin_matcher@detail@xpressive@boost@@QEBA_NAEAU?$match_state@V?$_String_const_iterator@V?$_String_val@U?$_Simple_types@D@std@@@std@@@std@@@123@AEBU?$static_xpression@Uassert_bos_matcher@detail@xpressive@boost@@U?$static_xpression@U?$literal_matcher@U?$cpp_regex_traits@D@xpressive@boost@@U?$bool_@$0A@@mpl@3@U453@@detail@xpressive@boost@@U?$static_xpression@U?$simple_repeat_matcher@U?$static_xpression@U?$posix_charset_matcher@U?$cpp_regex_traits@D@xpressive@boost@@@detail@xpressive@boost@@U?$static_xpression@Utrue_matcher@detail@xpressive@boost@@Uno_next@234@@234@@detail@xpressive@boost@@U?$bool_@$00@mpl@4@@detail@xpressive@boost@@U?$static_xpression@Umark_end_matcher@detail@xpressive@boost@@U?$static_xpression@Umark_begin_matcher@detail@xpressive@boost@@U?$static_xpression@U?$simple_repeat_matcher@U?$static_xpression@Uany_matcher@detail@xpressive@boost@@U?$static_xpression@Utrue_matcher@detail@xpressive@boost@@Uno_next@234@@234@@detail@xpressive@boost@@U?$bool_@$00@mpl@4@@detail@xpressive@boost@@U?$static_xpression@Umark_end_matcher@detail@xpressive@boost@@U?$static_xpression@Uend_matcher@detail@xpressive@boost@@Uno_next@234@@234@@234@@234@@234@@234@@234@@234@@123@@Z 000000018002bd00 f i GRBLdlg.obj
 0001:0002ad90       ??$accept@U?$alternates_list@U?$static_xpression@U?$literal_matcher@U?$cpp_regex_traits@D@xpressive@boost@@U?$bool_@$0A@@mpl@3@U453@@detail@xpressive@boost@@U?$static_xpression@U?$simple_repeat_matcher@U?$static_xpression@U?$literal_matcher@U?$cpp_regex_traits@D@xpressive@boost@@U?$bool_@$0A@@mpl@3@U?$bool_@$00@53@@detail@xpressive@boost@@U?$static_xpression@Utrue_matcher@detail@xpressive@boost@@Uno_next@234@@234@@detail@xpressive@boost@@U?$bool_@$00@mpl@4@@detail@xpressive@boost@@U?$static_xpression@U?$literal_matcher@U?$cpp_regex_traits@D@xpressive@boost@@U?$bool_@$0A@@mpl@3@U453@@detail@xpressive@boost@@U?$static_xpression@Ualternate_end_matcher@detail@xpressive@boost@@Uno_next@234@@234@@234@@234@@detail@xpressive@boost@@U?$alternates_list@U?$static_xpression@U?$alternate_matcher@U?$alternates_list@U?$static_xpression@U?$literal_matcher@U?$cpp_regex_traits@D@xpressive@boost@@U?$bool_@$0A@@mpl@3@U453@@detail@xpressive@boost@@U?$static_xpression@Ualternate_end_matcher@detail@xpressive@boost@@Uno_next@234@@234@@detail@xpressive@boost@@U?$alternates_list@U?$static_xpression@U?$literal_matcher@U?$cpp_regex_traits@D@xpressive@boost@@U?$bool_@$0A@@mpl@3@U453@@detail@xpressive@boost@@U?$static_xpression@Ualternate_end_matcher@detail@xpressive@boost@@Uno_next@234@@234@@detail@xpressive@boost@@Unil_@fusion@4@@234@@detail@xpressive@boost@@U?$cpp_regex_traits@D@34@@detail@xpressive@boost@@U?$static_xpression@U?$simple_repeat_matcher@U?$static_xpression@U?$posix_charset_matcher@U?$cpp_regex_traits@D@xpressive@boost@@@detail@xpressive@boost@@U?$static_xpression@Utrue_matcher@detail@xpressive@boost@@Uno_next@234@@234@@detail@xpressive@boost@@U?$bool_@$00@mpl@4@@detail@xpressive@boost@@U?$static_xpression@Ualternate_end_matcher@detail@xpressive@boost@@Uno_next@234@@234@@234@@detail@xpressive@boost@@Unil_@fusion@4@@234@@detail@xpressive@boost@@U?$cpp_regex_traits@D@34@@?$xpression_linker@D@detail@xpressive@boost@@QEAAXAEBU?$alternate_matcher@U?$alternates_list@U?$static_xpression@U?$literal_matcher@U?$cpp_regex_traits@D@xpressive@boost@@U?$bool_@$0A@@mpl@3@U453@@detail@xpressive@boost@@U?$static_xpression@U?$simple_repeat_matcher@U?$static_xpression@U?$literal_matcher@U?$cpp_regex_traits@D@xpressive@boost@@U?$bool_@$0A@@mpl@3@U?$bool_@$00@53@@detail@xpressive@boost@@U?$static_xpression@Utrue_matcher@detail@xpressive@boost@@Uno_next@234@@234@@detail@xpressive@boost@@U?$bool_@$00@mpl@4@@detail@xpressive@boost@@U?$static_xpression@U?$literal_matcher@U?$cpp_regex_traits@D@xpressive@boost@@U?$bool_@$0A@@mpl@3@U453@@detail@xpressive@boost@@U?$static_xpression@Ualternate_end_matcher@detail@xpressive@boost@@Uno_next@234@@234@@234@@234@@detail@xpressive@boost@@U?$alternates_list@U?$static_xpression@U?$alternate_matcher@U?$alternates_list@U?$static_xpression@U?$literal_matcher@U?$cpp_regex_traits@D@xpressive@boost@@U?$bool_@$0A@@mpl@3@U453@@detail@xpressive@boost@@U?$static_xpression@Ualternate_end_matcher@detail@xpressive@boost@@Uno_next@234@@234@@detail@xpressive@boost@@U?$alternates_list@U?$static_xpression@U?$literal_matcher@U?$cpp_regex_traits@D@xpressive@boost@@U?$bool_@$0A@@mpl@3@U453@@detail@xpressive@boost@@U?$static_xpression@Ualternate_end_matcher@detail@xpressive@boost@@Uno_next@234@@234@@detail@xpressive@boost@@Unil_@fusion@4@@234@@detail@xpressive@boost@@U?$cpp_regex_traits@D@34@@detail@xpressive@boost@@U?$static_xpression@U?$simple_repeat_matcher@U?$static_xpression@U?$posix_charset_matcher@U?$cpp_regex_traits@D@xpressive@boost@@@detail@xpressive@boost@@U?$static_xpression@Utrue_matcher@detail@xpressive@boost@@Uno_next@234@@234@@detail@xpressive@boost@@U?$bool_@$00@mpl@4@@detail@xpressive@boost@@U?$static_xpression@Ualternate_end_matcher@detail@xpressive@boost@@Uno_next@234@@234@@234@@detail@xpressive@boost@@Unil_@fusion@4@@234@@detail@xpressive@boost@@U?$cpp_regex_traits@D@34@@123@PEBX@Z 000000018002bd90 f i GRBLdlg.obj
 0001:0002ae90       ??$match@V?$_String_const_iterator@V?$_String_val@U?$_Simple_types@D@std@@@std@@@std@@U?$static_xpression@Uend_matcher@detail@xpressive@boost@@Uno_next@234@@detail@xpressive@boost@@@?$alternate_matcher@U?$alternates_list@U?$static_xpression@U?$literal_matcher@U?$cpp_regex_traits@D@xpressive@boost@@U?$bool_@$0A@@mpl@3@U453@@detail@xpressive@boost@@U?$static_xpression@U?$simple_repeat_matcher@U?$static_xpression@U?$literal_matcher@U?$cpp_regex_traits@D@xpressive@boost@@U?$bool_@$0A@@mpl@3@U?$bool_@$00@53@@detail@xpressive@boost@@U?$static_xpression@Utrue_matcher@detail@xpressive@boost@@Uno_next@234@@234@@detail@xpressive@boost@@U?$bool_@$00@mpl@4@@detail@xpressive@boost@@U?$static_xpression@U?$literal_matcher@U?$cpp_regex_traits@D@xpressive@boost@@U?$bool_@$0A@@mpl@3@U453@@detail@xpressive@boost@@U?$static_xpression@Ualternate_end_matcher@detail@xpressive@boost@@Uno_next@234@@234@@234@@234@@detail@xpressive@boost@@U?$alternates_list@U?$static_xpression@U?$alternate_matcher@U?$alternates_list@U?$static_xpression@U?$literal_matcher@U?$cpp_regex_traits@D@xpressive@boost@@U?$bool_@$0A@@mpl@3@U453@@detail@xpressive@boost@@U?$static_xpression@Ualternate_end_matcher@detail@xpressive@boost@@Uno_next@234@@234@@detail@xpressive@boost@@U?$alternates_list@U?$static_xpression@U?$literal_matcher@U?$cpp_regex_traits@D@xpressive@boost@@U?$bool_@$0A@@mpl@3@U453@@detail@xpressive@boost@@U?$static_xpression@Ualternate_end_matcher@detail@xpressive@boost@@Uno_next@234@@234@@detail@xpressive@boost@@Unil_@fusion@4@@234@@detail@xpressive@boost@@U?$cpp_regex_traits@D@34@@detail@xpressive@boost@@U?$static_xpression@U?$simple_repeat_matcher@U?$static_xpression@U?$posix_charset_matcher@U?$cpp_regex_traits@D@xpressive@boost@@@detail@xpressive@boost@@U?$static_xpression@Utrue_matcher@detail@xpressive@boost@@Uno_next@234@@234@@detail@xpressive@boost@@U?$bool_@$00@mpl@4@@detail@xpressive@boost@@U?$static_xpression@Ualternate_end_matcher@detail@xpressive@boost@@Uno_next@234@@234@@234@@detail@xpressive@boost@@Unil_@fusion@4@@234@@detail@xpressive@boost@@U?$cpp_regex_traits@D@34@@detail@xpressive@boost@@QEBA_NAEAU?$match_state@V?$_String_const_iterator@V?$_String_val@U?$_Simple_types@D@std@@@std@@@std@@@123@AEBU?$static_xpression@Uend_matcher@detail@xpressive@boost@@Uno_next@234@@123@@Z 000000018002be90 f i GRBLdlg.obj
 0001:0002af10       ??$match@V?$_String_const_iterator@V?$_String_val@U?$_Simple_types@D@std@@@std@@@std@@U?$matchable_ex@V?$_String_const_iterator@V?$_String_val@U?$_Simple_types@D@std@@@std@@@std@@@detail@xpressive@boost@@@?$repeat_end_matcher@U?$bool_@$0A@@mpl@boost@@@detail@xpressive@boost@@QEBA_NAEAU?$match_state@V?$_String_const_iterator@V?$_String_val@U?$_Simple_types@D@std@@@std@@@std@@@123@AEBU?$matchable_ex@V?$_String_const_iterator@V?$_String_val@U?$_Simple_types@D@std@@@std@@@std@@@123@@Z 000000018002bf10 f i GRBLdlg.obj
 0001:0002afe0       ??$match@V?$_String_const_iterator@V?$_String_val@U?$_Simple_types@D@std@@@std@@@std@@U?$matchable_ex@V?$_String_const_iterator@V?$_String_val@U?$_Simple_types@D@std@@@std@@@std@@@detail@xpressive@boost@@@?$repeat_end_matcher@U?$bool_@$00@mpl@boost@@@detail@xpressive@boost@@QEBA_NAEAU?$match_state@V?$_String_const_iterator@V?$_String_val@U?$_Simple_types@D@std@@@std@@@std@@@123@AEBU?$matchable_ex@V?$_String_const_iterator@V?$_String_val@U?$_Simple_types@D@std@@@std@@@std@@@123@@Z 000000018002bfe0 f i GRBLdlg.obj
 0001:0002b0b0       ??$lookup_classname@U?$cpp_regex_traits@D@xpressive@boost@@$07@xpressive@boost@@YAGAEBU?$cpp_regex_traits@D@01@AEAY07$$CBD_N@Z 000000018002c0b0 f i GRBLdlg.obj
 0001:0002b0b0       ??$lookup_classname@U?$regex_traits@DU?$cpp_regex_traits@D@xpressive@boost@@@xpressive@boost@@$07@xpressive@boost@@YAGAEBU?$regex_traits@DU?$cpp_regex_traits@D@xpressive@boost@@@01@AEAY07$$CBD_N@Z 000000018002c0b0 f i GRBLdlg.obj
 0001:0002b140       ?link@?$dynamic_xpression@U?$optional_mark_matcher@U?$shared_matchable@V?$_String_const_iterator@V?$_String_val@U?$_Simple_types@D@std@@@std@@@std@@@detail@xpressive@boost@@U?$bool_@$00@mpl@4@@detail@xpressive@boost@@V?$_String_const_iterator@V?$_String_val@U?$_Simple_types@D@std@@@std@@@std@@@detail@xpressive@boost@@UEBAXAEAU?$xpression_linker@D@234@@Z 000000018002c140 f i GRBLdlg.obj
 0001:0002b140       ?link@?$dynamic_xpression@U?$optional_mark_matcher@U?$shared_matchable@V?$_String_const_iterator@V?$_String_val@U?$_Simple_types@D@std@@@std@@@std@@@detail@xpressive@boost@@U?$bool_@$0A@@mpl@4@@detail@xpressive@boost@@V?$_String_const_iterator@V?$_String_val@U?$_Simple_types@D@std@@@std@@@std@@@detail@xpressive@boost@@UEBAXAEAU?$xpression_linker@D@234@@Z 000000018002c140 f i GRBLdlg.obj
 0001:0002b1a0       ?match@?$dynamic_xpression@U?$optional_mark_matcher@U?$shared_matchable@V?$_String_const_iterator@V?$_String_val@U?$_Simple_types@D@std@@@std@@@std@@@detail@xpressive@boost@@U?$bool_@$0A@@mpl@4@@detail@xpressive@boost@@V?$_String_const_iterator@V?$_String_val@U?$_Simple_types@D@std@@@std@@@std@@@detail@xpressive@boost@@UEBA_NAEAU?$match_state@V?$_String_const_iterator@V?$_String_val@U?$_Simple_types@D@std@@@std@@@std@@@234@@Z 000000018002c1a0 f i GRBLdlg.obj
 0001:0002b210       ?match@?$dynamic_xpression@U?$optional_mark_matcher@U?$shared_matchable@V?$_String_const_iterator@V?$_String_val@U?$_Simple_types@D@std@@@std@@@std@@@detail@xpressive@boost@@U?$bool_@$00@mpl@4@@detail@xpressive@boost@@V?$_String_const_iterator@V?$_String_val@U?$_Simple_types@D@std@@@std@@@std@@@detail@xpressive@boost@@UEBA_NAEAU?$match_state@V?$_String_const_iterator@V?$_String_val@U?$_Simple_types@D@std@@@std@@@std@@@234@@Z 000000018002c210 f i GRBLdlg.obj
 0001:0002b290       ??0?$line_start_finder@V?$_String_const_iterator@V?$_String_val@U?$_Simple_types@D@std@@@std@@@std@@U?$cpp_regex_traits@D@xpressive@boost@@$00@detail@xpressive@boost@@QEAA@AEBU?$cpp_regex_traits@D@23@@Z 000000018002c290 f i GRBLdlg.obj
 0001:0002b310       ?_Buynode0@?$_Tree_comp_alloc@V?$_Tmap_traits@V?$basic_string@DU?$char_traits@D@std@@V?$allocator@D@2@@std@@U?$basic_regex@V?$_String_const_iterator@V?$_String_val@U?$_Simple_types@D@std@@@std@@@std@@@xpressive@boost@@U?$less@V?$basic_string@DU?$char_traits@D@std@@V?$allocator@D@2@@std@@@2@V?$allocator@U?$pair@$$CBV?$basic_string@DU?$char_traits@D@std@@V?$allocator@D@2@@std@@U?$basic_regex@V?$_String_const_iterator@V?$_String_val@U?$_Simple_types@D@std@@@std@@@std@@@xpressive@boost@@@std@@@2@$0A@@std@@@std@@QEAAPEAU?$_Tree_node@U?$pair@$$CBV?$basic_string@DU?$char_traits@D@std@@V?$allocator@D@2@@std@@U?$basic_regex@V?$_String_const_iterator@V?$_String_val@U?$_Simple_types@D@std@@@std@@@std@@@xpressive@boost@@@std@@PEAX@2@XZ 000000018002c310 f i GRBLdlg.obj
 0001:0002b360       ?_Destroy_if_not_nil@?$_Tree@V?$_Tmap_traits@V?$basic_string@DU?$char_traits@D@std@@V?$allocator@D@2@@std@@U?$basic_regex@V?$_String_const_iterator@V?$_String_val@U?$_Simple_types@D@std@@@std@@@std@@@xpressive@boost@@U?$less@V?$basic_string@DU?$char_traits@D@std@@V?$allocator@D@2@@std@@@2@V?$allocator@U?$pair@$$CBV?$basic_string@DU?$char_traits@D@std@@V?$allocator@D@2@@std@@U?$basic_regex@V?$_String_const_iterator@V?$_String_val@U?$_Simple_types@D@std@@@std@@@std@@@xpressive@boost@@@std@@@2@$0A@@std@@@std@@IEAAXPEAU?$_Tree_node@U?$pair@$$CBV?$basic_string@DU?$char_traits@D@std@@V?$allocator@D@2@@std@@U?$basic_regex@V?$_String_const_iterator@V?$_String_val@U?$_Simple_types@D@std@@@std@@@std@@@xpressive@boost@@@std@@PEAX@2@@Z 000000018002c360 f i GRBLdlg.obj
 0001:0002b3a0       ??_E?$dynamic_xpression@U?$optional_mark_matcher@U?$shared_matchable@V?$_String_const_iterator@V?$_String_val@U?$_Simple_types@D@std@@@std@@@std@@@detail@xpressive@boost@@U?$bool_@$0A@@mpl@4@@detail@xpressive@boost@@V?$_String_const_iterator@V?$_String_val@U?$_Simple_types@D@std@@@std@@@std@@@detail@xpressive@boost@@UEAAPEAXI@Z 000000018002c3a0 f i * CIL library *:* CIL module *
 0001:0002b3a0       ??_E?$dynamic_xpression@U?$lookahead_matcher@U?$shared_matchable@V?$_String_const_iterator@V?$_String_val@U?$_Simple_types@D@std@@@std@@@std@@@detail@xpressive@boost@@@detail@xpressive@boost@@V?$_String_const_iterator@V?$_String_val@U?$_Simple_types@D@std@@@std@@@std@@@detail@xpressive@boost@@UEAAPEAXI@Z 000000018002c3a0 f i * CIL library *:* CIL module *
 0001:0002b3a0       ??_G?$dynamic_xpression@U?$optional_mark_matcher@U?$shared_matchable@V?$_String_const_iterator@V?$_String_val@U?$_Simple_types@D@std@@@std@@@std@@@detail@xpressive@boost@@U?$bool_@$00@mpl@4@@detail@xpressive@boost@@V?$_String_const_iterator@V?$_String_val@U?$_Simple_types@D@std@@@std@@@std@@@detail@xpressive@boost@@UEAAPEAXI@Z 000000018002c3a0 f i GRBLdlg.obj
 0001:0002b3a0       ??_G?$dynamic_xpression@U?$keeper_matcher@U?$shared_matchable@V?$_String_const_iterator@V?$_String_val@U?$_Simple_types@D@std@@@std@@@std@@@detail@xpressive@boost@@@detail@xpressive@boost@@V?$_String_const_iterator@V?$_String_val@U?$_Simple_types@D@std@@@std@@@std@@@detail@xpressive@boost@@UEAAPEAXI@Z 000000018002c3a0 f i GRBLdlg.obj
 0001:0002b3a0       ??_G?$dynamic_xpression@U?$optional_mark_matcher@U?$shared_matchable@V?$_String_const_iterator@V?$_String_val@U?$_Simple_types@D@std@@@std@@@std@@@detail@xpressive@boost@@U?$bool_@$0A@@mpl@4@@detail@xpressive@boost@@V?$_String_const_iterator@V?$_String_val@U?$_Simple_types@D@std@@@std@@@std@@@detail@xpressive@boost@@UEAAPEAXI@Z 000000018002c3a0 f i GRBLdlg.obj
 0001:0002b3a0       ??_E?$dynamic_xpression@U?$keeper_matcher@U?$shared_matchable@V?$_String_const_iterator@V?$_String_val@U?$_Simple_types@D@std@@@std@@@std@@@detail@xpressive@boost@@@detail@xpressive@boost@@V?$_String_const_iterator@V?$_String_val@U?$_Simple_types@D@std@@@std@@@std@@@detail@xpressive@boost@@UEAAPEAXI@Z 000000018002c3a0 f i * CIL library *:* CIL module *
 0001:0002b3a0       ??_E?$dynamic_xpression@U?$optional_mark_matcher@U?$shared_matchable@V?$_String_const_iterator@V?$_String_val@U?$_Simple_types@D@std@@@std@@@std@@@detail@xpressive@boost@@U?$bool_@$00@mpl@4@@detail@xpressive@boost@@V?$_String_const_iterator@V?$_String_val@U?$_Simple_types@D@std@@@std@@@std@@@detail@xpressive@boost@@UEAAPEAXI@Z 000000018002c3a0 f i * CIL library *:* CIL module *
 0001:0002b3a0       ??_G?$dynamic_xpression@U?$lookahead_matcher@U?$shared_matchable@V?$_String_const_iterator@V?$_String_val@U?$_Simple_types@D@std@@@std@@@std@@@detail@xpressive@boost@@@detail@xpressive@boost@@V?$_String_const_iterator@V?$_String_val@U?$_Simple_types@D@std@@@std@@@std@@@detail@xpressive@boost@@UEAAPEAXI@Z 000000018002c3a0 f i GRBLdlg.obj
 0001:0002b3e0       ??1?$dynamic_xpression@U?$optional_mark_matcher@U?$shared_matchable@V?$_String_const_iterator@V?$_String_val@U?$_Simple_types@D@std@@@std@@@std@@@detail@xpressive@boost@@U?$bool_@$00@mpl@4@@detail@xpressive@boost@@V?$_String_const_iterator@V?$_String_val@U?$_Simple_types@D@std@@@std@@@std@@@detail@xpressive@boost@@UEAA@XZ 000000018002c3e0 f i GRBLdlg.obj
 0001:0002b3e0       ??1?$dynamic_xpression@U?$lookahead_matcher@U?$shared_matchable@V?$_String_const_iterator@V?$_String_val@U?$_Simple_types@D@std@@@std@@@std@@@detail@xpressive@boost@@@detail@xpressive@boost@@V?$_String_const_iterator@V?$_String_val@U?$_Simple_types@D@std@@@std@@@std@@@detail@xpressive@boost@@UEAA@XZ 000000018002c3e0 f i GRBLdlg.obj
 0001:0002b3e0       ??1?$dynamic_xpression@U?$optional_mark_matcher@U?$shared_matchable@V?$_String_const_iterator@V?$_String_val@U?$_Simple_types@D@std@@@std@@@std@@@detail@xpressive@boost@@U?$bool_@$0A@@mpl@4@@detail@xpressive@boost@@V?$_String_const_iterator@V?$_String_val@U?$_Simple_types@D@std@@@std@@@std@@@detail@xpressive@boost@@UEAA@XZ 000000018002c3e0 f i GRBLdlg.obj
 0001:0002b3e0       ??1?$dynamic_xpression@U?$keeper_matcher@U?$shared_matchable@V?$_String_const_iterator@V?$_String_val@U?$_Simple_types@D@std@@@std@@@std@@@detail@xpressive@boost@@@detail@xpressive@boost@@V?$_String_const_iterator@V?$_String_val@U?$_Simple_types@D@std@@@std@@@std@@@detail@xpressive@boost@@UEAA@XZ 000000018002c3e0 f i GRBLdlg.obj
 0001:0002b480       ??$assign_functor@U?$token_finderF@U?$is_any_ofF@D@detail@algorithm@boost@@@detail@algorithm@boost@@@?$basic_vtable2@V?$iterator_range@PEBD@boost@@PEBDPEBD@function@detail@boost@@AEBAXU?$token_finderF@U?$is_any_ofF@D@detail@algorithm@boost@@@2algorithm@3@AEATfunction_buffer@123@U?$integral_constant@_N$00@3@@Z 000000018002c480 f i GRBLdlg.obj
 0001:0002b480       ??$assign_functor@U?$token_finderF@U?$is_any_ofF@D@detail@algorithm@boost@@@detail@algorithm@boost@@@?$basic_vtable2@V?$iterator_range@V?$_String_iterator@V?$_String_val@U?$_Simple_types@D@std@@@std@@@std@@@boost@@V?$_String_iterator@V?$_String_val@U?$_Simple_types@D@std@@@std@@@std@@V34@@function@detail@boost@@AEBAXU?$token_finderF@U?$is_any_ofF@D@detail@algorithm@boost@@@2algorithm@3@AEATfunction_buffer@123@U?$integral_constant@_N$00@3@@Z 000000018002c480 f i GRBLdlg.obj
 0001:0002b530       ??$parse_literal@V?$_String_const_iterator@V?$_String_val@U?$_Simple_types@D@std@@@std@@@std@@@?$regex_compiler@V?$_String_const_iterator@V?$_String_val@U?$_Simple_types@D@std@@@std@@@std@@U?$regex_traits@DU?$cpp_regex_traits@D@xpressive@boost@@@xpressive@boost@@U?$compiler_traits@U?$regex_traits@DU?$cpp_regex_traits@D@xpressive@boost@@@xpressive@boost@@@45@@xpressive@boost@@AEAA?AV?$basic_string@DU?$char_traits@D@std@@V?$allocator@D@2@@std@@AEAV?$_String_const_iterator@V?$_String_val@U?$_Simple_types@D@std@@@std@@@4@V54@@Z 000000018002c530 f i GRBLdlg.obj
 0001:0002b930       ??$make_literal_xpression@V?$_String_const_iterator@V?$_String_val@U?$_Simple_types@D@std@@@std@@@std@@U?$regex_traits@DU?$cpp_regex_traits@D@xpressive@boost@@@xpressive@boost@@@detail@xpressive@boost@@YA?AU?$sequence@V?$_String_const_iterator@V?$_String_val@U?$_Simple_types@D@std@@@std@@@std@@@012@AEBV?$basic_string@DU?$char_traits@D@std@@V?$allocator@D@2@@std@@W4syntax_option_type@regex_constants@12@AEBU?$regex_traits@DU?$cpp_regex_traits@D@xpressive@boost@@@12@@Z 000000018002c930 f i GRBLdlg.obj
 0001:0002ba40       ??$make_any_xpression@V?$_String_const_iterator@V?$_String_val@U?$_Simple_types@D@std@@@std@@@std@@U?$regex_traits@DU?$cpp_regex_traits@D@xpressive@boost@@@xpressive@boost@@@detail@xpressive@boost@@YA?AU?$sequence@V?$_String_const_iterator@V?$_String_val@U?$_Simple_types@D@std@@@std@@@std@@@012@W4syntax_option_type@regex_constants@12@AEBU?$regex_traits@DU?$cpp_regex_traits@D@xpressive@boost@@@12@@Z 000000018002ca40 f i GRBLdlg.obj
 0001:0002baf0       ??$make_dynamic@V?$_String_const_iterator@V?$_String_val@U?$_Simple_types@D@std@@@std@@@std@@Uassert_bos_matcher@detail@xpressive@boost@@@detail@xpressive@boost@@YA?AU?$sequence@V?$_String_const_iterator@V?$_String_val@U?$_Simple_types@D@std@@@std@@@std@@@012@AEBUassert_bos_matcher@012@@Z 000000018002caf0 f i GRBLdlg.obj
 0001:0002bc20       ??$make_dynamic@V?$_String_const_iterator@V?$_String_val@U?$_Simple_types@D@std@@@std@@@std@@Uassert_eos_matcher@detail@xpressive@boost@@@detail@xpressive@boost@@YA?AU?$sequence@V?$_String_const_iterator@V?$_String_val@U?$_Simple_types@D@std@@@std@@@std@@@012@AEBUassert_eos_matcher@012@@Z 000000018002cc20 f i GRBLdlg.obj
 0001:0002bd50       ??$make_assert_begin_line@V?$_String_const_iterator@V?$_String_val@U?$_Simple_types@D@std@@@std@@@std@@U?$regex_traits@DU?$cpp_regex_traits@D@xpressive@boost@@@xpressive@boost@@@detail@xpressive@boost@@YA?AU?$sequence@V?$_String_const_iterator@V?$_String_val@U?$_Simple_types@D@std@@@std@@@std@@@012@W4syntax_option_type@regex_constants@12@AEBU?$regex_traits@DU?$cpp_regex_traits@D@xpressive@boost@@@12@@Z 000000018002cd50 f i GRBLdlg.obj
 0001:0002bdd0       ??$make_assert_end_line@V?$_String_const_iterator@V?$_String_val@U?$_Simple_types@D@std@@@std@@@std@@U?$regex_traits@DU?$cpp_regex_traits@D@xpressive@boost@@@xpressive@boost@@@detail@xpressive@boost@@YA?AU?$sequence@V?$_String_const_iterator@V?$_String_val@U?$_Simple_types@D@std@@@std@@@std@@@012@W4syntax_option_type@regex_constants@12@AEBU?$regex_traits@DU?$cpp_regex_traits@D@xpressive@boost@@@12@@Z 000000018002cdd0 f i GRBLdlg.obj
 0001:0002be50       ??$make_assert_word@V?$_String_const_iterator@V?$_String_val@U?$_Simple_types@D@std@@@std@@@std@@U?$word_boundary@U?$bool_@$00@mpl@boost@@@detail@xpressive@boost@@U?$regex_traits@DU?$cpp_regex_traits@D@xpressive@boost@@@56@@detail@xpressive@boost@@YA?AU?$sequence@V?$_String_const_iterator@V?$_String_val@U?$_Simple_types@D@std@@@std@@@std@@@012@U?$word_boundary@U?$bool_@$00@mpl@boost@@@012@AEBU?$regex_traits@DU?$cpp_regex_traits@D@xpressive@boost@@@12@@Z 000000018002ce50 f i GRBLdlg.obj
 0001:0002bee0       ??$make_assert_word@V?$_String_const_iterator@V?$_String_val@U?$_Simple_types@D@std@@@std@@@std@@U?$word_boundary@U?$bool_@$0A@@mpl@boost@@@detail@xpressive@boost@@U?$regex_traits@DU?$cpp_regex_traits@D@xpressive@boost@@@56@@detail@xpressive@boost@@YA?AU?$sequence@V?$_String_const_iterator@V?$_String_val@U?$_Simple_types@D@std@@@std@@@std@@@012@U?$word_boundary@U?$bool_@$0A@@mpl@boost@@@012@AEBU?$regex_traits@DU?$cpp_regex_traits@D@xpressive@boost@@@12@@Z 000000018002cee0 f i GRBLdlg.obj
 0001:0002bf70       ??$make_assert_word@V?$_String_const_iterator@V?$_String_val@U?$_Simple_types@D@std@@@std@@@std@@Uword_begin@detail@xpressive@boost@@U?$regex_traits@DU?$cpp_regex_traits@D@xpressive@boost@@@56@@detail@xpressive@boost@@YA?AU?$sequence@V?$_String_const_iterator@V?$_String_val@U?$_Simple_types@D@std@@@std@@@std@@@012@Uword_begin@012@AEBU?$regex_traits@DU?$cpp_regex_traits@D@xpressive@boost@@@12@@Z 000000018002cf70 f i GRBLdlg.obj
 0001:0002c000       ??$make_assert_word@V?$_String_const_iterator@V?$_String_val@U?$_Simple_types@D@std@@@std@@@std@@Uword_end@detail@xpressive@boost@@U?$regex_traits@DU?$cpp_regex_traits@D@xpressive@boost@@@56@@detail@xpressive@boost@@YA?AU?$sequence@V?$_String_const_iterator@V?$_String_val@U?$_Simple_types@D@std@@@std@@@std@@@012@Uword_end@012@AEBU?$regex_traits@DU?$cpp_regex_traits@D@xpressive@boost@@@12@@Z 000000018002d000 f i GRBLdlg.obj
 0001:0002c090       ??$parse_escape@V?$_String_const_iterator@V?$_String_val@U?$_Simple_types@D@std@@@std@@@std@@@?$regex_compiler@V?$_String_const_iterator@V?$_String_val@U?$_Simple_types@D@std@@@std@@@std@@U?$regex_traits@DU?$cpp_regex_traits@D@xpressive@boost@@@xpressive@boost@@U?$compiler_traits@U?$regex_traits@DU?$cpp_regex_traits@D@xpressive@boost@@@xpressive@boost@@@45@@xpressive@boost@@AEAA?AU?$escape_value@DG@detail@12@AEAV?$_String_const_iterator@V?$_String_val@U?$_Simple_types@D@std@@@std@@@std@@V56@@Z 000000018002d090 f i GRBLdlg.obj
 0001:0002c260       ??$make_backref_xpression@V?$_String_const_iterator@V?$_String_val@U?$_Simple_types@D@std@@@std@@@std@@U?$regex_traits@DU?$cpp_regex_traits@D@xpressive@boost@@@xpressive@boost@@@detail@xpressive@boost@@YA?AU?$sequence@V?$_String_const_iterator@V?$_String_val@U?$_Simple_types@D@std@@@std@@@std@@@012@HW4syntax_option_type@regex_constants@12@AEBU?$regex_traits@DU?$cpp_regex_traits@D@xpressive@boost@@@12@@Z 000000018002d260 f i GRBLdlg.obj
 0001:0002c2a0       ??$make_char_xpression@V?$_String_const_iterator@V?$_String_val@U?$_Simple_types@D@std@@@std@@@std@@DU?$regex_traits@DU?$cpp_regex_traits@D@xpressive@boost@@@xpressive@boost@@@detail@xpressive@boost@@YA?AU?$sequence@V?$_String_const_iterator@V?$_String_val@U?$_Simple_types@D@std@@@std@@@std@@@012@DW4syntax_option_type@regex_constants@12@AEBU?$regex_traits@DU?$cpp_regex_traits@D@xpressive@boost@@@12@@Z 000000018002d2a0 f i GRBLdlg.obj
 0001:0002c300       ??$make_posix_charset_xpression@V?$_String_const_iterator@V?$_String_val@U?$_Simple_types@D@std@@@std@@@std@@U?$regex_traits@DU?$cpp_regex_traits@D@xpressive@boost@@@xpressive@boost@@@detail@xpressive@boost@@YA?AU?$sequence@V?$_String_const_iterator@V?$_String_val@U?$_Simple_types@D@std@@@std@@@std@@@012@G_NW4syntax_option_type@regex_constants@12@AEBU?$regex_traits@DU?$cpp_regex_traits@D@xpressive@boost@@@12@@Z 000000018002d300 f i GRBLdlg.obj
 0001:0002c330       ??$parse_group@V?$_String_const_iterator@V?$_String_val@U?$_Simple_types@D@std@@@std@@@std@@@?$regex_compiler@V?$_String_const_iterator@V?$_String_val@U?$_Simple_types@D@std@@@std@@@std@@U?$regex_traits@DU?$cpp_regex_traits@D@xpressive@boost@@@xpressive@boost@@U?$compiler_traits@U?$regex_traits@DU?$cpp_regex_traits@D@xpressive@boost@@@xpressive@boost@@@45@@xpressive@boost@@AEAA?AU?$sequence@V?$_String_const_iterator@V?$_String_val@U?$_Simple_types@D@std@@@std@@@std@@@detail@12@AEAV?$_String_const_iterator@V?$_String_val@U?$_Simple_types@D@std@@@std@@@std@@V56@@Z 000000018002d330 f i GRBLdlg.obj
 0001:0002d460       ??$parse_charset@V?$_String_const_iterator@V?$_String_val@U?$_Simple_types@D@std@@@std@@@std@@@?$regex_compiler@V?$_String_const_iterator@V?$_String_val@U?$_Simple_types@D@std@@@std@@@std@@U?$regex_traits@DU?$cpp_regex_traits@D@xpressive@boost@@@xpressive@boost@@U?$compiler_traits@U?$regex_traits@DU?$cpp_regex_traits@D@xpressive@boost@@@xpressive@boost@@@45@@xpressive@boost@@AEAA?AU?$sequence@V?$_String_const_iterator@V?$_String_val@U?$_Simple_types@D@std@@@std@@@std@@@detail@12@AEAV?$_String_const_iterator@V?$_String_val@U?$_Simple_types@D@std@@@std@@@std@@V56@@Z 000000018002e460 f i GRBLdlg.obj
 0001:0002d520       ??$parse_quote_meta@V?$_String_const_iterator@V?$_String_val@U?$_Simple_types@D@std@@@std@@@std@@@?$regex_compiler@V?$_String_const_iterator@V?$_String_val@U?$_Simple_types@D@std@@@std@@@std@@U?$regex_traits@DU?$cpp_regex_traits@D@xpressive@boost@@@xpressive@boost@@U?$compiler_traits@U?$regex_traits@DU?$cpp_regex_traits@D@xpressive@boost@@@xpressive@boost@@@45@@xpressive@boost@@AEAA?AV?$basic_string@DU?$char_traits@D@std@@V?$allocator@D@2@@std@@AEAV?$_String_const_iterator@V?$_String_val@U?$_Simple_types@D@std@@@std@@@4@V54@@Z 000000018002e520 f i GRBLdlg.obj
 0001:0002d6e0       ??$toi@V?$_String_const_iterator@V?$_String_val@U?$_Simple_types@D@std@@@std@@@std@@U?$regex_traits@DU?$cpp_regex_traits@D@xpressive@boost@@@xpressive@boost@@@detail@xpressive@boost@@YAHAEAV?$_String_const_iterator@V?$_String_val@U?$_Simple_types@D@std@@@std@@@std@@V34@AEBU?$regex_traits@DU?$cpp_regex_traits@D@xpressive@boost@@@12@HH@Z 000000018002e6e0 f i GRBLdlg.obj
 0001:0002d750       ??$_Insert_at@AEAU?$pair@$$CBV?$basic_string@DU?$char_traits@D@std@@V?$allocator@D@2@@std@@U?$basic_regex@V?$_String_const_iterator@V?$_String_val@U?$_Simple_types@D@std@@@std@@@std@@@xpressive@boost@@@std@@PEAU?$_Tree_node@U?$pair@$$CBV?$basic_string@DU?$char_traits@D@std@@V?$allocator@D@2@@std@@U?$basic_regex@V?$_String_const_iterator@V?$_String_val@U?$_Simple_types@D@std@@@std@@@std@@@xpressive@boost@@@std@@PEAX@2@@?$_Tree@V?$_Tmap_traits@V?$basic_string@DU?$char_traits@D@std@@V?$allocator@D@2@@std@@U?$basic_regex@V?$_String_const_iterator@V?$_String_val@U?$_Simple_types@D@std@@@std@@@std@@@xpressive@boost@@U?$less@V?$basic_string@DU?$char_traits@D@std@@V?$allocator@D@2@@std@@@2@V?$allocator@U?$pair@$$CBV?$basic_string@DU?$char_traits@D@std@@V?$allocator@D@2@@std@@U?$basic_regex@V?$_String_const_iterator@V?$_String_val@U?$_Simple_types@D@std@@@std@@@std@@@xpressive@boost@@@std@@@2@$0A@@std@@@std@@IEAA?AV?$_Tree_iterator@V?$_Tree_val@U?$_Tree_simple_types@U?$pair@$$CBV?$basic_string@DU?$char_traits@D@std@@V?$allocator@D@2@@std@@U?$basic_regex@V?$_String_const_iterator@V?$_String_val@U?$_Simple_types@D@std@@@std@@@std@@@xpressive@boost@@@std@@@std@@@std@@@1@_NPEAU?$_Tree_node@U?$pair@$$CBV?$basic_string@DU?$char_traits@D@std@@V?$allocator@D@2@@std@@U?$basic_regex@V?$_String_const_iterator@V?$_String_val@U?$_Simple_types@D@std@@@std@@@std@@@xpressive@boost@@@std@@PEAX@1@AEAU?$pair@$$CBV?$basic_string@DU?$char_traits@D@std@@V?$allocator@D@2@@std@@U?$basic_regex@V?$_String_const_iterator@V?$_String_val@U?$_Simple_types@D@std@@@std@@@std@@@xpressive@boost@@@1@1@Z 000000018002e750 f i GRBLdlg.obj
 0001:0002da20       ??$_Insert_nohint@AEAU?$pair@$$CBV?$basic_string@DU?$char_traits@D@std@@V?$allocator@D@2@@std@@U?$basic_regex@V?$_String_const_iterator@V?$_String_val@U?$_Simple_types@D@std@@@std@@@std@@@xpressive@boost@@@std@@PEAU?$_Tree_node@U?$pair@$$CBV?$basic_string@DU?$char_traits@D@std@@V?$allocator@D@2@@std@@U?$basic_regex@V?$_String_const_iterator@V?$_String_val@U?$_Simple_types@D@std@@@std@@@std@@@xpressive@boost@@@std@@PEAX@2@@?$_Tree@V?$_Tmap_traits@V?$basic_string@DU?$char_traits@D@std@@V?$allocator@D@2@@std@@U?$basic_regex@V?$_String_const_iterator@V?$_String_val@U?$_Simple_types@D@std@@@std@@@std@@@xpressive@boost@@U?$less@V?$basic_string@DU?$char_traits@D@std@@V?$allocator@D@2@@std@@@2@V?$allocator@U?$pair@$$CBV?$basic_string@DU?$char_traits@D@std@@V?$allocator@D@2@@std@@U?$basic_regex@V?$_String_const_iterator@V?$_String_val@U?$_Simple_types@D@std@@@std@@@std@@@xpressive@boost@@@std@@@2@$0A@@std@@@std@@IEAA?AU?$pair@V?$_Tree_iterator@V?$_Tree_val@U?$_Tree_simple_types@U?$pair@$$CBV?$basic_string@DU?$char_traits@D@std@@V?$allocator@D@2@@std@@U?$basic_regex@V?$_String_const_iterator@V?$_String_val@U?$_Simple_types@D@std@@@std@@@std@@@xpressive@boost@@@std@@@std@@@std@@@std@@_N@1@_NAEAU?$pair@$$CBV?$basic_string@DU?$char_traits@D@std@@V?$allocator@D@2@@std@@U?$basic_regex@V?$_String_const_iterator@V?$_String_val@U?$_Simple_types@D@std@@@std@@@std@@@xpressive@boost@@@1@PEAU?$_Tree_node@U?$pair@$$CBV?$basic_string@DU?$char_traits@D@std@@V?$allocator@D@2@@std@@U?$basic_regex@V?$_String_const_iterator@V?$_String_val@U?$_Simple_types@D@std@@@std@@@std@@@xpressive@boost@@@std@@PEAX@1@@Z 000000018002ea20 f i GRBLdlg.obj
 0001:0002dc20       ??$_Uninitialized_copy_al_unchecked1@PEBU?$shared_matchable@V?$_String_const_iterator@V?$_String_val@U?$_Simple_types@D@std@@@std@@@std@@@detail@xpressive@boost@@PEAU1234@V?$allocator@U?$shared_matchable@V?$_String_const_iterator@V?$_String_val@U?$_Simple_types@D@std@@@std@@@std@@@detail@xpressive@boost@@@std@@@std@@YAPEAU?$shared_matchable@V?$_String_const_iterator@V?$_String_val@U?$_Simple_types@D@std@@@std@@@std@@@detail@xpressive@boost@@PEBU1234@0PEAU1234@AEAU?$_Wrap_alloc@V?$allocator@U?$shared_matchable@V?$_String_const_iterator@V?$_String_val@U?$_Simple_types@D@std@@@std@@@std@@@detail@xpressive@boost@@@std@@@0@U_General_ptr_iterator_tag@0@U_Any_tag@0@@Z 000000018002ec20 f i GRBLdlg.obj
 0001:0002dc70       ??$_Uninitialized_move_al_unchecked1@PEAU?$shared_matchable@V?$_String_const_iterator@V?$_String_val@U?$_Simple_types@D@std@@@std@@@std@@@detail@xpressive@boost@@PEAU1234@V?$allocator@U?$shared_matchable@V?$_String_const_iterator@V?$_String_val@U?$_Simple_types@D@std@@@std@@@std@@@detail@xpressive@boost@@@std@@@std@@YAPEAU?$shared_matchable@V?$_String_const_iterator@V?$_String_val@U?$_Simple_types@D@std@@@std@@@std@@@detail@xpressive@boost@@PEAU1234@00AEAU?$_Wrap_alloc@V?$allocator@U?$shared_matchable@V?$_String_const_iterator@V?$_String_val@U?$_Simple_types@D@std@@@std@@@std@@@detail@xpressive@boost@@@std@@@0@U_General_ptr_iterator_tag@0@U_Any_tag@0@@Z 000000018002ec70 f i GRBLdlg.obj
 0001:0002dca0       ??$match_@V?$_String_const_iterator@V?$_String_val@U?$_Simple_types@D@std@@@std@@@std@@U?$matchable_ex@V?$_String_const_iterator@V?$_String_val@U?$_Simple_types@D@std@@@std@@@std@@@detail@xpressive@boost@@@?$simple_repeat_matcher@U?$shared_matchable@V?$_String_const_iterator@V?$_String_val@U?$_Simple_types@D@std@@@std@@@std@@@detail@xpressive@boost@@U?$bool_@$0A@@mpl@4@@detail@xpressive@boost@@QEBA_NAEAU?$match_state@V?$_String_const_iterator@V?$_String_val@U?$_Simple_types@D@std@@@std@@@std@@@123@AEBU?$matchable_ex@V?$_String_const_iterator@V?$_String_val@U?$_Simple_types@D@std@@@std@@@std@@@123@Unon_greedy_tag@123@@Z 000000018002eca0 f i GRBLdlg.obj
 0001:0002dd30       ??$match_@V?$_String_const_iterator@V?$_String_val@U?$_Simple_types@D@std@@@std@@@std@@U?$matchable_ex@V?$_String_const_iterator@V?$_String_val@U?$_Simple_types@D@std@@@std@@@std@@@detail@xpressive@boost@@@?$simple_repeat_matcher@U?$shared_matchable@V?$_String_const_iterator@V?$_String_val@U?$_Simple_types@D@std@@@std@@@std@@@detail@xpressive@boost@@U?$bool_@$00@mpl@4@@detail@xpressive@boost@@QEBA_NAEAU?$match_state@V?$_String_const_iterator@V?$_String_val@U?$_Simple_types@D@std@@@std@@@std@@@123@AEBU?$matchable_ex@V?$_String_const_iterator@V?$_String_val@U?$_Simple_types@D@std@@@std@@@std@@@123@Ugreedy_slow_tag@123@@Z 000000018002ed30 f i GRBLdlg.obj
 0001:0002de10       ??1?$matcher_wrapper@U?$charset_matcher@U?$regex_traits@DU?$cpp_regex_traits@D@xpressive@boost@@@xpressive@boost@@U?$bool_@$0A@@mpl@3@U?$compound_charset@U?$regex_traits@DU?$cpp_regex_traits@D@xpressive@boost@@@xpressive@boost@@@detail@23@@detail@xpressive@boost@@@detail@xpressive@boost@@QEAA@XZ 000000018002ee10 f i GRBLdlg.obj
 0001:0002de10       ??1?$compound_charset@U?$regex_traits@DU?$cpp_regex_traits@D@xpressive@boost@@@xpressive@boost@@@detail@xpressive@boost@@QEAA@XZ 000000018002ee10 f i GRBLdlg.obj
 0001:0002de10       ??1?$matcher_wrapper@U?$charset_matcher@U?$regex_traits@DU?$cpp_regex_traits@D@xpressive@boost@@@xpressive@boost@@U?$bool_@$00@mpl@3@U?$compound_charset@U?$regex_traits@DU?$cpp_regex_traits@D@xpressive@boost@@@xpressive@boost@@@detail@23@@detail@xpressive@boost@@@detail@xpressive@boost@@QEAA@XZ 000000018002ee10 f i GRBLdlg.obj
 0001:0002de10       ??1?$simple_repeat_matcher@U?$matcher_wrapper@U?$charset_matcher@U?$regex_traits@DU?$cpp_regex_traits@D@xpressive@boost@@@xpressive@boost@@U?$bool_@$0A@@mpl@3@U?$compound_charset@U?$regex_traits@DU?$cpp_regex_traits@D@xpressive@boost@@@xpressive@boost@@@detail@23@@detail@xpressive@boost@@@detail@xpressive@boost@@U?$bool_@$0A@@mpl@4@@detail@xpressive@boost@@QEAA@XZ 000000018002ee10 f i GRBLdlg.obj
 0001:0002de10       ??1?$simple_repeat_matcher@U?$matcher_wrapper@U?$charset_matcher@U?$regex_traits@DU?$cpp_regex_traits@D@xpressive@boost@@@xpressive@boost@@U?$bool_@$0A@@mpl@3@U?$compound_charset@U?$regex_traits@DU?$cpp_regex_traits@D@xpressive@boost@@@xpressive@boost@@@detail@23@@detail@xpressive@boost@@@detail@xpressive@boost@@U?$bool_@$00@mpl@4@@detail@xpressive@boost@@QEAA@XZ 000000018002ee10 f i GRBLdlg.obj
 0001:0002de10       ??1?$simple_repeat_matcher@U?$matcher_wrapper@U?$charset_matcher@U?$regex_traits@DU?$cpp_regex_traits@D@xpressive@boost@@@xpressive@boost@@U?$bool_@$00@mpl@3@U?$compound_charset@U?$regex_traits@DU?$cpp_regex_traits@D@xpressive@boost@@@xpressive@boost@@@detail@23@@detail@xpressive@boost@@@detail@xpressive@boost@@U?$bool_@$00@mpl@4@@detail@xpressive@boost@@QEAA@XZ 000000018002ee10 f i GRBLdlg.obj
 0001:0002de10       ??1?$charset_matcher@U?$regex_traits@DU?$cpp_regex_traits@D@xpressive@boost@@@xpressive@boost@@U?$bool_@$00@mpl@3@U?$compound_charset@U?$regex_traits@DU?$cpp_regex_traits@D@xpressive@boost@@@xpressive@boost@@@detail@23@@detail@xpressive@boost@@QEAA@XZ 000000018002ee10 f i GRBLdlg.obj
 0001:0002de10       ??1?$simple_repeat_matcher@U?$matcher_wrapper@U?$charset_matcher@U?$regex_traits@DU?$cpp_regex_traits@D@xpressive@boost@@@xpressive@boost@@U?$bool_@$00@mpl@3@U?$compound_charset@U?$regex_traits@DU?$cpp_regex_traits@D@xpressive@boost@@@xpressive@boost@@@detail@23@@detail@xpressive@boost@@@detail@xpressive@boost@@U?$bool_@$0A@@mpl@4@@detail@xpressive@boost@@QEAA@XZ 000000018002ee10 f i GRBLdlg.obj
 0001:0002de10       ??1?$charset_matcher@U?$regex_traits@DU?$cpp_regex_traits@D@xpressive@boost@@@xpressive@boost@@U?$bool_@$0A@@mpl@3@U?$compound_charset@U?$regex_traits@DU?$cpp_regex_traits@D@xpressive@boost@@@xpressive@boost@@@detail@23@@detail@xpressive@boost@@QEAA@XZ 000000018002ee10 f i GRBLdlg.obj
 0001:0002de50       ??0?$lookbehind_matcher@U?$shared_matchable@V?$_String_const_iterator@V?$_String_val@U?$_Simple_types@D@std@@@std@@@std@@@detail@xpressive@boost@@@detail@xpressive@boost@@QEAA@AEBU?$shared_matchable@V?$_String_const_iterator@V?$_String_val@U?$_Simple_types@D@std@@@std@@@std@@@123@_K_N2@Z 000000018002ee50 f i GRBLdlg.obj
 0001:0002df80       ?repeat@?$dynamic_xpression@Uassert_eos_matcher@detail@xpressive@boost@@V?$_String_const_iterator@V?$_String_val@U?$_Simple_types@D@std@@@std@@@std@@@detail@xpressive@boost@@UEBAXAEBUquant_spec@234@AEAU?$sequence@V?$_String_const_iterator@V?$_String_val@U?$_Simple_types@D@std@@@std@@@std@@@234@@Z 000000018002ef80 f i GRBLdlg.obj
 0001:0002df90       ?match@?$dynamic_xpression@Uassert_eos_matcher@detail@xpressive@boost@@V?$_String_const_iterator@V?$_String_val@U?$_Simple_types@D@std@@@std@@@std@@@detail@xpressive@boost@@UEBA_NAEAU?$match_state@V?$_String_const_iterator@V?$_String_val@U?$_Simple_types@D@std@@@std@@@std@@@234@@Z 000000018002ef90 f i GRBLdlg.obj
 0001:0002dfc0       ?repeat@?$dynamic_xpression@Uassert_bos_matcher@detail@xpressive@boost@@V?$_String_const_iterator@V?$_String_val@U?$_Simple_types@D@std@@@std@@@std@@@detail@xpressive@boost@@UEBAXAEBUquant_spec@234@AEAU?$sequence@V?$_String_const_iterator@V?$_String_val@U?$_Simple_types@D@std@@@std@@@std@@@234@@Z 000000018002efc0 f i GRBLdlg.obj
 0001:0002dfd0       ?match@?$dynamic_xpression@Uassert_bos_matcher@detail@xpressive@boost@@V?$_String_const_iterator@V?$_String_val@U?$_Simple_types@D@std@@@std@@@std@@@detail@xpressive@boost@@UEBA_NAEAU?$match_state@V?$_String_const_iterator@V?$_String_val@U?$_Simple_types@D@std@@@std@@@std@@@234@@Z 000000018002efd0 f i GRBLdlg.obj
 0001:0002e000       ??0?$string_matcher@U?$regex_traits@DU?$cpp_regex_traits@D@xpressive@boost@@@xpressive@boost@@U?$bool_@$00@mpl@3@@detail@xpressive@boost@@QEAA@AEBV?$basic_string@DU?$char_traits@D@std@@V?$allocator@D@2@@std@@AEBU?$regex_traits@DU?$cpp_regex_traits@D@xpressive@boost@@@23@@Z 000000018002f000 f i GRBLdlg.obj
 0001:0002e0d0       ?push_back@?$vector@U?$named_mark@D@detail@xpressive@boost@@V?$allocator@U?$named_mark@D@detail@xpressive@boost@@@std@@@std@@QEAAX$$QEAU?$named_mark@D@detail@xpressive@boost@@@Z 000000018002f0d0 f i GRBLdlg.obj
 0001:0002e1c0       ?repeat_@?$dynamic_xpression@Uassert_eos_matcher@detail@xpressive@boost@@V?$_String_const_iterator@V?$_String_val@U?$_Simple_types@D@std@@@std@@@std@@@detail@xpressive@boost@@AEBAXAEBUquant_spec@234@AEAU?$sequence@V?$_String_const_iterator@V?$_String_val@U?$_Simple_types@D@std@@@std@@@std@@@234@U?$int_@$0A@@mpl@4@U?$bool_@$0A@@84@@Z 000000018002f1c0 f i GRBLdlg.obj
 0001:0002e300       ?repeat_@?$dynamic_xpression@Uassert_bos_matcher@detail@xpressive@boost@@V?$_String_const_iterator@V?$_String_val@U?$_Simple_types@D@std@@@std@@@std@@@detail@xpressive@boost@@AEBAXAEBUquant_spec@234@AEAU?$sequence@V?$_String_const_iterator@V?$_String_val@U?$_Simple_types@D@std@@@std@@@std@@@234@U?$int_@$0A@@mpl@4@U?$bool_@$0A@@84@@Z 000000018002f300 f i GRBLdlg.obj
 0001:0002e440       ?_Reserve@?$vector@U?$named_mark@D@detail@xpressive@boost@@V?$allocator@U?$named_mark@D@detail@xpressive@boost@@@std@@@std@@IEAAX_K@Z 000000018002f440 f i GRBLdlg.obj
 0001:0002e510       ?deallocate@?$_Wrap_alloc@V?$allocator@G@std@@@std@@QEAAXPEAG_K@Z 000000018002f510 f i GRBLdlg.obj
 0001:0002e580       ?_Reallocate@?$vector@U?$named_mark@D@detail@xpressive@boost@@V?$allocator@U?$named_mark@D@detail@xpressive@boost@@@std@@@std@@IEAAX_K@Z 000000018002f580 f i GRBLdlg.obj
 0001:0002e660       ??$make_dynamic@V?$_String_const_iterator@V?$_String_val@U?$_Simple_types@D@std@@@std@@@std@@U?$string_matcher@U?$regex_traits@DU?$cpp_regex_traits@D@xpressive@boost@@@xpressive@boost@@U?$bool_@$00@mpl@3@@detail@xpressive@boost@@@detail@xpressive@boost@@YA?AU?$sequence@V?$_String_const_iterator@V?$_String_val@U?$_Simple_types@D@std@@@std@@@std@@@012@AEBU?$string_matcher@U?$regex_traits@DU?$cpp_regex_traits@D@xpressive@boost@@@xpressive@boost@@U?$bool_@$00@mpl@3@@012@@Z 000000018002f660 f i GRBLdlg.obj
 0001:0002e7e0       ??$make_dynamic@V?$_String_const_iterator@V?$_String_val@U?$_Simple_types@D@std@@@std@@@std@@U?$string_matcher@U?$regex_traits@DU?$cpp_regex_traits@D@xpressive@boost@@@xpressive@boost@@U?$bool_@$0A@@mpl@3@@detail@xpressive@boost@@@detail@xpressive@boost@@YA?AU?$sequence@V?$_String_const_iterator@V?$_String_val@U?$_Simple_types@D@std@@@std@@@std@@@012@AEBU?$string_matcher@U?$regex_traits@DU?$cpp_regex_traits@D@xpressive@boost@@@xpressive@boost@@U?$bool_@$0A@@mpl@3@@012@@Z 000000018002f7e0 f i GRBLdlg.obj
 0001:0002e960       ??$make_dynamic@V?$_String_const_iterator@V?$_String_val@U?$_Simple_types@D@std@@@std@@@std@@U?$literal_matcher@U?$regex_traits@DU?$cpp_regex_traits@D@xpressive@boost@@@xpressive@boost@@U?$bool_@$0A@@mpl@3@U?$bool_@$00@53@@detail@xpressive@boost@@@detail@xpressive@boost@@YA?AU?$sequence@V?$_String_const_iterator@V?$_String_val@U?$_Simple_types@D@std@@@std@@@std@@@012@AEBU?$literal_matcher@U?$regex_traits@DU?$cpp_regex_traits@D@xpressive@boost@@@xpressive@boost@@U?$bool_@$0A@@mpl@3@U?$bool_@$00@53@@012@@Z 000000018002f960 f i GRBLdlg.obj
 0001:0002eaa0       ??$make_dynamic@V?$_String_const_iterator@V?$_String_val@U?$_Simple_types@D@std@@@std@@@std@@U?$set_matcher@U?$regex_traits@DU?$cpp_regex_traits@D@xpressive@boost@@@xpressive@boost@@U?$int_@$01@mpl@3@@detail@xpressive@boost@@@detail@xpressive@boost@@YA?AU?$sequence@V?$_String_const_iterator@V?$_String_val@U?$_Simple_types@D@std@@@std@@@std@@@012@AEBU?$set_matcher@U?$regex_traits@DU?$cpp_regex_traits@D@xpressive@boost@@@xpressive@boost@@U?$int_@$01@mpl@3@@012@@Z 000000018002faa0 f i GRBLdlg.obj
 0001:0002ebe0       ??$make_dynamic@V?$_String_const_iterator@V?$_String_val@U?$_Simple_types@D@std@@@std@@@std@@Uany_matcher@detail@xpressive@boost@@@detail@xpressive@boost@@YA?AU?$sequence@V?$_String_const_iterator@V?$_String_val@U?$_Simple_types@D@std@@@std@@@std@@@012@AEBUany_matcher@012@@Z 000000018002fbe0 f i GRBLdlg.obj
 0001:0002ed10       ??$make_dynamic@V?$_String_const_iterator@V?$_String_val@U?$_Simple_types@D@std@@@std@@@std@@U?$assert_bol_matcher@U?$regex_traits@DU?$cpp_regex_traits@D@xpressive@boost@@@xpressive@boost@@@detail@xpressive@boost@@@detail@xpressive@boost@@YA?AU?$sequence@V?$_String_const_iterator@V?$_String_val@U?$_Simple_types@D@std@@@std@@@std@@@012@AEBU?$assert_bol_matcher@U?$regex_traits@DU?$cpp_regex_traits@D@xpressive@boost@@@xpressive@boost@@@012@@Z 000000018002fd10 f i GRBLdlg.obj
 0001:0002ee40       ??$make_dynamic@V?$_String_const_iterator@V?$_String_val@U?$_Simple_types@D@std@@@std@@@std@@U?$assert_eol_matcher@U?$regex_traits@DU?$cpp_regex_traits@D@xpressive@boost@@@xpressive@boost@@@detail@xpressive@boost@@@detail@xpressive@boost@@YA?AU?$sequence@V?$_String_const_iterator@V?$_String_val@U?$_Simple_types@D@std@@@std@@@std@@@012@AEBU?$assert_eol_matcher@U?$regex_traits@DU?$cpp_regex_traits@D@xpressive@boost@@@xpressive@boost@@@012@@Z 000000018002fe40 f i GRBLdlg.obj
 0001:0002ef70       ??$make_dynamic@V?$_String_const_iterator@V?$_String_val@U?$_Simple_types@D@std@@@std@@@std@@U?$assert_word_matcher@U?$word_boundary@U?$bool_@$00@mpl@boost@@@detail@xpressive@boost@@U?$regex_traits@DU?$cpp_regex_traits@D@xpressive@boost@@@34@@detail@xpressive@boost@@@detail@xpressive@boost@@YA?AU?$sequence@V?$_String_const_iterator@V?$_String_val@U?$_Simple_types@D@std@@@std@@@std@@@012@AEBU?$assert_word_matcher@U?$word_boundary@U?$bool_@$00@mpl@boost@@@detail@xpressive@boost@@U?$regex_traits@DU?$cpp_regex_traits@D@xpressive@boost@@@34@@012@@Z 000000018002ff70 f i GRBLdlg.obj
 0001:0002f0a0       ??$make_dynamic@V?$_String_const_iterator@V?$_String_val@U?$_Simple_types@D@std@@@std@@@std@@U?$assert_word_matcher@U?$word_boundary@U?$bool_@$0A@@mpl@boost@@@detail@xpressive@boost@@U?$regex_traits@DU?$cpp_regex_traits@D@xpressive@boost@@@34@@detail@xpressive@boost@@@detail@xpressive@boost@@YA?AU?$sequence@V?$_String_const_iterator@V?$_String_val@U?$_Simple_types@D@std@@@std@@@std@@@012@AEBU?$assert_word_matcher@U?$word_boundary@U?$bool_@$0A@@mpl@boost@@@detail@xpressive@boost@@U?$regex_traits@DU?$cpp_regex_traits@D@xpressive@boost@@@34@@012@@Z 00000001800300a0 f i GRBLdlg.obj
 0001:0002f1d0       ??$make_dynamic@V?$_String_const_iterator@V?$_String_val@U?$_Simple_types@D@std@@@std@@@std@@U?$assert_word_matcher@Uword_begin@detail@xpressive@boost@@U?$regex_traits@DU?$cpp_regex_traits@D@xpressive@boost@@@34@@detail@xpressive@boost@@@detail@xpressive@boost@@YA?AU?$sequence@V?$_String_const_iterator@V?$_String_val@U?$_Simple_types@D@std@@@std@@@std@@@012@AEBU?$assert_word_matcher@Uword_begin@detail@xpressive@boost@@U?$regex_traits@DU?$cpp_regex_traits@D@xpressive@boost@@@34@@012@@Z 00000001800301d0 f i GRBLdlg.obj
 0001:0002f300       ??$make_dynamic@V?$_String_const_iterator@V?$_String_val@U?$_Simple_types@D@std@@@std@@@std@@U?$assert_word_matcher@Uword_end@detail@xpressive@boost@@U?$regex_traits@DU?$cpp_regex_traits@D@xpressive@boost@@@34@@detail@xpressive@boost@@@detail@xpressive@boost@@YA?AU?$sequence@V?$_String_const_iterator@V?$_String_val@U?$_Simple_types@D@std@@@std@@@std@@@012@AEBU?$assert_word_matcher@Uword_end@detail@xpressive@boost@@U?$regex_traits@DU?$cpp_regex_traits@D@xpressive@boost@@@34@@012@@Z 0000000180030300 f i GRBLdlg.obj
 0001:0002f430       ??$parse_escape@V?$_String_const_iterator@V?$_String_val@U?$_Simple_types@D@std@@@std@@@std@@U?$compiler_traits@U?$regex_traits@DU?$cpp_regex_traits@D@xpressive@boost@@@xpressive@boost@@@xpressive@boost@@@detail@xpressive@boost@@YA?AU?$escape_value@DG@012@AEAV?$_String_const_iterator@V?$_String_val@U?$_Simple_types@D@std@@@std@@@std@@V45@AEAU?$compiler_traits@U?$regex_traits@DU?$cpp_regex_traits@D@xpressive@boost@@@xpressive@boost@@@12@@Z 0000000180030430 f i GRBLdlg.obj
 0001:0002f9a0       ??$make_dynamic@V?$_String_const_iterator@V?$_String_val@U?$_Simple_types@D@std@@@std@@@std@@U?$mark_matcher@U?$regex_traits@DU?$cpp_regex_traits@D@xpressive@boost@@@xpressive@boost@@U?$bool_@$00@mpl@3@@detail@xpressive@boost@@@detail@xpressive@boost@@YA?AU?$sequence@V?$_String_const_iterator@V?$_String_val@U?$_Simple_types@D@std@@@std@@@std@@@012@AEBU?$mark_matcher@U?$regex_traits@DU?$cpp_regex_traits@D@xpressive@boost@@@xpressive@boost@@U?$bool_@$00@mpl@3@@012@@Z 00000001800309a0 f i GRBLdlg.obj
 0001:0002fae0       ??$make_dynamic@V?$_String_const_iterator@V?$_String_val@U?$_Simple_types@D@std@@@std@@@std@@U?$mark_matcher@U?$regex_traits@DU?$cpp_regex_traits@D@xpressive@boost@@@xpressive@boost@@U?$bool_@$0A@@mpl@3@@detail@xpressive@boost@@@detail@xpressive@boost@@YA?AU?$sequence@V?$_String_const_iterator@V?$_String_val@U?$_Simple_types@D@std@@@std@@@std@@@012@AEBU?$mark_matcher@U?$regex_traits@DU?$cpp_regex_traits@D@xpressive@boost@@@xpressive@boost@@U?$bool_@$0A@@mpl@3@@012@@Z 0000000180030ae0 f i GRBLdlg.obj
 0001:0002fc20       ??$make_dynamic@V?$_String_const_iterator@V?$_String_val@U?$_Simple_types@D@std@@@std@@@std@@U?$literal_matcher@U?$regex_traits@DU?$cpp_regex_traits@D@xpressive@boost@@@xpressive@boost@@U?$bool_@$00@mpl@3@U?$bool_@$0A@@53@@detail@xpressive@boost@@@detail@xpressive@boost@@YA?AU?$sequence@V?$_String_const_iterator@V?$_String_val@U?$_Simple_types@D@std@@@std@@@std@@@012@AEBU?$literal_matcher@U?$regex_traits@DU?$cpp_regex_traits@D@xpressive@boost@@@xpressive@boost@@U?$bool_@$00@mpl@3@U?$bool_@$0A@@53@@012@@Z 0000000180030c20 f i GRBLdlg.obj
 0001:0002fd60       ??$make_dynamic@V?$_String_const_iterator@V?$_String_val@U?$_Simple_types@D@std@@@std@@@std@@U?$literal_matcher@U?$regex_traits@DU?$cpp_regex_traits@D@xpressive@boost@@@xpressive@boost@@U?$bool_@$0A@@mpl@3@U453@@detail@xpressive@boost@@@detail@xpressive@boost@@YA?AU?$sequence@V?$_String_const_iterator@V?$_String_val@U?$_Simple_types@D@std@@@std@@@std@@@012@AEBU?$literal_matcher@U?$regex_traits@DU?$cpp_regex_traits@D@xpressive@boost@@@xpressive@boost@@U?$bool_@$0A@@mpl@3@U453@@012@@Z 0000000180030d60 f i GRBLdlg.obj
 0001:0002fea0       ??$make_dynamic@V?$_String_const_iterator@V?$_String_val@U?$_Simple_types@D@std@@@std@@@std@@U?$posix_charset_matcher@U?$regex_traits@DU?$cpp_regex_traits@D@xpressive@boost@@@xpressive@boost@@@detail@xpressive@boost@@@detail@xpressive@boost@@YA?AU?$sequence@V?$_String_const_iterator@V?$_String_val@U?$_Simple_types@D@std@@@std@@@std@@@012@AEBU?$posix_charset_matcher@U?$regex_traits@DU?$cpp_regex_traits@D@xpressive@boost@@@xpressive@boost@@@012@@Z 0000000180030ea0 f i GRBLdlg.obj
 0001:0002ffe0       ??$make_dynamic@V?$_String_const_iterator@V?$_String_val@U?$_Simple_types@D@std@@@std@@@std@@U?$regex_byref_matcher@V?$_String_const_iterator@V?$_String_val@U?$_Simple_types@D@std@@@std@@@std@@@detail@xpressive@boost@@@detail@xpressive@boost@@YA?AU?$sequence@V?$_String_const_iterator@V?$_String_val@U?$_Simple_types@D@std@@@std@@@std@@@012@AEBU?$regex_byref_matcher@V?$_String_const_iterator@V?$_String_val@U?$_Simple_types@D@std@@@std@@@std@@@012@@Z 0000000180030fe0 f i GRBLdlg.obj
 0001:000300e0       ??$make_independent_end_xpression@V?$_String_const_iterator@V?$_String_val@U?$_Simple_types@D@std@@@std@@@std@@@detail@xpressive@boost@@YA?AU?$sequence@V?$_String_const_iterator@V?$_String_val@U?$_Simple_types@D@std@@@std@@@std@@@012@_N@Z 00000001800310e0 f i GRBLdlg.obj
 0001:00030120       ??$make_dynamic@V?$_String_const_iterator@V?$_String_val@U?$_Simple_types@D@std@@@std@@@std@@U?$lookahead_matcher@U?$shared_matchable@V?$_String_const_iterator@V?$_String_val@U?$_Simple_types@D@std@@@std@@@std@@@detail@xpressive@boost@@@detail@xpressive@boost@@@detail@xpressive@boost@@YA?AU?$sequence@V?$_String_const_iterator@V?$_String_val@U?$_Simple_types@D@std@@@std@@@std@@@012@AEBU?$lookahead_matcher@U?$shared_matchable@V?$_String_const_iterator@V?$_String_val@U?$_Simple_types@D@std@@@std@@@std@@@detail@xpressive@boost@@@012@@Z 0000000180031120 f i GRBLdlg.obj
 0001:00030280       ??$make_dynamic@V?$_String_const_iterator@V?$_String_val@U?$_Simple_types@D@std@@@std@@@std@@U?$lookbehind_matcher@U?$shared_matchable@V?$_String_const_iterator@V?$_String_val@U?$_Simple_types@D@std@@@std@@@std@@@detail@xpressive@boost@@@detail@xpressive@boost@@@detail@xpressive@boost@@YA?AU?$sequence@V?$_String_const_iterator@V?$_String_val@U?$_Simple_types@D@std@@@std@@@std@@@012@AEBU?$lookbehind_matcher@U?$shared_matchable@V?$_String_const_iterator@V?$_String_val@U?$_Simple_types@D@std@@@std@@@std@@@detail@xpressive@boost@@@012@@Z 0000000180031280 f i GRBLdlg.obj
 0001:000303e0       ??$make_dynamic@V?$_String_const_iterator@V?$_String_val@U?$_Simple_types@D@std@@@std@@@std@@U?$keeper_matcher@U?$shared_matchable@V?$_String_const_iterator@V?$_String_val@U?$_Simple_types@D@std@@@std@@@std@@@detail@xpressive@boost@@@detail@xpressive@boost@@@detail@xpressive@boost@@YA?AU?$sequence@V?$_String_const_iterator@V?$_String_val@U?$_Simple_types@D@std@@@std@@@std@@@012@AEBU?$keeper_matcher@U?$shared_matchable@V?$_String_const_iterator@V?$_String_val@U?$_Simple_types@D@std@@@std@@@std@@@detail@xpressive@boost@@@012@@Z 00000001800313e0 f i GRBLdlg.obj
 0001:00030540       ??$parse_charset@V?$_String_const_iterator@V?$_String_val@U?$_Simple_types@D@std@@@std@@@std@@U?$regex_traits@DU?$cpp_regex_traits@D@xpressive@boost@@@xpressive@boost@@U?$compiler_traits@U?$regex_traits@DU?$cpp_regex_traits@D@xpressive@boost@@@xpressive@boost@@@45@@detail@xpressive@boost@@YAXAEAV?$_String_const_iterator@V?$_String_val@U?$_Simple_types@D@std@@@std@@@std@@V34@AEAU?$compound_charset@U?$regex_traits@DU?$cpp_regex_traits@D@xpressive@boost@@@xpressive@boost@@@012@AEAU?$compiler_traits@U?$regex_traits@DU?$cpp_regex_traits@D@xpressive@boost@@@xpressive@boost@@@12@@Z 0000000180031540 f i GRBLdlg.obj
 0001:000310b0       ??$make_charset_xpression@V?$_String_const_iterator@V?$_String_val@U?$_Simple_types@D@std@@@std@@@std@@U?$regex_traits@DU?$cpp_regex_traits@D@xpressive@boost@@@xpressive@boost@@@detail@xpressive@boost@@YA?AU?$sequence@V?$_String_const_iterator@V?$_String_val@U?$_Simple_types@D@std@@@std@@@std@@@012@AEAU?$compound_charset@U?$regex_traits@DU?$cpp_regex_traits@D@xpressive@boost@@@xpressive@boost@@@012@AEBU?$regex_traits@DU?$cpp_regex_traits@D@xpressive@boost@@@12@W4syntax_option_type@regex_constants@12@@Z 00000001800320b0 f i GRBLdlg.obj
 0001:00031210       ??$_Uninitialized_move_al_unchecked1@PEAV?$basic_string@DU?$char_traits@D@std@@V?$allocator@D@2@@std@@PEAV12@V?$allocator@V?$basic_string@DU?$char_traits@D@std@@V?$allocator@D@2@@std@@@2@@std@@YAPEAV?$basic_string@DU?$char_traits@D@std@@V?$allocator@D@2@@0@PEAV10@00AEAU?$_Wrap_alloc@V?$allocator@V?$basic_string@DU?$char_traits@D@std@@V?$allocator@D@2@@std@@@std@@@0@U_General_ptr_iterator_tag@0@U_Any_tag@0@@Z 0000000180032210 f i GRBLdlg.obj
 0001:00031280       ?peek@?$dynamic_xpression@U?$keeper_matcher@U?$shared_matchable@V?$_String_const_iterator@V?$_String_val@U?$_Simple_types@D@std@@@std@@@std@@@detail@xpressive@boost@@@detail@xpressive@boost@@V?$_String_const_iterator@V?$_String_val@U?$_Simple_types@D@std@@@std@@@std@@@detail@xpressive@boost@@UEBAXAEAU?$xpression_peeker@D@234@@Z 0000000180032280 f i GRBLdlg.obj
 0001:000312a0       ?link@?$dynamic_xpression@U?$keeper_matcher@U?$shared_matchable@V?$_String_const_iterator@V?$_String_val@U?$_Simple_types@D@std@@@std@@@std@@@detail@xpressive@boost@@@detail@xpressive@boost@@V?$_String_const_iterator@V?$_String_val@U?$_Simple_types@D@std@@@std@@@std@@@detail@xpressive@boost@@UEBAXAEAU?$xpression_linker@D@234@@Z 00000001800322a0 f i GRBLdlg.obj
 0001:000312a0       ?link@?$dynamic_xpression@U?$lookahead_matcher@U?$shared_matchable@V?$_String_const_iterator@V?$_String_val@U?$_Simple_types@D@std@@@std@@@std@@@detail@xpressive@boost@@@detail@xpressive@boost@@V?$_String_const_iterator@V?$_String_val@U?$_Simple_types@D@std@@@std@@@std@@@detail@xpressive@boost@@UEBAXAEAU?$xpression_linker@D@234@@Z 00000001800322a0 f i GRBLdlg.obj
 0001:000312e0       ?match@?$dynamic_xpression@U?$keeper_matcher@U?$shared_matchable@V?$_String_const_iterator@V?$_String_val@U?$_Simple_types@D@std@@@std@@@std@@@detail@xpressive@boost@@@detail@xpressive@boost@@V?$_String_const_iterator@V?$_String_val@U?$_Simple_types@D@std@@@std@@@std@@@detail@xpressive@boost@@UEBA_NAEAU?$match_state@V?$_String_const_iterator@V?$_String_val@U?$_Simple_types@D@std@@@std@@@std@@@234@@Z 00000001800322e0 f i GRBLdlg.obj
 0001:00031360       ?repeat@?$dynamic_xpression@U?$lookbehind_matcher@U?$shared_matchable@V?$_String_const_iterator@V?$_String_val@U?$_Simple_types@D@std@@@std@@@std@@@detail@xpressive@boost@@@detail@xpressive@boost@@V?$_String_const_iterator@V?$_String_val@U?$_Simple_types@D@std@@@std@@@std@@@detail@xpressive@boost@@UEBAXAEBUquant_spec@234@AEAU?$sequence@V?$_String_const_iterator@V?$_String_val@U?$_Simple_types@D@std@@@std@@@std@@@234@@Z 0000000180032360 f i GRBLdlg.obj
 0001:00031370       ?link@?$dynamic_xpression@U?$lookbehind_matcher@U?$shared_matchable@V?$_String_const_iterator@V?$_String_val@U?$_Simple_types@D@std@@@std@@@std@@@detail@xpressive@boost@@@detail@xpressive@boost@@V?$_String_const_iterator@V?$_String_val@U?$_Simple_types@D@std@@@std@@@std@@@detail@xpressive@boost@@UEBAXAEAU?$xpression_linker@D@234@@Z 0000000180032370 f i GRBLdlg.obj
 0001:000313b0       ?match@?$dynamic_xpression@U?$lookbehind_matcher@U?$shared_matchable@V?$_String_const_iterator@V?$_String_val@U?$_Simple_types@D@std@@@std@@@std@@@detail@xpressive@boost@@@detail@xpressive@boost@@V?$_String_const_iterator@V?$_String_val@U?$_Simple_types@D@std@@@std@@@std@@@detail@xpressive@boost@@UEBA_NAEAU?$match_state@V?$_String_const_iterator@V?$_String_val@U?$_Simple_types@D@std@@@std@@@std@@@234@@Z 00000001800323b0 f i GRBLdlg.obj
 0001:000313d0       ?repeat@?$dynamic_xpression@U?$lookahead_matcher@U?$shared_matchable@V?$_String_const_iterator@V?$_String_val@U?$_Simple_types@D@std@@@std@@@std@@@detail@xpressive@boost@@@detail@xpressive@boost@@V?$_String_const_iterator@V?$_String_val@U?$_Simple_types@D@std@@@std@@@std@@@detail@xpressive@boost@@UEBAXAEBUquant_spec@234@AEAU?$sequence@V?$_String_const_iterator@V?$_String_val@U?$_Simple_types@D@std@@@std@@@std@@@234@@Z 00000001800323d0 f i GRBLdlg.obj
 0001:000313e0       ?match@?$dynamic_xpression@U?$lookahead_matcher@U?$shared_matchable@V?$_String_const_iterator@V?$_String_val@U?$_Simple_types@D@std@@@std@@@std@@@detail@xpressive@boost@@@detail@xpressive@boost@@V?$_String_const_iterator@V?$_String_val@U?$_Simple_types@D@std@@@std@@@std@@@detail@xpressive@boost@@UEBA_NAEAU?$match_state@V?$_String_const_iterator@V?$_String_val@U?$_Simple_types@D@std@@@std@@@std@@@234@@Z 00000001800323e0 f i GRBLdlg.obj
 0001:00031400       ?link@?$dynamic_xpression@U?$regex_byref_matcher@V?$_String_const_iterator@V?$_String_val@U?$_Simple_types@D@std@@@std@@@std@@@detail@xpressive@boost@@V?$_String_const_iterator@V?$_String_val@U?$_Simple_types@D@std@@@std@@@std@@@detail@xpressive@boost@@UEBAXAEAU?$xpression_linker@D@234@@Z 0000000180032400 f i GRBLdlg.obj
 0001:00031410       ?match@?$dynamic_xpression@U?$regex_byref_matcher@V?$_String_const_iterator@V?$_String_val@U?$_Simple_types@D@std@@@std@@@std@@@detail@xpressive@boost@@V?$_String_const_iterator@V?$_String_val@U?$_Simple_types@D@std@@@std@@@std@@@detail@xpressive@boost@@UEBA_NAEAU?$match_state@V?$_String_const_iterator@V?$_String_val@U?$_Simple_types@D@std@@@std@@@std@@@234@@Z 0000000180032410 f i GRBLdlg.obj
 0001:00031420       ??0?$dynamic_xpression@U?$regex_byref_matcher@V?$_String_const_iterator@V?$_String_val@U?$_Simple_types@D@std@@@std@@@std@@@detail@xpressive@boost@@V?$_String_const_iterator@V?$_String_val@U?$_Simple_types@D@std@@@std@@@std@@@detail@xpressive@boost@@QEAA@AEBU?$regex_byref_matcher@V?$_String_const_iterator@V?$_String_val@U?$_Simple_types@D@std@@@std@@@std@@@123@@Z 0000000180032420 f i GRBLdlg.obj
 0001:000314a0       ?repeat@?$dynamic_xpression@U?$posix_charset_matcher@U?$regex_traits@DU?$cpp_regex_traits@D@xpressive@boost@@@xpressive@boost@@@detail@xpressive@boost@@V?$_String_const_iterator@V?$_String_val@U?$_Simple_types@D@std@@@std@@@std@@@detail@xpressive@boost@@UEBAXAEBUquant_spec@234@AEAU?$sequence@V?$_String_const_iterator@V?$_String_val@U?$_Simple_types@D@std@@@std@@@std@@@234@@Z 00000001800324a0 f i GRBLdlg.obj
 0001:000314b0       ?peek@?$dynamic_xpression@U?$posix_charset_matcher@U?$regex_traits@DU?$cpp_regex_traits@D@xpressive@boost@@@xpressive@boost@@@detail@xpressive@boost@@V?$_String_const_iterator@V?$_String_val@U?$_Simple_types@D@std@@@std@@@std@@@detail@xpressive@boost@@UEBAXAEAU?$xpression_peeker@D@234@@Z 00000001800324b0 f i GRBLdlg.obj
 0001:000314e0       ?match@?$dynamic_xpression@U?$posix_charset_matcher@U?$regex_traits@DU?$cpp_regex_traits@D@xpressive@boost@@@xpressive@boost@@@detail@xpressive@boost@@V?$_String_const_iterator@V?$_String_val@U?$_Simple_types@D@std@@@std@@@std@@@detail@xpressive@boost@@UEBA_NAEAU?$match_state@V?$_String_const_iterator@V?$_String_val@U?$_Simple_types@D@std@@@std@@@std@@@234@@Z 00000001800324e0 f i GRBLdlg.obj
 0001:00031550       ?repeat@?$dynamic_xpression@U?$literal_matcher@U?$regex_traits@DU?$cpp_regex_traits@D@xpressive@boost@@@xpressive@boost@@U?$bool_@$0A@@mpl@3@U453@@detail@xpressive@boost@@V?$_String_const_iterator@V?$_String_val@U?$_Simple_types@D@std@@@std@@@std@@@detail@xpressive@boost@@UEBAXAEBUquant_spec@234@AEAU?$sequence@V?$_String_const_iterator@V?$_String_val@U?$_Simple_types@D@std@@@std@@@std@@@234@@Z 0000000180032550 f i GRBLdlg.obj
 0001:00031560       ?peek@?$dynamic_xpression@U?$literal_matcher@U?$regex_traits@DU?$cpp_regex_traits@D@xpressive@boost@@@xpressive@boost@@U?$bool_@$0A@@mpl@3@U453@@detail@xpressive@boost@@V?$_String_const_iterator@V?$_String_val@U?$_Simple_types@D@std@@@std@@@std@@@detail@xpressive@boost@@UEBAXAEAU?$xpression_peeker@D@234@@Z 0000000180032560 f i GRBLdlg.obj
 0001:000315c0       ?match@?$dynamic_xpression@U?$literal_matcher@U?$regex_traits@DU?$cpp_regex_traits@D@xpressive@boost@@@xpressive@boost@@U?$bool_@$0A@@mpl@3@U453@@detail@xpressive@boost@@V?$_String_const_iterator@V?$_String_val@U?$_Simple_types@D@std@@@std@@@std@@@detail@xpressive@boost@@UEBA_NAEAU?$match_state@V?$_String_const_iterator@V?$_String_val@U?$_Simple_types@D@std@@@std@@@std@@@234@@Z 00000001800325c0 f i GRBLdlg.obj
 0001:00031620       ?repeat@?$dynamic_xpression@U?$literal_matcher@U?$regex_traits@DU?$cpp_regex_traits@D@xpressive@boost@@@xpressive@boost@@U?$bool_@$00@mpl@3@U?$bool_@$0A@@53@@detail@xpressive@boost@@V?$_String_const_iterator@V?$_String_val@U?$_Simple_types@D@std@@@std@@@std@@@detail@xpressive@boost@@UEBAXAEBUquant_spec@234@AEAU?$sequence@V?$_String_const_iterator@V?$_String_val@U?$_Simple_types@D@std@@@std@@@std@@@234@@Z 0000000180032620 f i GRBLdlg.obj
 0001:00031630       ?peek@?$dynamic_xpression@U?$literal_matcher@U?$regex_traits@DU?$cpp_regex_traits@D@xpressive@boost@@@xpressive@boost@@U?$bool_@$00@mpl@3@U?$bool_@$0A@@53@@detail@xpressive@boost@@V?$_String_const_iterator@V?$_String_val@U?$_Simple_types@D@std@@@std@@@std@@@detail@xpressive@boost@@UEBAXAEAU?$xpression_peeker@D@234@@Z 0000000180032630 f i GRBLdlg.obj
 0001:000316b0       ?match@?$dynamic_xpression@U?$literal_matcher@U?$regex_traits@DU?$cpp_regex_traits@D@xpressive@boost@@@xpressive@boost@@U?$bool_@$00@mpl@3@U?$bool_@$0A@@53@@detail@xpressive@boost@@V?$_String_const_iterator@V?$_String_val@U?$_Simple_types@D@std@@@std@@@std@@@detail@xpressive@boost@@UEBA_NAEAU?$match_state@V?$_String_const_iterator@V?$_String_val@U?$_Simple_types@D@std@@@std@@@std@@@234@@Z 00000001800326b0 f i GRBLdlg.obj
 0001:000316c0       ?link@?$dynamic_xpression@U?$mark_matcher@U?$regex_traits@DU?$cpp_regex_traits@D@xpressive@boost@@@xpressive@boost@@U?$bool_@$0A@@mpl@3@@detail@xpressive@boost@@V?$_String_const_iterator@V?$_String_val@U?$_Simple_types@D@std@@@std@@@std@@@detail@xpressive@boost@@UEBAXAEAU?$xpression_linker@D@234@@Z 00000001800326c0 f i GRBLdlg.obj
 0001:000316c0       ?link@?$dynamic_xpression@U?$mark_matcher@U?$regex_traits@DU?$cpp_regex_traits@D@xpressive@boost@@@xpressive@boost@@U?$bool_@$00@mpl@3@@detail@xpressive@boost@@V?$_String_const_iterator@V?$_String_val@U?$_Simple_types@D@std@@@std@@@std@@@detail@xpressive@boost@@UEBAXAEAU?$xpression_linker@D@234@@Z 00000001800326c0 f i GRBLdlg.obj
 0001:000316d0       ?match@?$dynamic_xpression@U?$mark_matcher@U?$regex_traits@DU?$cpp_regex_traits@D@xpressive@boost@@@xpressive@boost@@U?$bool_@$0A@@mpl@3@@detail@xpressive@boost@@V?$_String_const_iterator@V?$_String_val@U?$_Simple_types@D@std@@@std@@@std@@@detail@xpressive@boost@@UEBA_NAEAU?$match_state@V?$_String_const_iterator@V?$_String_val@U?$_Simple_types@D@std@@@std@@@std@@@234@@Z 00000001800326d0 f i GRBLdlg.obj
 0001:000316e0       ?match@?$dynamic_xpression@U?$mark_matcher@U?$regex_traits@DU?$cpp_regex_traits@D@xpressive@boost@@@xpressive@boost@@U?$bool_@$00@mpl@3@@detail@xpressive@boost@@V?$_String_const_iterator@V?$_String_val@U?$_Simple_types@D@std@@@std@@@std@@@detail@xpressive@boost@@UEBA_NAEAU?$match_state@V?$_String_const_iterator@V?$_String_val@U?$_Simple_types@D@std@@@std@@@std@@@234@@Z 00000001800326e0 f i GRBLdlg.obj
 0001:000316f0       ?repeat@?$dynamic_xpression@U?$assert_word_matcher@Uword_end@detail@xpressive@boost@@U?$regex_traits@DU?$cpp_regex_traits@D@xpressive@boost@@@34@@detail@xpressive@boost@@V?$_String_const_iterator@V?$_String_val@U?$_Simple_types@D@std@@@std@@@std@@@detail@xpressive@boost@@UEBAXAEBUquant_spec@234@AEAU?$sequence@V?$_String_const_iterator@V?$_String_val@U?$_Simple_types@D@std@@@std@@@std@@@234@@Z 00000001800326f0 f i GRBLdlg.obj
 0001:00031700       ?match@?$dynamic_xpression@U?$assert_word_matcher@Uword_end@detail@xpressive@boost@@U?$regex_traits@DU?$cpp_regex_traits@D@xpressive@boost@@@34@@detail@xpressive@boost@@V?$_String_const_iterator@V?$_String_val@U?$_Simple_types@D@std@@@std@@@std@@@detail@xpressive@boost@@UEBA_NAEAU?$match_state@V?$_String_const_iterator@V?$_String_val@U?$_Simple_types@D@std@@@std@@@std@@@234@@Z 0000000180032700 f i GRBLdlg.obj
 0001:00031710       ?repeat@?$dynamic_xpression@U?$assert_word_matcher@Uword_begin@detail@xpressive@boost@@U?$regex_traits@DU?$cpp_regex_traits@D@xpressive@boost@@@34@@detail@xpressive@boost@@V?$_String_const_iterator@V?$_String_val@U?$_Simple_types@D@std@@@std@@@std@@@detail@xpressive@boost@@UEBAXAEBUquant_spec@234@AEAU?$sequence@V?$_String_const_iterator@V?$_String_val@U?$_Simple_types@D@std@@@std@@@std@@@234@@Z 0000000180032710 f i GRBLdlg.obj
 0001:00031720       ?match@?$dynamic_xpression@U?$assert_word_matcher@Uword_begin@detail@xpressive@boost@@U?$regex_traits@DU?$cpp_regex_traits@D@xpressive@boost@@@34@@detail@xpressive@boost@@V?$_String_const_iterator@V?$_String_val@U?$_Simple_types@D@std@@@std@@@std@@@detail@xpressive@boost@@UEBA_NAEAU?$match_state@V?$_String_const_iterator@V?$_String_val@U?$_Simple_types@D@std@@@std@@@std@@@234@@Z 0000000180032720 f i GRBLdlg.obj
 0001:00031730       ?repeat@?$dynamic_xpression@U?$assert_word_matcher@U?$word_boundary@U?$bool_@$0A@@mpl@boost@@@detail@xpressive@boost@@U?$regex_traits@DU?$cpp_regex_traits@D@xpressive@boost@@@34@@detail@xpressive@boost@@V?$_String_const_iterator@V?$_String_val@U?$_Simple_types@D@std@@@std@@@std@@@detail@xpressive@boost@@UEBAXAEBUquant_spec@234@AEAU?$sequence@V?$_String_const_iterator@V?$_String_val@U?$_Simple_types@D@std@@@std@@@std@@@234@@Z 0000000180032730 f i GRBLdlg.obj
 0001:00031740       ?match@?$dynamic_xpression@U?$assert_word_matcher@U?$word_boundary@U?$bool_@$0A@@mpl@boost@@@detail@xpressive@boost@@U?$regex_traits@DU?$cpp_regex_traits@D@xpressive@boost@@@34@@detail@xpressive@boost@@V?$_String_const_iterator@V?$_String_val@U?$_Simple_types@D@std@@@std@@@std@@@detail@xpressive@boost@@UEBA_NAEAU?$match_state@V?$_String_const_iterator@V?$_String_val@U?$_Simple_types@D@std@@@std@@@std@@@234@@Z 0000000180032740 f i GRBLdlg.obj
 0001:00031750       ?repeat@?$dynamic_xpression@U?$assert_word_matcher@U?$word_boundary@U?$bool_@$00@mpl@boost@@@detail@xpressive@boost@@U?$regex_traits@DU?$cpp_regex_traits@D@xpressive@boost@@@34@@detail@xpressive@boost@@V?$_String_const_iterator@V?$_String_val@U?$_Simple_types@D@std@@@std@@@std@@@detail@xpressive@boost@@UEBAXAEBUquant_spec@234@AEAU?$sequence@V?$_String_const_iterator@V?$_String_val@U?$_Simple_types@D@std@@@std@@@std@@@234@@Z 0000000180032750 f i GRBLdlg.obj
 0001:00031760       ?match@?$dynamic_xpression@U?$assert_word_matcher@U?$word_boundary@U?$bool_@$00@mpl@boost@@@detail@xpressive@boost@@U?$regex_traits@DU?$cpp_regex_traits@D@xpressive@boost@@@34@@detail@xpressive@boost@@V?$_String_const_iterator@V?$_String_val@U?$_Simple_types@D@std@@@std@@@std@@@detail@xpressive@boost@@UEBA_NAEAU?$match_state@V?$_String_const_iterator@V?$_String_val@U?$_Simple_types@D@std@@@std@@@std@@@234@@Z 0000000180032760 f i GRBLdlg.obj
 0001:00031770       ?repeat@?$dynamic_xpression@U?$assert_eol_matcher@U?$regex_traits@DU?$cpp_regex_traits@D@xpressive@boost@@@xpressive@boost@@@detail@xpressive@boost@@V?$_String_const_iterator@V?$_String_val@U?$_Simple_types@D@std@@@std@@@std@@@detail@xpressive@boost@@UEBAXAEBUquant_spec@234@AEAU?$sequence@V?$_String_const_iterator@V?$_String_val@U?$_Simple_types@D@std@@@std@@@std@@@234@@Z 0000000180032770 f i GRBLdlg.obj
 0001:00031780       ?match@?$dynamic_xpression@U?$assert_eol_matcher@U?$regex_traits@DU?$cpp_regex_traits@D@xpressive@boost@@@xpressive@boost@@@detail@xpressive@boost@@V?$_String_const_iterator@V?$_String_val@U?$_Simple_types@D@std@@@std@@@std@@@detail@xpressive@boost@@UEBA_NAEAU?$match_state@V?$_String_const_iterator@V?$_String_val@U?$_Simple_types@D@std@@@std@@@std@@@234@@Z 0000000180032780 f i GRBLdlg.obj
 0001:000317f0       ?repeat@?$dynamic_xpression@U?$assert_bol_matcher@U?$regex_traits@DU?$cpp_regex_traits@D@xpressive@boost@@@xpressive@boost@@@detail@xpressive@boost@@V?$_String_const_iterator@V?$_String_val@U?$_Simple_types@D@std@@@std@@@std@@@detail@xpressive@boost@@UEBAXAEBUquant_spec@234@AEAU?$sequence@V?$_String_const_iterator@V?$_String_val@U?$_Simple_types@D@std@@@std@@@std@@@234@@Z 00000001800327f0 f i GRBLdlg.obj
 0001:00031800       ?peek@?$dynamic_xpression@U?$assert_bol_matcher@U?$regex_traits@DU?$cpp_regex_traits@D@xpressive@boost@@@xpressive@boost@@@detail@xpressive@boost@@V?$_String_const_iterator@V?$_String_val@U?$_Simple_types@D@std@@@std@@@std@@@detail@xpressive@boost@@UEBAXAEAU?$xpression_peeker@D@234@@Z 0000000180032800 f i GRBLdlg.obj
 0001:00031810       ?match@?$dynamic_xpression@U?$assert_bol_matcher@U?$regex_traits@DU?$cpp_regex_traits@D@xpressive@boost@@@xpressive@boost@@@detail@xpressive@boost@@V?$_String_const_iterator@V?$_String_val@U?$_Simple_types@D@std@@@std@@@std@@@detail@xpressive@boost@@UEBA_NAEAU?$match_state@V?$_String_const_iterator@V?$_String_val@U?$_Simple_types@D@std@@@std@@@std@@@234@@Z 0000000180032810 f i GRBLdlg.obj
 0001:00031880       ?repeat@?$dynamic_xpression@Uany_matcher@detail@xpressive@boost@@V?$_String_const_iterator@V?$_String_val@U?$_Simple_types@D@std@@@std@@@std@@@detail@xpressive@boost@@UEBAXAEBUquant_spec@234@AEAU?$sequence@V?$_String_const_iterator@V?$_String_val@U?$_Simple_types@D@std@@@std@@@std@@@234@@Z 0000000180032880 f i GRBLdlg.obj
 0001:00031890       ?match@?$dynamic_xpression@Uany_matcher@detail@xpressive@boost@@V?$_String_const_iterator@V?$_String_val@U?$_Simple_types@D@std@@@std@@@std@@@detail@xpressive@boost@@UEBA_NAEAU?$match_state@V?$_String_const_iterator@V?$_String_val@U?$_Simple_types@D@std@@@std@@@std@@@234@@Z 0000000180032890 f i GRBLdlg.obj
 0001:000318e0       ?repeat@?$dynamic_xpression@U?$set_matcher@U?$regex_traits@DU?$cpp_regex_traits@D@xpressive@boost@@@xpressive@boost@@U?$int_@$01@mpl@3@@detail@xpressive@boost@@V?$_String_const_iterator@V?$_String_val@U?$_Simple_types@D@std@@@std@@@std@@@detail@xpressive@boost@@UEBAXAEBUquant_spec@234@AEAU?$sequence@V?$_String_const_iterator@V?$_String_val@U?$_Simple_types@D@std@@@std@@@std@@@234@@Z 00000001800328e0 f i GRBLdlg.obj
 0001:000318f0       ?match@?$dynamic_xpression@U?$set_matcher@U?$regex_traits@DU?$cpp_regex_traits@D@xpressive@boost@@@xpressive@boost@@U?$int_@$01@mpl@3@@detail@xpressive@boost@@V?$_String_const_iterator@V?$_String_val@U?$_Simple_types@D@std@@@std@@@std@@@detail@xpressive@boost@@UEBA_NAEAU?$match_state@V?$_String_const_iterator@V?$_String_val@U?$_Simple_types@D@std@@@std@@@std@@@234@@Z 00000001800328f0 f i GRBLdlg.obj
 0001:00031900       ?repeat@?$dynamic_xpression@U?$literal_matcher@U?$regex_traits@DU?$cpp_regex_traits@D@xpressive@boost@@@xpressive@boost@@U?$bool_@$0A@@mpl@3@U?$bool_@$00@53@@detail@xpressive@boost@@V?$_String_const_iterator@V?$_String_val@U?$_Simple_types@D@std@@@std@@@std@@@detail@xpressive@boost@@UEBAXAEBUquant_spec@234@AEAU?$sequence@V?$_String_const_iterator@V?$_String_val@U?$_Simple_types@D@std@@@std@@@std@@@234@@Z 0000000180032900 f i GRBLdlg.obj
 0001:00031910       ?match@?$dynamic_xpression@U?$literal_matcher@U?$regex_traits@DU?$cpp_regex_traits@D@xpressive@boost@@@xpressive@boost@@U?$bool_@$0A@@mpl@3@U?$bool_@$00@53@@detail@xpressive@boost@@V?$_String_const_iterator@V?$_String_val@U?$_Simple_types@D@std@@@std@@@std@@@detail@xpressive@boost@@UEBA_NAEAU?$match_state@V?$_String_const_iterator@V?$_String_val@U?$_Simple_types@D@std@@@std@@@std@@@234@@Z 0000000180032910 f i GRBLdlg.obj
 0001:00031970       ?repeat@?$dynamic_xpression@U?$string_matcher@U?$regex_traits@DU?$cpp_regex_traits@D@xpressive@boost@@@xpressive@boost@@U?$bool_@$0A@@mpl@3@@detail@xpressive@boost@@V?$_String_const_iterator@V?$_String_val@U?$_Simple_types@D@std@@@std@@@std@@@detail@xpressive@boost@@UEBAXAEBUquant_spec@234@AEAU?$sequence@V?$_String_const_iterator@V?$_String_val@U?$_Simple_types@D@std@@@std@@@std@@@234@@Z 0000000180032970 f i GRBLdlg.obj
 0001:00031980       ?peek@?$dynamic_xpression@U?$string_matcher@U?$regex_traits@DU?$cpp_regex_traits@D@xpressive@boost@@@xpressive@boost@@U?$bool_@$0A@@mpl@3@@detail@xpressive@boost@@V?$_String_const_iterator@V?$_String_val@U?$_Simple_types@D@std@@@std@@@std@@@detail@xpressive@boost@@UEBAXAEAU?$xpression_peeker@D@234@@Z 0000000180032980 f i GRBLdlg.obj
 0001:00031a30       ?link@?$dynamic_xpression@U?$string_matcher@U?$regex_traits@DU?$cpp_regex_traits@D@xpressive@boost@@@xpressive@boost@@U?$bool_@$00@mpl@3@@detail@xpressive@boost@@V?$_String_const_iterator@V?$_String_val@U?$_Simple_types@D@std@@@std@@@std@@@detail@xpressive@boost@@UEBAXAEAU?$xpression_linker@D@234@@Z 0000000180032a30 f i GRBLdlg.obj
 0001:00031a30       ?link@?$dynamic_xpression@U?$string_matcher@U?$regex_traits@DU?$cpp_regex_traits@D@xpressive@boost@@@xpressive@boost@@U?$bool_@$0A@@mpl@3@@detail@xpressive@boost@@V?$_String_const_iterator@V?$_String_val@U?$_Simple_types@D@std@@@std@@@std@@@detail@xpressive@boost@@UEBAXAEAU?$xpression_linker@D@234@@Z 0000000180032a30 f i GRBLdlg.obj
 0001:00031a40       ?match@?$dynamic_xpression@U?$string_matcher@U?$regex_traits@DU?$cpp_regex_traits@D@xpressive@boost@@@xpressive@boost@@U?$bool_@$0A@@mpl@3@@detail@xpressive@boost@@V?$_String_const_iterator@V?$_String_val@U?$_Simple_types@D@std@@@std@@@std@@@detail@xpressive@boost@@UEBA_NAEAU?$match_state@V?$_String_const_iterator@V?$_String_val@U?$_Simple_types@D@std@@@std@@@std@@@234@@Z 0000000180032a40 f i GRBLdlg.obj
 0001:00031a50       ?repeat@?$dynamic_xpression@U?$string_matcher@U?$regex_traits@DU?$cpp_regex_traits@D@xpressive@boost@@@xpressive@boost@@U?$bool_@$00@mpl@3@@detail@xpressive@boost@@V?$_String_const_iterator@V?$_String_val@U?$_Simple_types@D@std@@@std@@@std@@@detail@xpressive@boost@@UEBAXAEBUquant_spec@234@AEAU?$sequence@V?$_String_const_iterator@V?$_String_val@U?$_Simple_types@D@std@@@std@@@std@@@234@@Z 0000000180032a50 f i GRBLdlg.obj
 0001:00031a60       ?peek@?$dynamic_xpression@U?$string_matcher@U?$regex_traits@DU?$cpp_regex_traits@D@xpressive@boost@@@xpressive@boost@@U?$bool_@$00@mpl@3@@detail@xpressive@boost@@V?$_String_const_iterator@V?$_String_val@U?$_Simple_types@D@std@@@std@@@std@@@detail@xpressive@boost@@UEBAXAEAU?$xpression_peeker@D@234@@Z 0000000180032a60 f i GRBLdlg.obj
 0001:00031a90       ?match@?$dynamic_xpression@U?$string_matcher@U?$regex_traits@DU?$cpp_regex_traits@D@xpressive@boost@@@xpressive@boost@@U?$bool_@$00@mpl@3@@detail@xpressive@boost@@V?$_String_const_iterator@V?$_String_val@U?$_Simple_types@D@std@@@std@@@std@@@detail@xpressive@boost@@UEBA_NAEAU?$match_state@V?$_String_const_iterator@V?$_String_val@U?$_Simple_types@D@std@@@std@@@std@@@234@@Z 0000000180032a90 f i GRBLdlg.obj
 0001:00031aa0       ?equal@?$split_iterator@PEBD@algorithm@boost@@AEBA_NAEBV123@@Z 0000000180032aa0 f i GRBLdlg.obj
 0001:00031aa0       ?equal@?$split_iterator@V?$_String_iterator@V?$_String_val@U?$_Simple_types@D@std@@@std@@@std@@@algorithm@boost@@AEBA_NAEBV123@@Z 0000000180032aa0 f i GRBLdlg.obj
 0001:00031b40       ??_E?$dynamic_xpression@U?$lookbehind_matcher@U?$shared_matchable@V?$_String_const_iterator@V?$_String_val@U?$_Simple_types@D@std@@@std@@@std@@@detail@xpressive@boost@@@detail@xpressive@boost@@V?$_String_const_iterator@V?$_String_val@U?$_Simple_types@D@std@@@std@@@std@@@detail@xpressive@boost@@UEAAPEAXI@Z 0000000180032b40 f i * CIL library *:* CIL module *
 0001:00031b40       ??_G?$dynamic_xpression@U?$lookbehind_matcher@U?$shared_matchable@V?$_String_const_iterator@V?$_String_val@U?$_Simple_types@D@std@@@std@@@std@@@detail@xpressive@boost@@@detail@xpressive@boost@@V?$_String_const_iterator@V?$_String_val@U?$_Simple_types@D@std@@@std@@@std@@@detail@xpressive@boost@@UEAAPEAXI@Z 0000000180032b40 f i GRBLdlg.obj
 0001:00031b80       ??1?$dynamic_xpression@U?$lookbehind_matcher@U?$shared_matchable@V?$_String_const_iterator@V?$_String_val@U?$_Simple_types@D@std@@@std@@@std@@@detail@xpressive@boost@@@detail@xpressive@boost@@V?$_String_const_iterator@V?$_String_val@U?$_Simple_types@D@std@@@std@@@std@@@detail@xpressive@boost@@UEAA@XZ 0000000180032b80 f i GRBLdlg.obj
 0001:00031c20       ??_G?$dynamic_xpression@U?$regex_byref_matcher@V?$_String_const_iterator@V?$_String_val@U?$_Simple_types@D@std@@@std@@@std@@@detail@xpressive@boost@@V?$_String_const_iterator@V?$_String_val@U?$_Simple_types@D@std@@@std@@@std@@@detail@xpressive@boost@@UEAAPEAXI@Z 0000000180032c20 f i GRBLdlg.obj
 0001:00031c20       ??_E?$dynamic_xpression@U?$regex_byref_matcher@V?$_String_const_iterator@V?$_String_val@U?$_Simple_types@D@std@@@std@@@std@@@detail@xpressive@boost@@V?$_String_const_iterator@V?$_String_val@U?$_Simple_types@D@std@@@std@@@std@@@detail@xpressive@boost@@UEAAPEAXI@Z 0000000180032c20 f i * CIL library *:* CIL module *
 0001:00031c60       ??1?$dynamic_xpression@U?$regex_byref_matcher@V?$_String_const_iterator@V?$_String_val@U?$_Simple_types@D@std@@@std@@@std@@@detail@xpressive@boost@@V?$_String_const_iterator@V?$_String_val@U?$_Simple_types@D@std@@@std@@@std@@@detail@xpressive@boost@@UEAA@XZ 0000000180032c60 f i GRBLdlg.obj
 0001:00031ce0       ??_E?$dynamic_xpression@U?$string_matcher@U?$regex_traits@DU?$cpp_regex_traits@D@xpressive@boost@@@xpressive@boost@@U?$bool_@$00@mpl@3@@detail@xpressive@boost@@V?$_String_const_iterator@V?$_String_val@U?$_Simple_types@D@std@@@std@@@std@@@detail@xpressive@boost@@UEAAPEAXI@Z 0000000180032ce0 f i * CIL library *:* CIL module *
 0001:00031ce0       ??_G?$dynamic_xpression@U?$string_matcher@U?$regex_traits@DU?$cpp_regex_traits@D@xpressive@boost@@@xpressive@boost@@U?$bool_@$00@mpl@3@@detail@xpressive@boost@@V?$_String_const_iterator@V?$_String_val@U?$_Simple_types@D@std@@@std@@@std@@@detail@xpressive@boost@@UEAAPEAXI@Z 0000000180032ce0 f i GRBLdlg.obj
 0001:00031ce0       ??_G?$dynamic_xpression@U?$string_matcher@U?$regex_traits@DU?$cpp_regex_traits@D@xpressive@boost@@@xpressive@boost@@U?$bool_@$0A@@mpl@3@@detail@xpressive@boost@@V?$_String_const_iterator@V?$_String_val@U?$_Simple_types@D@std@@@std@@@std@@@detail@xpressive@boost@@UEAAPEAXI@Z 0000000180032ce0 f i GRBLdlg.obj
 0001:00031ce0       ??_E?$dynamic_xpression@U?$string_matcher@U?$regex_traits@DU?$cpp_regex_traits@D@xpressive@boost@@@xpressive@boost@@U?$bool_@$0A@@mpl@3@@detail@xpressive@boost@@V?$_String_const_iterator@V?$_String_val@U?$_Simple_types@D@std@@@std@@@std@@@detail@xpressive@boost@@UEAAPEAXI@Z 0000000180032ce0 f i * CIL library *:* CIL module *
 0001:00031d60       ?repeat_@?$dynamic_xpression@U?$lookbehind_matcher@U?$shared_matchable@V?$_String_const_iterator@V?$_String_val@U?$_Simple_types@D@std@@@std@@@std@@@detail@xpressive@boost@@@detail@xpressive@boost@@V?$_String_const_iterator@V?$_String_val@U?$_Simple_types@D@std@@@std@@@std@@@detail@xpressive@boost@@AEBAXAEBUquant_spec@234@AEAU?$sequence@V?$_String_const_iterator@V?$_String_val@U?$_Simple_types@D@std@@@std@@@std@@@234@U?$int_@$0A@@mpl@4@U?$bool_@$0A@@84@@Z 0000000180032d60 f i GRBLdlg.obj
 0001:00031ea0       ?repeat_@?$dynamic_xpression@U?$lookahead_matcher@U?$shared_matchable@V?$_String_const_iterator@V?$_String_val@U?$_Simple_types@D@std@@@std@@@std@@@detail@xpressive@boost@@@detail@xpressive@boost@@V?$_String_const_iterator@V?$_String_val@U?$_Simple_types@D@std@@@std@@@std@@@detail@xpressive@boost@@AEBAXAEBUquant_spec@234@AEAU?$sequence@V?$_String_const_iterator@V?$_String_val@U?$_Simple_types@D@std@@@std@@@std@@@234@U?$int_@$0A@@mpl@4@U?$bool_@$0A@@84@@Z 0000000180032ea0 f i GRBLdlg.obj
 0001:00031fe0       ?repeat_@?$dynamic_xpression@U?$posix_charset_matcher@U?$regex_traits@DU?$cpp_regex_traits@D@xpressive@boost@@@xpressive@boost@@@detail@xpressive@boost@@V?$_String_const_iterator@V?$_String_val@U?$_Simple_types@D@std@@@std@@@std@@@detail@xpressive@boost@@AEBAXAEBUquant_spec@234@AEAU?$sequence@V?$_String_const_iterator@V?$_String_val@U?$_Simple_types@D@std@@@std@@@std@@@234@U?$int_@$00@mpl@4@U?$bool_@$0A@@84@@Z 0000000180032fe0 f i GRBLdlg.obj
 0001:00032080       ?repeat_@?$dynamic_xpression@U?$literal_matcher@U?$regex_traits@DU?$cpp_regex_traits@D@xpressive@boost@@@xpressive@boost@@U?$bool_@$0A@@mpl@3@U453@@detail@xpressive@boost@@V?$_String_const_iterator@V?$_String_val@U?$_Simple_types@D@std@@@std@@@std@@@detail@xpressive@boost@@AEBAXAEBUquant_spec@234@AEAU?$sequence@V?$_String_const_iterator@V?$_String_val@U?$_Simple_types@D@std@@@std@@@std@@@234@U?$int_@$00@mpl@4@U?$bool_@$0A@@84@@Z 0000000180033080 f i GRBLdlg.obj
 0001:00032120       ?repeat_@?$dynamic_xpression@U?$literal_matcher@U?$regex_traits@DU?$cpp_regex_traits@D@xpressive@boost@@@xpressive@boost@@U?$bool_@$00@mpl@3@U?$bool_@$0A@@53@@detail@xpressive@boost@@V?$_String_const_iterator@V?$_String_val@U?$_Simple_types@D@std@@@std@@@std@@@detail@xpressive@boost@@AEBAXAEBUquant_spec@234@AEAU?$sequence@V?$_String_const_iterator@V?$_String_val@U?$_Simple_types@D@std@@@std@@@std@@@234@U?$int_@$00@mpl@4@U?$bool_@$0A@@84@@Z 0000000180033120 f i GRBLdlg.obj
 0001:000321c0       ?repeat_@?$dynamic_xpression@U?$assert_word_matcher@Uword_end@detail@xpressive@boost@@U?$regex_traits@DU?$cpp_regex_traits@D@xpressive@boost@@@34@@detail@xpressive@boost@@V?$_String_const_iterator@V?$_String_val@U?$_Simple_types@D@std@@@std@@@std@@@detail@xpressive@boost@@AEBAXAEBUquant_spec@234@AEAU?$sequence@V?$_String_const_iterator@V?$_String_val@U?$_Simple_types@D@std@@@std@@@std@@@234@U?$int_@$0A@@mpl@4@U?$bool_@$0A@@84@@Z 00000001800331c0 f i GRBLdlg.obj
 0001:00032300       ?repeat_@?$dynamic_xpression@U?$assert_word_matcher@Uword_begin@detail@xpressive@boost@@U?$regex_traits@DU?$cpp_regex_traits@D@xpressive@boost@@@34@@detail@xpressive@boost@@V?$_String_const_iterator@V?$_String_val@U?$_Simple_types@D@std@@@std@@@std@@@detail@xpressive@boost@@AEBAXAEBUquant_spec@234@AEAU?$sequence@V?$_String_const_iterator@V?$_String_val@U?$_Simple_types@D@std@@@std@@@std@@@234@U?$int_@$0A@@mpl@4@U?$bool_@$0A@@84@@Z 0000000180033300 f i GRBLdlg.obj
 0001:00032440       ?repeat_@?$dynamic_xpression@U?$assert_word_matcher@U?$word_boundary@U?$bool_@$0A@@mpl@boost@@@detail@xpressive@boost@@U?$regex_traits@DU?$cpp_regex_traits@D@xpressive@boost@@@34@@detail@xpressive@boost@@V?$_String_const_iterator@V?$_String_val@U?$_Simple_types@D@std@@@std@@@std@@@detail@xpressive@boost@@AEBAXAEBUquant_spec@234@AEAU?$sequence@V?$_String_const_iterator@V?$_String_val@U?$_Simple_types@D@std@@@std@@@std@@@234@U?$int_@$0A@@mpl@4@U?$bool_@$0A@@84@@Z 0000000180033440 f i GRBLdlg.obj
 0001:00032580       ?repeat_@?$dynamic_xpression@U?$assert_word_matcher@U?$word_boundary@U?$bool_@$00@mpl@boost@@@detail@xpressive@boost@@U?$regex_traits@DU?$cpp_regex_traits@D@xpressive@boost@@@34@@detail@xpressive@boost@@V?$_String_const_iterator@V?$_String_val@U?$_Simple_types@D@std@@@std@@@std@@@detail@xpressive@boost@@AEBAXAEBUquant_spec@234@AEAU?$sequence@V?$_String_const_iterator@V?$_String_val@U?$_Simple_types@D@std@@@std@@@std@@@234@U?$int_@$0A@@mpl@4@U?$bool_@$0A@@84@@Z 0000000180033580 f i GRBLdlg.obj
 0001:000326c0       ?repeat_@?$dynamic_xpression@U?$assert_eol_matcher@U?$regex_traits@DU?$cpp_regex_traits@D@xpressive@boost@@@xpressive@boost@@@detail@xpressive@boost@@V?$_String_const_iterator@V?$_String_val@U?$_Simple_types@D@std@@@std@@@std@@@detail@xpressive@boost@@AEBAXAEBUquant_spec@234@AEAU?$sequence@V?$_String_const_iterator@V?$_String_val@U?$_Simple_types@D@std@@@std@@@std@@@234@U?$int_@$0A@@mpl@4@U?$bool_@$0A@@84@@Z 00000001800336c0 f i GRBLdlg.obj
 0001:00032800       ?repeat_@?$dynamic_xpression@U?$assert_bol_matcher@U?$regex_traits@DU?$cpp_regex_traits@D@xpressive@boost@@@xpressive@boost@@@detail@xpressive@boost@@V?$_String_const_iterator@V?$_String_val@U?$_Simple_types@D@std@@@std@@@std@@@detail@xpressive@boost@@AEBAXAEBUquant_spec@234@AEAU?$sequence@V?$_String_const_iterator@V?$_String_val@U?$_Simple_types@D@std@@@std@@@std@@@234@U?$int_@$0A@@mpl@4@U?$bool_@$0A@@84@@Z 0000000180033800 f i GRBLdlg.obj
 0001:00032940       ?repeat_@?$dynamic_xpression@Uany_matcher@detail@xpressive@boost@@V?$_String_const_iterator@V?$_String_val@U?$_Simple_types@D@std@@@std@@@std@@@detail@xpressive@boost@@AEBAXAEBUquant_spec@234@AEAU?$sequence@V?$_String_const_iterator@V?$_String_val@U?$_Simple_types@D@std@@@std@@@std@@@234@U?$int_@$00@mpl@4@U?$bool_@$0A@@84@@Z 0000000180033940 f i GRBLdlg.obj
 0001:000329d0       ?repeat_@?$dynamic_xpression@U?$set_matcher@U?$regex_traits@DU?$cpp_regex_traits@D@xpressive@boost@@@xpressive@boost@@U?$int_@$01@mpl@3@@detail@xpressive@boost@@V?$_String_const_iterator@V?$_String_val@U?$_Simple_types@D@std@@@std@@@std@@@detail@xpressive@boost@@AEBAXAEBUquant_spec@234@AEAU?$sequence@V?$_String_const_iterator@V?$_String_val@U?$_Simple_types@D@std@@@std@@@std@@@234@U?$int_@$00@mpl@4@U?$bool_@$0A@@84@@Z 00000001800339d0 f i GRBLdlg.obj
 0001:00032a70       ?repeat_@?$dynamic_xpression@U?$literal_matcher@U?$regex_traits@DU?$cpp_regex_traits@D@xpressive@boost@@@xpressive@boost@@U?$bool_@$0A@@mpl@3@U?$bool_@$00@53@@detail@xpressive@boost@@V?$_String_const_iterator@V?$_String_val@U?$_Simple_types@D@std@@@std@@@std@@@detail@xpressive@boost@@AEBAXAEBUquant_spec@234@AEAU?$sequence@V?$_String_const_iterator@V?$_String_val@U?$_Simple_types@D@std@@@std@@@std@@@234@U?$int_@$00@mpl@4@U?$bool_@$0A@@84@@Z 0000000180033a70 f i GRBLdlg.obj
 0001:00032b10       ?repeat_@?$dynamic_xpression@U?$string_matcher@U?$regex_traits@DU?$cpp_regex_traits@D@xpressive@boost@@@xpressive@boost@@U?$bool_@$0A@@mpl@3@@detail@xpressive@boost@@V?$_String_const_iterator@V?$_String_val@U?$_Simple_types@D@std@@@std@@@std@@@detail@xpressive@boost@@AEBAXAEBUquant_spec@234@AEAU?$sequence@V?$_String_const_iterator@V?$_String_val@U?$_Simple_types@D@std@@@std@@@std@@@234@U?$int_@$00@mpl@4@U?$bool_@$0A@@84@@Z 0000000180033b10 f i GRBLdlg.obj
 0001:00032be0       ?repeat_@?$dynamic_xpression@U?$string_matcher@U?$regex_traits@DU?$cpp_regex_traits@D@xpressive@boost@@@xpressive@boost@@U?$bool_@$00@mpl@3@@detail@xpressive@boost@@V?$_String_const_iterator@V?$_String_val@U?$_Simple_types@D@std@@@std@@@std@@@detail@xpressive@boost@@AEBAXAEBUquant_spec@234@AEAU?$sequence@V?$_String_const_iterator@V?$_String_val@U?$_Simple_types@D@std@@@std@@@std@@@234@U?$int_@$00@mpl@4@U?$bool_@$0A@@84@@Z 0000000180033be0 f i GRBLdlg.obj
 0001:00032cb0       ?push_back@?$vector@GV?$allocator@G@std@@@std@@QEAAXAEBG@Z 0000000180033cb0 f i GRBLdlg.obj
 0001:00032e10       ??0?$vector@GV?$allocator@G@std@@@std@@QEAA@AEBV01@@Z 0000000180033e10 f i GRBLdlg.obj
 0001:00032ec0       ?_Reallocate@?$vector@GV?$allocator@G@std@@@std@@IEAAX_K@Z 0000000180033ec0 f i GRBLdlg.obj
 0001:00032f30       ?allocate@?$allocator@G@std@@QEAAPEAG_K@Z 0000000180033f30 f i GRBLdlg.obj
 0001:00032fb0       ??$lookup_classname@V?$_String_const_iterator@V?$_String_val@U?$_Simple_types@D@std@@@std@@@std@@@?$cpp_regex_traits@D@xpressive@boost@@QEBAGV?$_String_const_iterator@V?$_String_val@U?$_Simple_types@D@std@@@std@@@std@@0_N@Z 0000000180033fb0 f i GRBLdlg.obj
 0001:000331c0       ??$make_dynamic@V?$_String_const_iterator@V?$_String_val@U?$_Simple_types@D@std@@@std@@@std@@Uindependent_end_matcher@detail@xpressive@boost@@@detail@xpressive@boost@@YA?AU?$sequence@V?$_String_const_iterator@V?$_String_val@U?$_Simple_types@D@std@@@std@@@std@@@012@AEBUindependent_end_matcher@012@@Z 00000001800341c0 f i GRBLdlg.obj
 0001:000332f0       ??$get_charset_token@V?$_String_const_iterator@V?$_String_val@U?$_Simple_types@D@std@@@std@@@std@@@?$compiler_traits@U?$regex_traits@DU?$cpp_regex_traits@D@xpressive@boost@@@xpressive@boost@@@xpressive@boost@@QEAA?AW4compiler_token_type@regex_constants@12@AEAV?$_String_const_iterator@V?$_String_val@U?$_Simple_types@D@std@@@std@@@std@@V56@@Z 00000001800342f0 f i GRBLdlg.obj
 0001:000334c0       ??$merge_charset@DU?$regex_traits@DU?$cpp_regex_traits@D@xpressive@boost@@@xpressive@boost@@@detail@xpressive@boost@@YAXAEAU?$basic_chset@D@012@AEBU?$compound_charset@U?$regex_traits@DU?$cpp_regex_traits@D@xpressive@boost@@@xpressive@boost@@@012@AEBU?$regex_traits@DU?$cpp_regex_traits@D@xpressive@boost@@@12@@Z 00000001800344c0 f i GRBLdlg.obj
 0001:000335d0       ??$make_dynamic@V?$_String_const_iterator@V?$_String_val@U?$_Simple_types@D@std@@@std@@@std@@U?$charset_matcher@U?$regex_traits@DU?$cpp_regex_traits@D@xpressive@boost@@@xpressive@boost@@U?$bool_@$00@mpl@3@U?$basic_chset@D@detail@23@@detail@xpressive@boost@@@detail@xpressive@boost@@YA?AU?$sequence@V?$_String_const_iterator@V?$_String_val@U?$_Simple_types@D@std@@@std@@@std@@@012@AEBU?$charset_matcher@U?$regex_traits@DU?$cpp_regex_traits@D@xpressive@boost@@@xpressive@boost@@U?$bool_@$00@mpl@3@U?$basic_chset@D@detail@23@@012@@Z 00000001800345d0 f i GRBLdlg.obj
 0001:00033710       ??$make_dynamic@V?$_String_const_iterator@V?$_String_val@U?$_Simple_types@D@std@@@std@@@std@@U?$charset_matcher@U?$regex_traits@DU?$cpp_regex_traits@D@xpressive@boost@@@xpressive@boost@@U?$bool_@$0A@@mpl@3@U?$basic_chset@D@detail@23@@detail@xpressive@boost@@@detail@xpressive@boost@@YA?AU?$sequence@V?$_String_const_iterator@V?$_String_val@U?$_Simple_types@D@std@@@std@@@std@@@012@AEBU?$charset_matcher@U?$regex_traits@DU?$cpp_regex_traits@D@xpressive@boost@@@xpressive@boost@@U?$bool_@$0A@@mpl@3@U?$basic_chset@D@detail@23@@012@@Z 0000000180034710 f i GRBLdlg.obj
 0001:00033850       ??$make_dynamic@V?$_String_const_iterator@V?$_String_val@U?$_Simple_types@D@std@@@std@@@std@@U?$charset_matcher@U?$regex_traits@DU?$cpp_regex_traits@D@xpressive@boost@@@xpressive@boost@@U?$bool_@$00@mpl@3@U?$compound_charset@U?$regex_traits@DU?$cpp_regex_traits@D@xpressive@boost@@@xpressive@boost@@@detail@23@@detail@xpressive@boost@@@detail@xpressive@boost@@YA?AU?$sequence@V?$_String_const_iterator@V?$_String_val@U?$_Simple_types@D@std@@@std@@@std@@@012@AEBU?$charset_matcher@U?$regex_traits@DU?$cpp_regex_traits@D@xpressive@boost@@@xpressive@boost@@U?$bool_@$00@mpl@3@U?$compound_charset@U?$regex_traits@DU?$cpp_regex_traits@D@xpressive@boost@@@xpressive@boost@@@detail@23@@012@@Z 0000000180034850 f i GRBLdlg.obj
 0001:000339b0       ??$make_dynamic@V?$_String_const_iterator@V?$_String_val@U?$_Simple_types@D@std@@@std@@@std@@U?$charset_matcher@U?$regex_traits@DU?$cpp_regex_traits@D@xpressive@boost@@@xpressive@boost@@U?$bool_@$0A@@mpl@3@U?$compound_charset@U?$regex_traits@DU?$cpp_regex_traits@D@xpressive@boost@@@xpressive@boost@@@detail@23@@detail@xpressive@boost@@@detail@xpressive@boost@@YA?AU?$sequence@V?$_String_const_iterator@V?$_String_val@U?$_Simple_types@D@std@@@std@@@std@@@012@AEBU?$charset_matcher@U?$regex_traits@DU?$cpp_regex_traits@D@xpressive@boost@@@xpressive@boost@@U?$bool_@$0A@@mpl@3@U?$compound_charset@U?$regex_traits@DU?$cpp_regex_traits@D@xpressive@boost@@@xpressive@boost@@@detail@23@@012@@Z 00000001800349b0 f i GRBLdlg.obj
 0001:00033b10       ??$match_@V?$_String_const_iterator@V?$_String_val@U?$_Simple_types@D@std@@@std@@@std@@U?$static_xpression@U?$literal_matcher@U?$cpp_regex_traits@D@xpressive@boost@@U?$bool_@$0A@@mpl@3@U453@@detail@xpressive@boost@@U?$static_xpression@Uend_matcher@detail@xpressive@boost@@Uno_next@234@@234@@detail@xpressive@boost@@@?$simple_repeat_matcher@U?$static_xpression@U?$literal_matcher@U?$cpp_regex_traits@D@xpressive@boost@@U?$bool_@$0A@@mpl@3@U?$bool_@$00@53@@detail@xpressive@boost@@U?$static_xpression@Utrue_matcher@detail@xpressive@boost@@Uno_next@234@@234@@detail@xpressive@boost@@U?$bool_@$00@mpl@4@@detail@xpressive@boost@@QEBA_NAEAU?$match_state@V?$_String_const_iterator@V?$_String_val@U?$_Simple_types@D@std@@@std@@@std@@@123@AEBU?$static_xpression@U?$literal_matcher@U?$cpp_regex_traits@D@xpressive@boost@@U?$bool_@$0A@@mpl@3@U453@@detail@xpressive@boost@@U?$static_xpression@Uend_matcher@detail@xpressive@boost@@Uno_next@234@@234@@123@Ugreedy_slow_tag@123@@Z 0000000180034b10 f i GRBLdlg.obj
 0001:00033b10       ??$match_@V?$_String_const_iterator@V?$_String_val@U?$_Simple_types@D@std@@@std@@@std@@U?$stacked_xpression@U?$static_xpression@Uend_matcher@detail@xpressive@boost@@Uno_next@234@@detail@xpressive@boost@@U?$static_xpression@U?$literal_matcher@U?$cpp_regex_traits@D@xpressive@boost@@U?$bool_@$0A@@mpl@3@U453@@detail@xpressive@boost@@U?$static_xpression@Ualternate_end_matcher@detail@xpressive@boost@@Uno_next@234@@234@@234@@detail@xpressive@boost@@@?$simple_repeat_matcher@U?$static_xpression@U?$literal_matcher@U?$cpp_regex_traits@D@xpressive@boost@@U?$bool_@$0A@@mpl@3@U?$bool_@$00@53@@detail@xpressive@boost@@U?$static_xpression@Utrue_matcher@detail@xpressive@boost@@Uno_next@234@@234@@detail@xpressive@boost@@U?$bool_@$00@mpl@4@@detail@xpressive@boost@@QEBA_NAEAU?$match_state@V?$_String_const_iterator@V?$_String_val@U?$_Simple_types@D@std@@@std@@@std@@@123@AEBU?$stacked_xpression@U?$static_xpression@Uend_matcher@detail@xpressive@boost@@Uno_next@234@@detail@xpressive@boost@@U?$static_xpression@U?$literal_matcher@U?$cpp_regex_traits@D@xpressive@boost@@U?$bool_@$0A@@mpl@3@U453@@detail@xpressive@boost@@U?$static_xpression@Ualternate_end_matcher@detail@xpressive@boost@@Uno_next@234@@234@@234@@123@Ugreedy_slow_tag@123@@Z 0000000180034b10 f i GRBLdlg.obj
 0001:00033bf0       ??@a5a918d21255d97f9294e136d077e94f@ 0000000180034bf0 f i GRBLdlg.obj
 0001:00033cc0       ??$match@U?$matchable_ex@V?$_String_const_iterator@V?$_String_val@U?$_Simple_types@D@std@@@std@@@std@@@detail@xpressive@boost@@@?$regex_byref_matcher@V?$_String_const_iterator@V?$_String_val@U?$_Simple_types@D@std@@@std@@@std@@@detail@xpressive@boost@@QEBA_NAEAU?$match_state@V?$_String_const_iterator@V?$_String_val@U?$_Simple_types@D@std@@@std@@@std@@@123@AEBU?$matchable_ex@V?$_String_const_iterator@V?$_String_val@U?$_Simple_types@D@std@@@std@@@std@@@123@@Z 0000000180034cc0 f i GRBLdlg.obj
 0001:00033dc0       ??$match@V?$_String_const_iterator@V?$_String_val@U?$_Simple_types@D@std@@@std@@@std@@U?$matchable_ex@V?$_String_const_iterator@V?$_String_val@U?$_Simple_types@D@std@@@std@@@std@@@detail@xpressive@boost@@@?$literal_matcher@U?$regex_traits@DU?$cpp_regex_traits@D@xpressive@boost@@@xpressive@boost@@U?$bool_@$00@mpl@3@U?$bool_@$0A@@53@@detail@xpressive@boost@@QEBA_NAEAU?$match_state@V?$_String_const_iterator@V?$_String_val@U?$_Simple_types@D@std@@@std@@@std@@@123@AEBU?$matchable_ex@V?$_String_const_iterator@V?$_String_val@U?$_Simple_types@D@std@@@std@@@std@@@123@@Z 0000000180034dc0 f i GRBLdlg.obj
 0001:00033e50       ??$match@V?$_String_const_iterator@V?$_String_val@U?$_Simple_types@D@std@@@std@@@std@@U?$matchable_ex@V?$_String_const_iterator@V?$_String_val@U?$_Simple_types@D@std@@@std@@@std@@@detail@xpressive@boost@@@?$mark_matcher@U?$regex_traits@DU?$cpp_regex_traits@D@xpressive@boost@@@xpressive@boost@@U?$bool_@$0A@@mpl@3@@detail@xpressive@boost@@QEBA_NAEAU?$match_state@V?$_String_const_iterator@V?$_String_val@U?$_Simple_types@D@std@@@std@@@std@@@123@AEBU?$matchable_ex@V?$_String_const_iterator@V?$_String_val@U?$_Simple_types@D@std@@@std@@@std@@@123@@Z 0000000180034e50 f i GRBLdlg.obj
 0001:00033f10       ??$match@V?$_String_const_iterator@V?$_String_val@U?$_Simple_types@D@std@@@std@@@std@@U?$matchable_ex@V?$_String_const_iterator@V?$_String_val@U?$_Simple_types@D@std@@@std@@@std@@@detail@xpressive@boost@@@?$mark_matcher@U?$regex_traits@DU?$cpp_regex_traits@D@xpressive@boost@@@xpressive@boost@@U?$bool_@$00@mpl@3@@detail@xpressive@boost@@QEBA_NAEAU?$match_state@V?$_String_const_iterator@V?$_String_val@U?$_Simple_types@D@std@@@std@@@std@@@123@AEBU?$matchable_ex@V?$_String_const_iterator@V?$_String_val@U?$_Simple_types@D@std@@@std@@@std@@@123@@Z 0000000180034f10 f i GRBLdlg.obj
 0001:00033fe0       ??$match@V?$_String_const_iterator@V?$_String_val@U?$_Simple_types@D@std@@@std@@@std@@U?$matchable_ex@V?$_String_const_iterator@V?$_String_val@U?$_Simple_types@D@std@@@std@@@std@@@detail@xpressive@boost@@@?$assert_word_matcher@Uword_end@detail@xpressive@boost@@U?$regex_traits@DU?$cpp_regex_traits@D@xpressive@boost@@@34@@detail@xpressive@boost@@QEBA_NAEAU?$match_state@V?$_String_const_iterator@V?$_String_val@U?$_Simple_types@D@std@@@std@@@std@@@123@AEBU?$matchable_ex@V?$_String_const_iterator@V?$_String_val@U?$_Simple_types@D@std@@@std@@@std@@@123@@Z 0000000180034fe0 f i GRBLdlg.obj
 0001:000340a0       ??$match@V?$_String_const_iterator@V?$_String_val@U?$_Simple_types@D@std@@@std@@@std@@U?$matchable_ex@V?$_String_const_iterator@V?$_String_val@U?$_Simple_types@D@std@@@std@@@std@@@detail@xpressive@boost@@@?$assert_word_matcher@Uword_begin@detail@xpressive@boost@@U?$regex_traits@DU?$cpp_regex_traits@D@xpressive@boost@@@34@@detail@xpressive@boost@@QEBA_NAEAU?$match_state@V?$_String_const_iterator@V?$_String_val@U?$_Simple_types@D@std@@@std@@@std@@@123@AEBU?$matchable_ex@V?$_String_const_iterator@V?$_String_val@U?$_Simple_types@D@std@@@std@@@std@@@123@@Z 00000001800350a0 f i GRBLdlg.obj
 0001:00034150       ??$match@V?$_String_const_iterator@V?$_String_val@U?$_Simple_types@D@std@@@std@@@std@@U?$matchable_ex@V?$_String_const_iterator@V?$_String_val@U?$_Simple_types@D@std@@@std@@@std@@@detail@xpressive@boost@@@?$assert_word_matcher@U?$word_boundary@U?$bool_@$0A@@mpl@boost@@@detail@xpressive@boost@@U?$regex_traits@DU?$cpp_regex_traits@D@xpressive@boost@@@34@@detail@xpressive@boost@@QEBA_NAEAU?$match_state@V?$_String_const_iterator@V?$_String_val@U?$_Simple_types@D@std@@@std@@@std@@@123@AEBU?$matchable_ex@V?$_String_const_iterator@V?$_String_val@U?$_Simple_types@D@std@@@std@@@std@@@123@@Z 0000000180035150 f i GRBLdlg.obj
 0001:00034210       ??$match@V?$_String_const_iterator@V?$_String_val@U?$_Simple_types@D@std@@@std@@@std@@U?$matchable_ex@V?$_String_const_iterator@V?$_String_val@U?$_Simple_types@D@std@@@std@@@std@@@detail@xpressive@boost@@@?$assert_word_matcher@U?$word_boundary@U?$bool_@$00@mpl@boost@@@detail@xpressive@boost@@U?$regex_traits@DU?$cpp_regex_traits@D@xpressive@boost@@@34@@detail@xpressive@boost@@QEBA_NAEAU?$match_state@V?$_String_const_iterator@V?$_String_val@U?$_Simple_types@D@std@@@std@@@std@@@123@AEBU?$matchable_ex@V?$_String_const_iterator@V?$_String_val@U?$_Simple_types@D@std@@@std@@@std@@@123@@Z 0000000180035210 f i GRBLdlg.obj
 0001:000342e0       ??$match@V?$_String_const_iterator@V?$_String_val@U?$_Simple_types@D@std@@@std@@@std@@U?$matchable_ex@V?$_String_const_iterator@V?$_String_val@U?$_Simple_types@D@std@@@std@@@std@@@detail@xpressive@boost@@@?$set_matcher@U?$regex_traits@DU?$cpp_regex_traits@D@xpressive@boost@@@xpressive@boost@@U?$int_@$01@mpl@3@@detail@xpressive@boost@@QEBA_NAEAU?$match_state@V?$_String_const_iterator@V?$_String_val@U?$_Simple_types@D@std@@@std@@@std@@@123@AEBU?$matchable_ex@V?$_String_const_iterator@V?$_String_val@U?$_Simple_types@D@std@@@std@@@std@@@123@@Z 00000001800352e0 f i GRBLdlg.obj
 0001:00034390       ??$match@V?$_String_const_iterator@V?$_String_val@U?$_Simple_types@D@std@@@std@@@std@@U?$matchable_ex@V?$_String_const_iterator@V?$_String_val@U?$_Simple_types@D@std@@@std@@@std@@@detail@xpressive@boost@@@?$string_matcher@U?$regex_traits@DU?$cpp_regex_traits@D@xpressive@boost@@@xpressive@boost@@U?$bool_@$0A@@mpl@3@@detail@xpressive@boost@@QEBA_NAEAU?$match_state@V?$_String_const_iterator@V?$_String_val@U?$_Simple_types@D@std@@@std@@@std@@@123@AEBU?$matchable_ex@V?$_String_const_iterator@V?$_String_val@U?$_Simple_types@D@std@@@std@@@std@@@123@@Z 0000000180035390 f i GRBLdlg.obj
 0001:00034430       ??$accept@U?$regex_traits@DU?$cpp_regex_traits@D@xpressive@boost@@@xpressive@boost@@U?$bool_@$00@mpl@3@@?$xpression_peeker@D@detail@xpressive@boost@@QEAA?AU?$bool_@$0A@@mpl@3@AEBU?$string_matcher@U?$regex_traits@DU?$cpp_regex_traits@D@xpressive@boost@@@xpressive@boost@@U?$bool_@$00@mpl@3@@123@@Z 0000000180035430 f i GRBLdlg.obj
 0001:00034500       ??$match@V?$_String_const_iterator@V?$_String_val@U?$_Simple_types@D@std@@@std@@@std@@U?$matchable_ex@V?$_String_const_iterator@V?$_String_val@U?$_Simple_types@D@std@@@std@@@std@@@detail@xpressive@boost@@@?$string_matcher@U?$regex_traits@DU?$cpp_regex_traits@D@xpressive@boost@@@xpressive@boost@@U?$bool_@$00@mpl@3@@detail@xpressive@boost@@QEBA_NAEAU?$match_state@V?$_String_const_iterator@V?$_String_val@U?$_Simple_types@D@std@@@std@@@std@@@123@AEBU?$matchable_ex@V?$_String_const_iterator@V?$_String_val@U?$_Simple_types@D@std@@@std@@@std@@@123@@Z 0000000180035500 f i GRBLdlg.obj
 0001:000345a0       ??$make_simple_repeat@V?$_String_const_iterator@V?$_String_val@U?$_Simple_types@D@std@@@std@@@std@@U?$matcher_wrapper@U?$posix_charset_matcher@U?$regex_traits@DU?$cpp_regex_traits@D@xpressive@boost@@@xpressive@boost@@@detail@xpressive@boost@@@detail@xpressive@boost@@@detail@xpressive@boost@@YAXAEBUquant_spec@012@AEAU?$sequence@V?$_String_const_iterator@V?$_String_val@U?$_Simple_types@D@std@@@std@@@std@@@012@AEBU?$matcher_wrapper@U?$posix_charset_matcher@U?$regex_traits@DU?$cpp_regex_traits@D@xpressive@boost@@@xpressive@boost@@@detail@xpressive@boost@@@012@@Z 00000001800355a0 f i GRBLdlg.obj
 0001:000346f0       ??$make_simple_repeat@V?$_String_const_iterator@V?$_String_val@U?$_Simple_types@D@std@@@std@@@std@@U?$matcher_wrapper@U?$literal_matcher@U?$regex_traits@DU?$cpp_regex_traits@D@xpressive@boost@@@xpressive@boost@@U?$bool_@$0A@@mpl@3@U453@@detail@xpressive@boost@@@detail@xpressive@boost@@@detail@xpressive@boost@@YAXAEBUquant_spec@012@AEAU?$sequence@V?$_String_const_iterator@V?$_String_val@U?$_Simple_types@D@std@@@std@@@std@@@012@AEBU?$matcher_wrapper@U?$literal_matcher@U?$regex_traits@DU?$cpp_regex_traits@D@xpressive@boost@@@xpressive@boost@@U?$bool_@$0A@@mpl@3@U453@@detail@xpressive@boost@@@012@@Z 00000001800356f0 f i GRBLdlg.obj
 0001:00034840       ??$make_simple_repeat@V?$_String_const_iterator@V?$_String_val@U?$_Simple_types@D@std@@@std@@@std@@U?$matcher_wrapper@U?$literal_matcher@U?$regex_traits@DU?$cpp_regex_traits@D@xpressive@boost@@@xpressive@boost@@U?$bool_@$00@mpl@3@U?$bool_@$0A@@53@@detail@xpressive@boost@@@detail@xpressive@boost@@@detail@xpressive@boost@@YAXAEBUquant_spec@012@AEAU?$sequence@V?$_String_const_iterator@V?$_String_val@U?$_Simple_types@D@std@@@std@@@std@@@012@AEBU?$matcher_wrapper@U?$literal_matcher@U?$regex_traits@DU?$cpp_regex_traits@D@xpressive@boost@@@xpressive@boost@@U?$bool_@$00@mpl@3@U?$bool_@$0A@@53@@detail@xpressive@boost@@@012@@Z 0000000180035840 f i GRBLdlg.obj
 0001:00034990       ??$make_simple_repeat@V?$_String_const_iterator@V?$_String_val@U?$_Simple_types@D@std@@@std@@@std@@U?$matcher_wrapper@Uany_matcher@detail@xpressive@boost@@@detail@xpressive@boost@@@detail@xpressive@boost@@YAXAEBUquant_spec@012@AEAU?$sequence@V?$_String_const_iterator@V?$_String_val@U?$_Simple_types@D@std@@@std@@@std@@@012@AEBU?$matcher_wrapper@Uany_matcher@detail@xpressive@boost@@@012@@Z 0000000180035990 f i GRBLdlg.obj
 0001:00034ae0       ??$make_simple_repeat@V?$_String_const_iterator@V?$_String_val@U?$_Simple_types@D@std@@@std@@@std@@U?$matcher_wrapper@U?$set_matcher@U?$regex_traits@DU?$cpp_regex_traits@D@xpressive@boost@@@xpressive@boost@@U?$int_@$01@mpl@3@@detail@xpressive@boost@@@detail@xpressive@boost@@@detail@xpressive@boost@@YAXAEBUquant_spec@012@AEAU?$sequence@V?$_String_const_iterator@V?$_String_val@U?$_Simple_types@D@std@@@std@@@std@@@012@AEBU?$matcher_wrapper@U?$set_matcher@U?$regex_traits@DU?$cpp_regex_traits@D@xpressive@boost@@@xpressive@boost@@U?$int_@$01@mpl@3@@detail@xpressive@boost@@@012@@Z 0000000180035ae0 f i GRBLdlg.obj
 0001:00034c30       ??$make_simple_repeat@V?$_String_const_iterator@V?$_String_val@U?$_Simple_types@D@std@@@std@@@std@@U?$matcher_wrapper@U?$literal_matcher@U?$regex_traits@DU?$cpp_regex_traits@D@xpressive@boost@@@xpressive@boost@@U?$bool_@$0A@@mpl@3@U?$bool_@$00@53@@detail@xpressive@boost@@@detail@xpressive@boost@@@detail@xpressive@boost@@YAXAEBUquant_spec@012@AEAU?$sequence@V?$_String_const_iterator@V?$_String_val@U?$_Simple_types@D@std@@@std@@@std@@@012@AEBU?$matcher_wrapper@U?$literal_matcher@U?$regex_traits@DU?$cpp_regex_traits@D@xpressive@boost@@@xpressive@boost@@U?$bool_@$0A@@mpl@3@U?$bool_@$00@53@@detail@xpressive@boost@@@012@@Z 0000000180035c30 f i GRBLdlg.obj
 0001:00034d80       ??$make_simple_repeat@V?$_String_const_iterator@V?$_String_val@U?$_Simple_types@D@std@@@std@@@std@@U?$matcher_wrapper@U?$string_matcher@U?$regex_traits@DU?$cpp_regex_traits@D@xpressive@boost@@@xpressive@boost@@U?$bool_@$0A@@mpl@3@@detail@xpressive@boost@@@detail@xpressive@boost@@@detail@xpressive@boost@@YAXAEBUquant_spec@012@AEAU?$sequence@V?$_String_const_iterator@V?$_String_val@U?$_Simple_types@D@std@@@std@@@std@@@012@AEBU?$matcher_wrapper@U?$string_matcher@U?$regex_traits@DU?$cpp_regex_traits@D@xpressive@boost@@@xpressive@boost@@U?$bool_@$0A@@mpl@3@@detail@xpressive@boost@@@012@@Z 0000000180035d80 f i GRBLdlg.obj
 0001:00034fa0       ??$make_simple_repeat@V?$_String_const_iterator@V?$_String_val@U?$_Simple_types@D@std@@@std@@@std@@U?$matcher_wrapper@U?$string_matcher@U?$regex_traits@DU?$cpp_regex_traits@D@xpressive@boost@@@xpressive@boost@@U?$bool_@$00@mpl@3@@detail@xpressive@boost@@@detail@xpressive@boost@@@detail@xpressive@boost@@YAXAEBUquant_spec@012@AEAU?$sequence@V?$_String_const_iterator@V?$_String_val@U?$_Simple_types@D@std@@@std@@@std@@@012@AEBU?$matcher_wrapper@U?$string_matcher@U?$regex_traits@DU?$cpp_regex_traits@D@xpressive@boost@@@xpressive@boost@@U?$bool_@$00@mpl@3@@detail@xpressive@boost@@@012@@Z 0000000180035fa0 f i GRBLdlg.obj
 0001:000351c0       ?repeat@?$dynamic_xpression@U?$charset_matcher@U?$regex_traits@DU?$cpp_regex_traits@D@xpressive@boost@@@xpressive@boost@@U?$bool_@$0A@@mpl@3@U?$compound_charset@U?$regex_traits@DU?$cpp_regex_traits@D@xpressive@boost@@@xpressive@boost@@@detail@23@@detail@xpressive@boost@@V?$_String_const_iterator@V?$_String_val@U?$_Simple_types@D@std@@@std@@@std@@@detail@xpressive@boost@@UEBAXAEBUquant_spec@234@AEAU?$sequence@V?$_String_const_iterator@V?$_String_val@U?$_Simple_types@D@std@@@std@@@std@@@234@@Z 00000001800361c0 f i GRBLdlg.obj
 0001:000351d0       ?link@?$dynamic_xpression@U?$simple_repeat_matcher@U?$matcher_wrapper@U?$string_matcher@U?$regex_traits@DU?$cpp_regex_traits@D@xpressive@boost@@@xpressive@boost@@U?$bool_@$00@mpl@3@@detail@xpressive@boost@@@detail@xpressive@boost@@U?$bool_@$00@mpl@4@@detail@xpressive@boost@@V?$_String_const_iterator@V?$_String_val@U?$_Simple_types@D@std@@@std@@@std@@@detail@xpressive@boost@@UEBAXAEAU?$xpression_linker@D@234@@Z 00000001800361d0 f i GRBLdlg.obj
 0001:000351d0       ?link@?$dynamic_xpression@U?$simple_repeat_matcher@U?$matcher_wrapper@U?$string_matcher@U?$regex_traits@DU?$cpp_regex_traits@D@xpressive@boost@@@xpressive@boost@@U?$bool_@$0A@@mpl@3@@detail@xpressive@boost@@@detail@xpressive@boost@@U?$bool_@$0A@@mpl@4@@detail@xpressive@boost@@V?$_String_const_iterator@V?$_String_val@U?$_Simple_types@D@std@@@std@@@std@@@detail@xpressive@boost@@UEBAXAEAU?$xpression_linker@D@234@@Z 00000001800361d0 f i GRBLdlg.obj
 0001:000351d0       ?link@?$dynamic_xpression@U?$simple_repeat_matcher@U?$matcher_wrapper@U?$string_matcher@U?$regex_traits@DU?$cpp_regex_traits@D@xpressive@boost@@@xpressive@boost@@U?$bool_@$0A@@mpl@3@@detail@xpressive@boost@@@detail@xpressive@boost@@U?$bool_@$00@mpl@4@@detail@xpressive@boost@@V?$_String_const_iterator@V?$_String_val@U?$_Simple_types@D@std@@@std@@@std@@@detail@xpressive@boost@@UEBAXAEAU?$xpression_linker@D@234@@Z 00000001800361d0 f i GRBLdlg.obj
 0001:000351d0       ?link@?$dynamic_xpression@U?$simple_repeat_matcher@U?$matcher_wrapper@U?$string_matcher@U?$regex_traits@DU?$cpp_regex_traits@D@xpressive@boost@@@xpressive@boost@@U?$bool_@$00@mpl@3@@detail@xpressive@boost@@@detail@xpressive@boost@@U?$bool_@$0A@@mpl@4@@detail@xpressive@boost@@V?$_String_const_iterator@V?$_String_val@U?$_Simple_types@D@std@@@std@@@std@@@detail@xpressive@boost@@UEBAXAEAU?$xpression_linker@D@234@@Z 00000001800361d0 f i GRBLdlg.obj
 0001:000351d0       ?link@?$dynamic_xpression@U?$charset_matcher@U?$regex_traits@DU?$cpp_regex_traits@D@xpressive@boost@@@xpressive@boost@@U?$bool_@$00@mpl@3@U?$compound_charset@U?$regex_traits@DU?$cpp_regex_traits@D@xpressive@boost@@@xpressive@boost@@@detail@23@@detail@xpressive@boost@@V?$_String_const_iterator@V?$_String_val@U?$_Simple_types@D@std@@@std@@@std@@@detail@xpressive@boost@@UEBAXAEAU?$xpression_linker@D@234@@Z 00000001800361d0 f i GRBLdlg.obj
 0001:000351d0       ?link@?$dynamic_xpression@U?$charset_matcher@U?$regex_traits@DU?$cpp_regex_traits@D@xpressive@boost@@@xpressive@boost@@U?$bool_@$0A@@mpl@3@U?$compound_charset@U?$regex_traits@DU?$cpp_regex_traits@D@xpressive@boost@@@xpressive@boost@@@detail@23@@detail@xpressive@boost@@V?$_String_const_iterator@V?$_String_val@U?$_Simple_types@D@std@@@std@@@std@@@detail@xpressive@boost@@UEBAXAEAU?$xpression_linker@D@234@@Z 00000001800361d0 f i GRBLdlg.obj
 0001:000351e0       ?match@?$dynamic_xpression@U?$charset_matcher@U?$regex_traits@DU?$cpp_regex_traits@D@xpressive@boost@@@xpressive@boost@@U?$bool_@$0A@@mpl@3@U?$compound_charset@U?$regex_traits@DU?$cpp_regex_traits@D@xpressive@boost@@@xpressive@boost@@@detail@23@@detail@xpressive@boost@@V?$_String_const_iterator@V?$_String_val@U?$_Simple_types@D@std@@@std@@@std@@@detail@xpressive@boost@@UEBA_NAEAU?$match_state@V?$_String_const_iterator@V?$_String_val@U?$_Simple_types@D@std@@@std@@@std@@@234@@Z 00000001800361e0 f i GRBLdlg.obj
 0001:00035240       ?repeat@?$dynamic_xpression@U?$charset_matcher@U?$regex_traits@DU?$cpp_regex_traits@D@xpressive@boost@@@xpressive@boost@@U?$bool_@$00@mpl@3@U?$compound_charset@U?$regex_traits@DU?$cpp_regex_traits@D@xpressive@boost@@@xpressive@boost@@@detail@23@@detail@xpressive@boost@@V?$_String_const_iterator@V?$_String_val@U?$_Simple_types@D@std@@@std@@@std@@@detail@xpressive@boost@@UEBAXAEBUquant_spec@234@AEAU?$sequence@V?$_String_const_iterator@V?$_String_val@U?$_Simple_types@D@std@@@std@@@std@@@234@@Z 0000000180036240 f i GRBLdlg.obj
 0001:00035250       ?match@?$dynamic_xpression@U?$charset_matcher@U?$regex_traits@DU?$cpp_regex_traits@D@xpressive@boost@@@xpressive@boost@@U?$bool_@$00@mpl@3@U?$compound_charset@U?$regex_traits@DU?$cpp_regex_traits@D@xpressive@boost@@@xpressive@boost@@@detail@23@@detail@xpressive@boost@@V?$_String_const_iterator@V?$_String_val@U?$_Simple_types@D@std@@@std@@@std@@@detail@xpressive@boost@@UEBA_NAEAU?$match_state@V?$_String_const_iterator@V?$_String_val@U?$_Simple_types@D@std@@@std@@@std@@@234@@Z 0000000180036250 f i GRBLdlg.obj
 0001:000352d0       ?repeat@?$dynamic_xpression@U?$charset_matcher@U?$regex_traits@DU?$cpp_regex_traits@D@xpressive@boost@@@xpressive@boost@@U?$bool_@$0A@@mpl@3@U?$basic_chset@D@detail@23@@detail@xpressive@boost@@V?$_String_const_iterator@V?$_String_val@U?$_Simple_types@D@std@@@std@@@std@@@detail@xpressive@boost@@UEBAXAEBUquant_spec@234@AEAU?$sequence@V?$_String_const_iterator@V?$_String_val@U?$_Simple_types@D@std@@@std@@@std@@@234@@Z 00000001800362d0 f i GRBLdlg.obj
 0001:000352e0       ?peek@?$dynamic_xpression@U?$charset_matcher@U?$regex_traits@DU?$cpp_regex_traits@D@xpressive@boost@@@xpressive@boost@@U?$bool_@$0A@@mpl@3@U?$basic_chset@D@detail@23@@detail@xpressive@boost@@V?$_String_const_iterator@V?$_String_val@U?$_Simple_types@D@std@@@std@@@std@@@detail@xpressive@boost@@UEBAXAEAU?$xpression_peeker@D@234@@Z 00000001800362e0 f i GRBLdlg.obj
 0001:00035350       ?link@?$dynamic_xpression@U?$simple_repeat_matcher@U?$matcher_wrapper@U?$literal_matcher@U?$regex_traits@DU?$cpp_regex_traits@D@xpressive@boost@@@xpressive@boost@@U?$bool_@$0A@@mpl@3@U?$bool_@$00@53@@detail@xpressive@boost@@@detail@xpressive@boost@@U?$bool_@$0A@@mpl@4@@detail@xpressive@boost@@V?$_String_const_iterator@V?$_String_val@U?$_Simple_types@D@std@@@std@@@std@@@detail@xpressive@boost@@UEBAXAEAU?$xpression_linker@D@234@@Z 0000000180036350 f i GRBLdlg.obj
 0001:00035350       ?link@?$dynamic_xpression@U?$charset_matcher@U?$regex_traits@DU?$cpp_regex_traits@D@xpressive@boost@@@xpressive@boost@@U?$bool_@$00@mpl@3@U?$basic_chset@D@detail@23@@detail@xpressive@boost@@V?$_String_const_iterator@V?$_String_val@U?$_Simple_types@D@std@@@std@@@std@@@detail@xpressive@boost@@UEBAXAEAU?$xpression_linker@D@234@@Z 0000000180036350 f i GRBLdlg.obj
 0001:00035350       ?link@?$dynamic_xpression@U?$simple_repeat_matcher@U?$matcher_wrapper@U?$posix_charset_matcher@U?$regex_traits@DU?$cpp_regex_traits@D@xpressive@boost@@@xpressive@boost@@@detail@xpressive@boost@@@detail@xpressive@boost@@U?$bool_@$0A@@mpl@4@@detail@xpressive@boost@@V?$_String_const_iterator@V?$_String_val@U?$_Simple_types@D@std@@@std@@@std@@@detail@xpressive@boost@@UEBAXAEAU?$xpression_linker@D@234@@Z 0000000180036350 f i GRBLdlg.obj
 0001:00035350       ?link@?$dynamic_xpression@U?$simple_repeat_matcher@U?$matcher_wrapper@U?$literal_matcher@U?$regex_traits@DU?$cpp_regex_traits@D@xpressive@boost@@@xpressive@boost@@U?$bool_@$00@mpl@3@U?$bool_@$0A@@53@@detail@xpressive@boost@@@detail@xpressive@boost@@U?$bool_@$00@mpl@4@@detail@xpressive@boost@@V?$_String_const_iterator@V?$_String_val@U?$_Simple_types@D@std@@@std@@@std@@@detail@xpressive@boost@@UEBAXAEAU?$xpression_linker@D@234@@Z 0000000180036350 f i GRBLdlg.obj
 0001:00035350       ?link@?$dynamic_xpression@U?$simple_repeat_matcher@U?$matcher_wrapper@U?$set_matcher@U?$regex_traits@DU?$cpp_regex_traits@D@xpressive@boost@@@xpressive@boost@@U?$int_@$01@mpl@3@@detail@xpressive@boost@@@detail@xpressive@boost@@U?$bool_@$0A@@mpl@4@@detail@xpressive@boost@@V?$_String_const_iterator@V?$_String_val@U?$_Simple_types@D@std@@@std@@@std@@@detail@xpressive@boost@@UEBAXAEAU?$xpression_linker@D@234@@Z 0000000180036350 f i GRBLdlg.obj
 0001:00035350       ?link@?$dynamic_xpression@U?$simple_repeat_matcher@U?$matcher_wrapper@U?$literal_matcher@U?$regex_traits@DU?$cpp_regex_traits@D@xpressive@boost@@@xpressive@boost@@U?$bool_@$0A@@mpl@3@U453@@detail@xpressive@boost@@@detail@xpressive@boost@@U?$bool_@$00@mpl@4@@detail@xpressive@boost@@V?$_String_const_iterator@V?$_String_val@U?$_Simple_types@D@std@@@std@@@std@@@detail@xpressive@boost@@UEBAXAEAU?$xpression_linker@D@234@@Z 0000000180036350 f i GRBLdlg.obj
 0001:00035350       ?link@?$dynamic_xpression@U?$simple_repeat_matcher@U?$matcher_wrapper@U?$literal_matcher@U?$regex_traits@DU?$cpp_regex_traits@D@xpressive@boost@@@xpressive@boost@@U?$bool_@$0A@@mpl@3@U453@@detail@xpressive@boost@@@detail@xpressive@boost@@U?$bool_@$0A@@mpl@4@@detail@xpressive@boost@@V?$_String_const_iterator@V?$_String_val@U?$_Simple_types@D@std@@@std@@@std@@@detail@xpressive@boost@@UEBAXAEAU?$xpression_linker@D@234@@Z 0000000180036350 f i GRBLdlg.obj
 0001:00035350       ?link@?$dynamic_xpression@U?$simple_repeat_matcher@U?$matcher_wrapper@U?$literal_matcher@U?$regex_traits@DU?$cpp_regex_traits@D@xpressive@boost@@@xpressive@boost@@U?$bool_@$00@mpl@3@U?$bool_@$0A@@53@@detail@xpressive@boost@@@detail@xpressive@boost@@U?$bool_@$0A@@mpl@4@@detail@xpressive@boost@@V?$_String_const_iterator@V?$_String_val@U?$_Simple_types@D@std@@@std@@@std@@@detail@xpressive@boost@@UEBAXAEAU?$xpression_linker@D@234@@Z 0000000180036350 f i GRBLdlg.obj
 0001:00035350       ?link@?$dynamic_xpression@U?$simple_repeat_matcher@U?$matcher_wrapper@U?$set_matcher@U?$regex_traits@DU?$cpp_regex_traits@D@xpressive@boost@@@xpressive@boost@@U?$int_@$01@mpl@3@@detail@xpressive@boost@@@detail@xpressive@boost@@U?$bool_@$00@mpl@4@@detail@xpressive@boost@@V?$_String_const_iterator@V?$_String_val@U?$_Simple_types@D@std@@@std@@@std@@@detail@xpressive@boost@@UEBAXAEAU?$xpression_linker@D@234@@Z 0000000180036350 f i GRBLdlg.obj
 0001:00035350       ?link@?$dynamic_xpression@U?$simple_repeat_matcher@U?$matcher_wrapper@U?$literal_matcher@U?$regex_traits@DU?$cpp_regex_traits@D@xpressive@boost@@@xpressive@boost@@U?$bool_@$0A@@mpl@3@U?$bool_@$00@53@@detail@xpressive@boost@@@detail@xpressive@boost@@U?$bool_@$00@mpl@4@@detail@xpressive@boost@@V?$_String_const_iterator@V?$_String_val@U?$_Simple_types@D@std@@@std@@@std@@@detail@xpressive@boost@@UEBAXAEAU?$xpression_linker@D@234@@Z 0000000180036350 f i GRBLdlg.obj
 0001:00035350       ?link@?$dynamic_xpression@U?$charset_matcher@U?$regex_traits@DU?$cpp_regex_traits@D@xpressive@boost@@@xpressive@boost@@U?$bool_@$0A@@mpl@3@U?$basic_chset@D@detail@23@@detail@xpressive@boost@@V?$_String_const_iterator@V?$_String_val@U?$_Simple_types@D@std@@@std@@@std@@@detail@xpressive@boost@@UEBAXAEAU?$xpression_linker@D@234@@Z 0000000180036350 f i GRBLdlg.obj
 0001:00035350       ?link@?$dynamic_xpression@U?$simple_repeat_matcher@U?$matcher_wrapper@Uany_matcher@detail@xpressive@boost@@@detail@xpressive@boost@@U?$bool_@$00@mpl@4@@detail@xpressive@boost@@V?$_String_const_iterator@V?$_String_val@U?$_Simple_types@D@std@@@std@@@std@@@detail@xpressive@boost@@UEBAXAEAU?$xpression_linker@D@234@@Z 0000000180036350 f i GRBLdlg.obj
 0001:00035350       ?link@?$dynamic_xpression@U?$simple_repeat_matcher@U?$matcher_wrapper@Uany_matcher@detail@xpressive@boost@@@detail@xpressive@boost@@U?$bool_@$0A@@mpl@4@@detail@xpressive@boost@@V?$_String_const_iterator@V?$_String_val@U?$_Simple_types@D@std@@@std@@@std@@@detail@xpressive@boost@@UEBAXAEAU?$xpression_linker@D@234@@Z 0000000180036350 f i GRBLdlg.obj
 0001:00035350       ?link@?$dynamic_xpression@U?$simple_repeat_matcher@U?$matcher_wrapper@U?$posix_charset_matcher@U?$regex_traits@DU?$cpp_regex_traits@D@xpressive@boost@@@xpressive@boost@@@detail@xpressive@boost@@@detail@xpressive@boost@@U?$bool_@$00@mpl@4@@detail@xpressive@boost@@V?$_String_const_iterator@V?$_String_val@U?$_Simple_types@D@std@@@std@@@std@@@detail@xpressive@boost@@UEBAXAEAU?$xpression_linker@D@234@@Z 0000000180036350 f i GRBLdlg.obj
 0001:00035360       ?match@?$dynamic_xpression@U?$charset_matcher@U?$regex_traits@DU?$cpp_regex_traits@D@xpressive@boost@@@xpressive@boost@@U?$bool_@$0A@@mpl@3@U?$basic_chset@D@detail@23@@detail@xpressive@boost@@V?$_String_const_iterator@V?$_String_val@U?$_Simple_types@D@std@@@std@@@std@@@detail@xpressive@boost@@UEBA_NAEAU?$match_state@V?$_String_const_iterator@V?$_String_val@U?$_Simple_types@D@std@@@std@@@std@@@234@@Z 0000000180036360 f i GRBLdlg.obj
 0001:000353d0       ?repeat@?$dynamic_xpression@U?$charset_matcher@U?$regex_traits@DU?$cpp_regex_traits@D@xpressive@boost@@@xpressive@boost@@U?$bool_@$00@mpl@3@U?$basic_chset@D@detail@23@@detail@xpressive@boost@@V?$_String_const_iterator@V?$_String_val@U?$_Simple_types@D@std@@@std@@@std@@@detail@xpressive@boost@@UEBAXAEBUquant_spec@234@AEAU?$sequence@V?$_String_const_iterator@V?$_String_val@U?$_Simple_types@D@std@@@std@@@std@@@234@@Z 00000001800363d0 f i GRBLdlg.obj
 0001:000353e0       ?peek@?$dynamic_xpression@U?$charset_matcher@U?$regex_traits@DU?$cpp_regex_traits@D@xpressive@boost@@@xpressive@boost@@U?$bool_@$00@mpl@3@U?$basic_chset@D@detail@23@@detail@xpressive@boost@@V?$_String_const_iterator@V?$_String_val@U?$_Simple_types@D@std@@@std@@@std@@@detail@xpressive@boost@@UEBAXAEAU?$xpression_peeker@D@234@@Z 00000001800363e0 f i GRBLdlg.obj
 0001:00035450       ?match@?$dynamic_xpression@U?$charset_matcher@U?$regex_traits@DU?$cpp_regex_traits@D@xpressive@boost@@@xpressive@boost@@U?$bool_@$00@mpl@3@U?$basic_chset@D@detail@23@@detail@xpressive@boost@@V?$_String_const_iterator@V?$_String_val@U?$_Simple_types@D@std@@@std@@@std@@@detail@xpressive@boost@@UEBA_NAEAU?$match_state@V?$_String_const_iterator@V?$_String_val@U?$_Simple_types@D@std@@@std@@@std@@@234@@Z 0000000180036450 f i GRBLdlg.obj
 0001:00035460       ?repeat@?$dynamic_xpression@Uindependent_end_matcher@detail@xpressive@boost@@V?$_String_const_iterator@V?$_String_val@U?$_Simple_types@D@std@@@std@@@std@@@detail@xpressive@boost@@UEBAXAEBUquant_spec@234@AEAU?$sequence@V?$_String_const_iterator@V?$_String_val@U?$_Simple_types@D@std@@@std@@@std@@@234@@Z 0000000180036460 f i GRBLdlg.obj
 0001:00035470       ?match@?$dynamic_xpression@Uindependent_end_matcher@detail@xpressive@boost@@V?$_String_const_iterator@V?$_String_val@U?$_Simple_types@D@std@@@std@@@std@@@detail@xpressive@boost@@UEBA_NAEAU?$match_state@V?$_String_const_iterator@V?$_String_val@U?$_Simple_types@D@std@@@std@@@std@@@234@@Z 0000000180036470 f i GRBLdlg.obj
 0001:000354c0       ??_E?$dynamic_xpression@U?$charset_matcher@U?$regex_traits@DU?$cpp_regex_traits@D@xpressive@boost@@@xpressive@boost@@U?$bool_@$0A@@mpl@3@U?$compound_charset@U?$regex_traits@DU?$cpp_regex_traits@D@xpressive@boost@@@xpressive@boost@@@detail@23@@detail@xpressive@boost@@V?$_String_const_iterator@V?$_String_val@U?$_Simple_types@D@std@@@std@@@std@@@detail@xpressive@boost@@UEAAPEAXI@Z 00000001800364c0 f i * CIL library *:* CIL module *
 0001:000354c0       ??_G?$dynamic_xpression@U?$charset_matcher@U?$regex_traits@DU?$cpp_regex_traits@D@xpressive@boost@@@xpressive@boost@@U?$bool_@$00@mpl@3@U?$compound_charset@U?$regex_traits@DU?$cpp_regex_traits@D@xpressive@boost@@@xpressive@boost@@@detail@23@@detail@xpressive@boost@@V?$_String_const_iterator@V?$_String_val@U?$_Simple_types@D@std@@@std@@@std@@@detail@xpressive@boost@@UEAAPEAXI@Z 00000001800364c0 f i GRBLdlg.obj
 0001:000354c0       ??_E?$dynamic_xpression@U?$charset_matcher@U?$regex_traits@DU?$cpp_regex_traits@D@xpressive@boost@@@xpressive@boost@@U?$bool_@$00@mpl@3@U?$compound_charset@U?$regex_traits@DU?$cpp_regex_traits@D@xpressive@boost@@@xpressive@boost@@@detail@23@@detail@xpressive@boost@@V?$_String_const_iterator@V?$_String_val@U?$_Simple_types@D@std@@@std@@@std@@@detail@xpressive@boost@@UEAAPEAXI@Z 00000001800364c0 f i * CIL library *:* CIL module *
 0001:000354c0       ??_G?$dynamic_xpression@U?$charset_matcher@U?$regex_traits@DU?$cpp_regex_traits@D@xpressive@boost@@@xpressive@boost@@U?$bool_@$0A@@mpl@3@U?$compound_charset@U?$regex_traits@DU?$cpp_regex_traits@D@xpressive@boost@@@xpressive@boost@@@detail@23@@detail@xpressive@boost@@V?$_String_const_iterator@V?$_String_val@U?$_Simple_types@D@std@@@std@@@std@@@detail@xpressive@boost@@UEAAPEAXI@Z 00000001800364c0 f i GRBLdlg.obj
 0001:00035500       ??1?$dynamic_xpression@U?$charset_matcher@U?$regex_traits@DU?$cpp_regex_traits@D@xpressive@boost@@@xpressive@boost@@U?$bool_@$0A@@mpl@3@U?$compound_charset@U?$regex_traits@DU?$cpp_regex_traits@D@xpressive@boost@@@xpressive@boost@@@detail@23@@detail@xpressive@boost@@V?$_String_const_iterator@V?$_String_val@U?$_Simple_types@D@std@@@std@@@std@@@detail@xpressive@boost@@UEAA@XZ 0000000180036500 f i GRBLdlg.obj
 0001:00035500       ??1?$dynamic_xpression@U?$charset_matcher@U?$regex_traits@DU?$cpp_regex_traits@D@xpressive@boost@@@xpressive@boost@@U?$bool_@$00@mpl@3@U?$compound_charset@U?$regex_traits@DU?$cpp_regex_traits@D@xpressive@boost@@@xpressive@boost@@@detail@23@@detail@xpressive@boost@@V?$_String_const_iterator@V?$_String_val@U?$_Simple_types@D@std@@@std@@@std@@@detail@xpressive@boost@@UEAA@XZ 0000000180036500 f i GRBLdlg.obj
 0001:00035580       ??_G?$dynamic_xpression@U?$simple_repeat_matcher@U?$matcher_wrapper@U?$set_matcher@U?$regex_traits@DU?$cpp_regex_traits@D@xpressive@boost@@@xpressive@boost@@U?$int_@$01@mpl@3@@detail@xpressive@boost@@@detail@xpressive@boost@@U?$bool_@$0A@@mpl@4@@detail@xpressive@boost@@V?$_String_const_iterator@V?$_String_val@U?$_Simple_types@D@std@@@std@@@std@@@detail@xpressive@boost@@UEAAPEAXI@Z 0000000180036580 f i GRBLdlg.obj
 0001:00035580       ??_G?$dynamic_xpression@U?$simple_repeat_matcher@U?$matcher_wrapper@U?$literal_matcher@U?$regex_traits@DU?$cpp_regex_traits@D@xpressive@boost@@@xpressive@boost@@U?$bool_@$0A@@mpl@3@U?$bool_@$00@53@@detail@xpressive@boost@@@detail@xpressive@boost@@U?$bool_@$0A@@mpl@4@@detail@xpressive@boost@@V?$_String_const_iterator@V?$_String_val@U?$_Simple_types@D@std@@@std@@@std@@@detail@xpressive@boost@@UEAAPEAXI@Z 0000000180036580 f i GRBLdlg.obj
 0001:00035580       ??_E?$dynamic_xpression@U?$simple_repeat_matcher@U?$matcher_wrapper@U?$literal_matcher@U?$regex_traits@DU?$cpp_regex_traits@D@xpressive@boost@@@xpressive@boost@@U?$bool_@$0A@@mpl@3@U?$bool_@$00@53@@detail@xpressive@boost@@@detail@xpressive@boost@@U?$bool_@$00@mpl@4@@detail@xpressive@boost@@V?$_String_const_iterator@V?$_String_val@U?$_Simple_types@D@std@@@std@@@std@@@detail@xpressive@boost@@UEAAPEAXI@Z 0000000180036580 f i * CIL library *:* CIL module *
 0001:00035580       ??_G?$dynamic_xpression@U?$simple_repeat_matcher@U?$matcher_wrapper@Uany_matcher@detail@xpressive@boost@@@detail@xpressive@boost@@U?$bool_@$0A@@mpl@4@@detail@xpressive@boost@@V?$_String_const_iterator@V?$_String_val@U?$_Simple_types@D@std@@@std@@@std@@@detail@xpressive@boost@@UEAAPEAXI@Z 0000000180036580 f i GRBLdlg.obj
 0001:00035580       ??_E?$dynamic_xpression@U?$simple_repeat_matcher@U?$matcher_wrapper@U?$literal_matcher@U?$regex_traits@DU?$cpp_regex_traits@D@xpressive@boost@@@xpressive@boost@@U?$bool_@$00@mpl@3@U?$bool_@$0A@@53@@detail@xpressive@boost@@@detail@xpressive@boost@@U?$bool_@$0A@@mpl@4@@detail@xpressive@boost@@V?$_String_const_iterator@V?$_String_val@U?$_Simple_types@D@std@@@std@@@std@@@detail@xpressive@boost@@UEAAPEAXI@Z 0000000180036580 f i * CIL library *:* CIL module *
 0001:00035580       ??_G?$dynamic_xpression@U?$simple_repeat_matcher@U?$matcher_wrapper@U?$posix_charset_matcher@U?$regex_traits@DU?$cpp_regex_traits@D@xpressive@boost@@@xpressive@boost@@@detail@xpressive@boost@@@detail@xpressive@boost@@U?$bool_@$00@mpl@4@@detail@xpressive@boost@@V?$_String_const_iterator@V?$_String_val@U?$_Simple_types@D@std@@@std@@@std@@@detail@xpressive@boost@@UEAAPEAXI@Z 0000000180036580 f i GRBLdlg.obj
 0001:00035580       ??_G?$dynamic_xpression@U?$simple_repeat_matcher@U?$matcher_wrapper@U?$literal_matcher@U?$regex_traits@DU?$cpp_regex_traits@D@xpressive@boost@@@xpressive@boost@@U?$bool_@$0A@@mpl@3@U?$bool_@$00@53@@detail@xpressive@boost@@@detail@xpressive@boost@@U?$bool_@$00@mpl@4@@detail@xpressive@boost@@V?$_String_const_iterator@V?$_String_val@U?$_Simple_types@D@std@@@std@@@std@@@detail@xpressive@boost@@UEAAPEAXI@Z 0000000180036580 f i GRBLdlg.obj
 0001:00035580       ??_G?$dynamic_xpression@U?$charset_matcher@U?$regex_traits@DU?$cpp_regex_traits@D@xpressive@boost@@@xpressive@boost@@U?$bool_@$00@mpl@3@U?$basic_chset@D@detail@23@@detail@xpressive@boost@@V?$_String_const_iterator@V?$_String_val@U?$_Simple_types@D@std@@@std@@@std@@@detail@xpressive@boost@@UEAAPEAXI@Z 0000000180036580 f i GRBLdlg.obj
 0001:00035580       ??_E?$dynamic_xpression@U?$simple_repeat_matcher@U?$matcher_wrapper@Uany_matcher@detail@xpressive@boost@@@detail@xpressive@boost@@U?$bool_@$00@mpl@4@@detail@xpressive@boost@@V?$_String_const_iterator@V?$_String_val@U?$_Simple_types@D@std@@@std@@@std@@@detail@xpressive@boost@@UEAAPEAXI@Z 0000000180036580 f i * CIL library *:* CIL module *
 0001:00035580       ??_E?$dynamic_xpression@U?$simple_repeat_matcher@U?$matcher_wrapper@U?$set_matcher@U?$regex_traits@DU?$cpp_regex_traits@D@xpressive@boost@@@xpressive@boost@@U?$int_@$01@mpl@3@@detail@xpressive@boost@@@detail@xpressive@boost@@U?$bool_@$0A@@mpl@4@@detail@xpressive@boost@@V?$_String_const_iterator@V?$_String_val@U?$_Simple_types@D@std@@@std@@@std@@@detail@xpressive@boost@@UEAAPEAXI@Z 0000000180036580 f i * CIL library *:* CIL module *
 0001:00035580       ??_G?$dynamic_xpression@U?$simple_repeat_matcher@U?$matcher_wrapper@U?$literal_matcher@U?$regex_traits@DU?$cpp_regex_traits@D@xpressive@boost@@@xpressive@boost@@U?$bool_@$00@mpl@3@U?$bool_@$0A@@53@@detail@xpressive@boost@@@detail@xpressive@boost@@U?$bool_@$0A@@mpl@4@@detail@xpressive@boost@@V?$_String_const_iterator@V?$_String_val@U?$_Simple_types@D@std@@@std@@@std@@@detail@xpressive@boost@@UEAAPEAXI@Z 0000000180036580 f i GRBLdlg.obj
 0001:00035580       ??_E?$dynamic_xpression@U?$charset_matcher@U?$regex_traits@DU?$cpp_regex_traits@D@xpressive@boost@@@xpressive@boost@@U?$bool_@$00@mpl@3@U?$basic_chset@D@detail@23@@detail@xpressive@boost@@V?$_String_const_iterator@V?$_String_val@U?$_Simple_types@D@std@@@std@@@std@@@detail@xpressive@boost@@UEAAPEAXI@Z 0000000180036580 f i * CIL library *:* CIL module *
 0001:00035580       ??_E?$dynamic_xpression@U?$simple_repeat_matcher@U?$matcher_wrapper@U?$literal_matcher@U?$regex_traits@DU?$cpp_regex_traits@D@xpressive@boost@@@xpressive@boost@@U?$bool_@$0A@@mpl@3@U453@@detail@xpressive@boost@@@detail@xpressive@boost@@U?$bool_@$00@mpl@4@@detail@xpressive@boost@@V?$_String_const_iterator@V?$_String_val@U?$_Simple_types@D@std@@@std@@@std@@@detail@xpressive@boost@@UEAAPEAXI@Z 0000000180036580 f i * CIL library *:* CIL module *
 0001:00035580       ??_E?$dynamic_xpression@U?$simple_repeat_matcher@U?$matcher_wrapper@U?$literal_matcher@U?$regex_traits@DU?$cpp_regex_traits@D@xpressive@boost@@@xpressive@boost@@U?$bool_@$0A@@mpl@3@U453@@detail@xpressive@boost@@@detail@xpressive@boost@@U?$bool_@$0A@@mpl@4@@detail@xpressive@boost@@V?$_String_const_iterator@V?$_String_val@U?$_Simple_types@D@std@@@std@@@std@@@detail@xpressive@boost@@UEAAPEAXI@Z 0000000180036580 f i * CIL library *:* CIL module *
 0001:00035580       ??_G?$dynamic_xpression@U?$simple_repeat_matcher@U?$matcher_wrapper@U?$literal_matcher@U?$regex_traits@DU?$cpp_regex_traits@D@xpressive@boost@@@xpressive@boost@@U?$bool_@$0A@@mpl@3@U453@@detail@xpressive@boost@@@detail@xpressive@boost@@U?$bool_@$0A@@mpl@4@@detail@xpressive@boost@@V?$_String_const_iterator@V?$_String_val@U?$_Simple_types@D@std@@@std@@@std@@@detail@xpressive@boost@@UEAAPEAXI@Z 0000000180036580 f i GRBLdlg.obj
 0001:00035580       ??_E?$dynamic_xpression@U?$charset_matcher@U?$regex_traits@DU?$cpp_regex_traits@D@xpressive@boost@@@xpressive@boost@@U?$bool_@$0A@@mpl@3@U?$basic_chset@D@detail@23@@detail@xpressive@boost@@V?$_String_const_iterator@V?$_String_val@U?$_Simple_types@D@std@@@std@@@std@@@detail@xpressive@boost@@UEAAPEAXI@Z 0000000180036580 f i * CIL library *:* CIL module *
 0001:00035580       ??_G?$dynamic_xpression@U?$simple_repeat_matcher@U?$matcher_wrapper@Uany_matcher@detail@xpressive@boost@@@detail@xpressive@boost@@U?$bool_@$00@mpl@4@@detail@xpressive@boost@@V?$_String_const_iterator@V?$_String_val@U?$_Simple_types@D@std@@@std@@@std@@@detail@xpressive@boost@@UEAAPEAXI@Z 0000000180036580 f i GRBLdlg.obj
 0001:00035580       ??_G?$dynamic_xpression@U?$simple_repeat_matcher@U?$matcher_wrapper@U?$set_matcher@U?$regex_traits@DU?$cpp_regex_traits@D@xpressive@boost@@@xpressive@boost@@U?$int_@$01@mpl@3@@detail@xpressive@boost@@@detail@xpressive@boost@@U?$bool_@$00@mpl@4@@detail@xpressive@boost@@V?$_String_const_iterator@V?$_String_val@U?$_Simple_types@D@std@@@std@@@std@@@detail@xpressive@boost@@UEAAPEAXI@Z 0000000180036580 f i GRBLdlg.obj
 0001:00035580       ??_E?$dynamic_xpression@U?$simple_repeat_matcher@U?$matcher_wrapper@U?$posix_charset_matcher@U?$regex_traits@DU?$cpp_regex_traits@D@xpressive@boost@@@xpressive@boost@@@detail@xpressive@boost@@@detail@xpressive@boost@@U?$bool_@$00@mpl@4@@detail@xpressive@boost@@V?$_String_const_iterator@V?$_String_val@U?$_Simple_types@D@std@@@std@@@std@@@detail@xpressive@boost@@UEAAPEAXI@Z 0000000180036580 f i * CIL library *:* CIL module *
 0001:00035580       ??_E?$dynamic_xpression@U?$simple_repeat_matcher@U?$matcher_wrapper@U?$literal_matcher@U?$regex_traits@DU?$cpp_regex_traits@D@xpressive@boost@@@xpressive@boost@@U?$bool_@$0A@@mpl@3@U?$bool_@$00@53@@detail@xpressive@boost@@@detail@xpressive@boost@@U?$bool_@$0A@@mpl@4@@detail@xpressive@boost@@V?$_String_const_iterator@V?$_String_val@U?$_Simple_types@D@std@@@std@@@std@@@detail@xpressive@boost@@UEAAPEAXI@Z 0000000180036580 f i * CIL library *:* CIL module *
 0001:00035580       ??_E?$dynamic_xpression@U?$simple_repeat_matcher@U?$matcher_wrapper@U?$posix_charset_matcher@U?$regex_traits@DU?$cpp_regex_traits@D@xpressive@boost@@@xpressive@boost@@@detail@xpressive@boost@@@detail@xpressive@boost@@U?$bool_@$0A@@mpl@4@@detail@xpressive@boost@@V?$_String_const_iterator@V?$_String_val@U?$_Simple_types@D@std@@@std@@@std@@@detail@xpressive@boost@@UEAAPEAXI@Z 0000000180036580 f i * CIL library *:* CIL module *
 0001:00035580       ??_G?$dynamic_xpression@U?$simple_repeat_matcher@U?$matcher_wrapper@U?$posix_charset_matcher@U?$regex_traits@DU?$cpp_regex_traits@D@xpressive@boost@@@xpressive@boost@@@detail@xpressive@boost@@@detail@xpressive@boost@@U?$bool_@$0A@@mpl@4@@detail@xpressive@boost@@V?$_String_const_iterator@V?$_String_val@U?$_Simple_types@D@std@@@std@@@std@@@detail@xpressive@boost@@UEAAPEAXI@Z 0000000180036580 f i GRBLdlg.obj
 0001:00035580       ??_G?$dynamic_xpression@U?$charset_matcher@U?$regex_traits@DU?$cpp_regex_traits@D@xpressive@boost@@@xpressive@boost@@U?$bool_@$0A@@mpl@3@U?$basic_chset@D@detail@23@@detail@xpressive@boost@@V?$_String_const_iterator@V?$_String_val@U?$_Simple_types@D@std@@@std@@@std@@@detail@xpressive@boost@@UEAAPEAXI@Z 0000000180036580 f i GRBLdlg.obj
 0001:00035580       ??_G?$dynamic_xpression@U?$simple_repeat_matcher@U?$matcher_wrapper@U?$literal_matcher@U?$regex_traits@DU?$cpp_regex_traits@D@xpressive@boost@@@xpressive@boost@@U?$bool_@$0A@@mpl@3@U453@@detail@xpressive@boost@@@detail@xpressive@boost@@U?$bool_@$00@mpl@4@@detail@xpressive@boost@@V?$_String_const_iterator@V?$_String_val@U?$_Simple_types@D@std@@@std@@@std@@@detail@xpressive@boost@@UEAAPEAXI@Z 0000000180036580 f i GRBLdlg.obj
 0001:00035580       ??_E?$dynamic_xpression@U?$simple_repeat_matcher@U?$matcher_wrapper@U?$set_matcher@U?$regex_traits@DU?$cpp_regex_traits@D@xpressive@boost@@@xpressive@boost@@U?$int_@$01@mpl@3@@detail@xpressive@boost@@@detail@xpressive@boost@@U?$bool_@$00@mpl@4@@detail@xpressive@boost@@V?$_String_const_iterator@V?$_String_val@U?$_Simple_types@D@std@@@std@@@std@@@detail@xpressive@boost@@UEAAPEAXI@Z 0000000180036580 f i * CIL library *:* CIL module *
 0001:00035580       ??_E?$dynamic_xpression@U?$simple_repeat_matcher@U?$matcher_wrapper@U?$literal_matcher@U?$regex_traits@DU?$cpp_regex_traits@D@xpressive@boost@@@xpressive@boost@@U?$bool_@$00@mpl@3@U?$bool_@$0A@@53@@detail@xpressive@boost@@@detail@xpressive@boost@@U?$bool_@$00@mpl@4@@detail@xpressive@boost@@V?$_String_const_iterator@V?$_String_val@U?$_Simple_types@D@std@@@std@@@std@@@detail@xpressive@boost@@UEAAPEAXI@Z 0000000180036580 f i * CIL library *:* CIL module *
 0001:00035580       ??_E?$dynamic_xpression@U?$simple_repeat_matcher@U?$matcher_wrapper@Uany_matcher@detail@xpressive@boost@@@detail@xpressive@boost@@U?$bool_@$0A@@mpl@4@@detail@xpressive@boost@@V?$_String_const_iterator@V?$_String_val@U?$_Simple_types@D@std@@@std@@@std@@@detail@xpressive@boost@@UEAAPEAXI@Z 0000000180036580 f i * CIL library *:* CIL module *
 0001:00035580       ??_G?$dynamic_xpression@U?$simple_repeat_matcher@U?$matcher_wrapper@U?$literal_matcher@U?$regex_traits@DU?$cpp_regex_traits@D@xpressive@boost@@@xpressive@boost@@U?$bool_@$00@mpl@3@U?$bool_@$0A@@53@@detail@xpressive@boost@@@detail@xpressive@boost@@U?$bool_@$00@mpl@4@@detail@xpressive@boost@@V?$_String_const_iterator@V?$_String_val@U?$_Simple_types@D@std@@@std@@@std@@@detail@xpressive@boost@@UEAAPEAXI@Z 0000000180036580 f i GRBLdlg.obj
 0001:00035600       ?repeat_@?$dynamic_xpression@U?$charset_matcher@U?$regex_traits@DU?$cpp_regex_traits@D@xpressive@boost@@@xpressive@boost@@U?$bool_@$0A@@mpl@3@U?$compound_charset@U?$regex_traits@DU?$cpp_regex_traits@D@xpressive@boost@@@xpressive@boost@@@detail@23@@detail@xpressive@boost@@V?$_String_const_iterator@V?$_String_val@U?$_Simple_types@D@std@@@std@@@std@@@detail@xpressive@boost@@AEBAXAEBUquant_spec@234@AEAU?$sequence@V?$_String_const_iterator@V?$_String_val@U?$_Simple_types@D@std@@@std@@@std@@@234@U?$int_@$00@mpl@4@U?$bool_@$0A@@84@@Z 0000000180036600 f i GRBLdlg.obj
